(dp0
S'kernel'
p1
(lp2
(F1.6007810593582121
F1.4356965173029843
F1.622754859285078
F2.2410315085295482
F2.472704173163025
F3.472904644050376
F17.74977599833506
F13.055515391126141
F13.029005573177692
F17.723665555140354
F14.282195817833776
F23.07452206012845
F18.281790015035348
F20.133511562384665
F24.675932826338684
F24.83681080680586
F24.522972907623643
F23.84843517802944
F22.97583039110332
F23.50766712891139
F25.3057251844338
F24.192652581441504
F24.29688154724699
F24.818135058628588
F25.99230382661425
F26.775369371897472
F27.333684241509506
F28.26732791952348
F30.129694986664262
F31.11621640507067
F31.854006128752392
F31.79446980612698
F32.04297582736469
F32.368155077901584
F33.401800056306506
F33.07199164318116
F33.76322509537694
F34.73454665844045
F34.75947314301991
F35.08174829318691
F36.36173921627488
F39.372072804378426
F39.96151418038912
F42.45492165130555
F41.955846216581
F44.94122168075912
F46.95775171033829
F47.00300819835803
tp3
a(F16.0
F0.7804878048780488
F0.13163058648226073
F0.08417195127188401
F0.04936908569151262
F0.025219533411860052
F0.015383563259189163
F0.0036900864596147134
F0.0005533962500899225
F0.0004197891922925797
F0.0002818859810045433
F0.00015102486256686625
F0.00010856814314466659
F5.9593557240632994e-05
F8.788365082718808e-06
F8.067846113510738e-06
F6.317264357364758e-06
F3.5881002767464878e-06
F3.3950132669558235e-06
F1.8528173030445775e-06
F1.6893479832437214e-06
F1.3988571161385383e-06
F9.541770032954716e-07
F8.356403235101836e-07
F6.643211549660679e-07
F5.842601416161573e-07
F5.137399568073529e-07
F4.3314377226035643e-07
F3.787514277395681e-07
F3.4191226040434024e-07
F3.055643427465699e-07
F2.7450695340265114e-07
F2.481827027479917e-07
F2.2388647319735533e-07
F2.0689949585429035e-07
F1.8924843955557733e-07
F1.7149643899615086e-07
F1.5640084315259578e-07
F1.432340284391935e-07
F1.3174021781553093e-07
F1.2115604139810712e-07
F1.110245966337891e-07
F1.0201337210892849e-07
F9.434513439685292e-08
F8.723347650198942e-08
F8.054095984428044e-08
F7.48633387814582e-08
F6.963338104392116e-08
tp4
asS'params'
p5
(F1.8
I50
tp6
s.