(lp0
(lp1
(F2.145911990647552
F3.2410079036319797
F3.24037034920393
F3.645562159227315
F3.2031788944087713
F3.213537445972377
F3.7594973476241846
F3.6593456138239255
F3.9019898895178606
F5.23657859905331
F5.636784536236531
F5.829809867807698
F6.071777978464216
F6.072882893371597
F6.690345679308505
F7.492799464470612
F7.648062722281015
F7.753858510563592
F8.500355207127699
F9.08141228030019
F9.17541072501155
F9.764076971538845
F10.320652221996498
F10.955101826021467
F11.273712893917304
F11.466076661466568
F12.14229076275046
F12.226224320705562
F12.831668902213854
F13.244269048052658
F13.70947494012396
F14.117983947683497
F14.25965924104543
F14.770399329823936
F14.905437163278974
F15.462551061363582
F15.799576062306764
F16.331892224308636
F16.782990326234113
F17.196170124801437
F17.492431103525046
F17.977839507398837
F18.13205795538794
F18.69853061953293
F19.25454039817409
F19.670370562192126
F20.15341183731838
F20.254826930639243
F20.796681000211013
F21.329608252927482
F21.812819078762026
F22.176530332255894
F22.047796515034687
F23.064664675510496
F23.26772459642154
F23.590055769399978
F23.479052106712516
F24.497394188761934
F24.839601165631397
F25.47494657125283
F25.666864966537865
F26.024714935865084
F26.272128424242535
F27.347419140935752
F27.33363048912341
F27.76942435243767
F28.08116253828393
F28.660027242546448
F29.02190879831535
F29.581744565948444
F29.996054891611795
F30.126017693934347
F30.623367960782364
F30.97712629636592
F31.45104640498153
F31.846421207832318
F32.3553685910177
F33.063817079489844
F33.18655490666133
F33.58949619540088
F34.24725149672916
F34.580057074031394
F34.913189135307746
F35.26174156026994
F35.82391863170635
F36.490352517322
F36.8378583337989
F37.09830676200227
F37.4234427327565
F38.093937202412945
F38.61719839771054
F39.07506941384007
F39.21100471509932
F39.58035090669406
F39.977432922916336
F40.34885221222685
tp2
a(F0.697524219590958
F0.20822622107969146
F0.06480392453519108
F0.026565025156273816
F0.01152262503030449
F0.006101700369122973
F0.003528458759588106
F0.0024527843392168004
F0.0018089090723408812
F0.001479624299264389
F0.00120467271577152
F0.0009758849593326041
F0.000785044920787921
F0.0006096110235750581
F0.0004643816507855185
F0.00036270887742881575
F0.00028717547940090556
F0.00023690076574583896
F0.00019839849243383223
F0.00016354481251732375
F0.00013599279736405714
F0.00011395902301218112
F9.511537566309746e-05
F7.989274901241965e-05
F6.738667162203229e-05
F5.711779672619692e-05
F4.888551627083974e-05
F4.19474977700602e-05
F3.5781834188566336e-05
F3.079378108091545e-05
F2.6768876302091216e-05
F2.3273614007661625e-05
F2.0317454538553974e-05
F1.7757121638993118e-05
F1.557507732199753e-05
F1.3701766670937896e-05
F1.2076581219133267e-05
F1.0679606800566338e-05
F9.478131303889046e-06
F8.444700637665087e-06
F7.5349343869232994e-06
F6.730406633027305e-06
F6.021939378420204e-06
F5.40394998183741e-06
F4.858251745817948e-06
F4.378819008427424e-06
F3.955782673396476e-06
F3.583509621347788e-06
F3.2480329652094836e-06
F2.9489535827375904e-06
F2.6826080975604376e-06
F2.4435249234743544e-06
F2.2311439540775638e-06
F2.0397661366223337e-06
F1.8680138272297444e-06
F1.7134957862612255e-06
F1.573448950589766e-06
F1.44760567893604e-06
F1.3327705025539933e-06
F1.2294001105623564e-06
F1.135307000133216e-06
F1.0502333769569554e-06
F9.721752796601518e-07
F9.004922892719621e-07
F8.35089366438408e-07
F7.757917816502295e-07
F7.213386947445657e-07
F6.712930242080816e-07
F6.25258223390114e-07
F5.832122740252803e-07
F5.44389033996021e-07
F5.086017483202887e-07
F4.754348936643301e-07
F4.448224496217476e-07
F4.1678425943794853e-07
F3.9082269407613945e-07
F3.6654509542308857e-07
F3.441758672000174e-07
F3.234311363461773e-07
F3.041880019911829e-07
F2.862388602697602e-07
F2.695549563245465e-07
F2.540054621199291e-07
F2.3951160930181295e-07
F2.2604586516125792e-07
F2.1341899339104228e-07
F2.0165383021886866e-07
F1.906437826851594e-07
F1.8035372333315095e-07
F1.707137058735109e-07
F1.616559514463501e-07
F1.5318601658008595e-07
F1.4523384106234022e-07
F1.3776967832296293e-07
F1.3076214450047266e-07
F1.241719237454541e-07
tp3
aa(I3
I100
tp4
a.