(dp0
S'kernel'
p1
(lp2
(F15.96346785128477
F16.04700073139107
F16.24653098837436
F16.332898253416367
F16.360004946989797
F16.51115598595295
F16.76068384249566
F17.09860297552604
F17.453292035281795
F17.856712338234185
F18.283403271844485
F18.76597040034491
F19.339155052246895
F19.99850690036345
F20.674300497320484
F21.400218042306474
F22.066067832819297
F22.847011218213055
F23.561109000437458
F24.16447102979862
F24.85346603804961
F25.608300782783168
F26.34050267512459
F26.96573104661822
F27.587030558711923
F28.352490159823077
F29.107275771340422
F29.820831202087767
F30.546535494319617
F31.21823408544576
F31.904920904983644
F32.550341686596326
F33.2764087724673
F33.8775973668528
F34.51301713372306
F35.21732282150172
F35.871260160699016
F36.55755608251201
F37.25472228219765
F37.86913350063455
F38.60715963137137
F39.37493703510265
F40.094187052923864
F40.89826629003503
F41.61321250744191
F42.34141859824147
F43.04222298492467
F43.78679172045824
F44.5211842886639
F45.28894013450661
F45.98552790251233
F46.68346595665685
F47.41134454766525
F48.16510164549573
F48.91347664548585
F49.678644171108914
F50.544964281526916
F51.307940758597184
F52.15557127540544
F52.990953596655466
F53.80887986342711
F54.67776692419904
F55.52830128734023
F56.39242114963085
F57.30219199921662
F58.21435058827104
F59.1100621694897
F59.95451731407499
F60.836544043035666
F61.745814716637575
F62.627424130737374
F63.53175527950173
F64.44170964898007
F65.38520535730524
F66.35628401041245
F67.35161678996218
F68.25219398882743
F69.24036102493143
F70.21332881208764
F71.2730054609295
F72.29495917854533
F73.35406432232233
F74.52921435858833
F75.56833699643089
F76.64137709686167
F77.76359018513823
F78.91449209710854
F80.18165874821547
F81.24353795271193
F82.36061738151864
F83.51326432037594
F84.6802230605558
F85.88186160945696
F86.90798696745016
F88.0551854866527
F89.1773671549598
F90.31350025890569
F91.48489476425134
F92.64316620846314
F93.83628990306069
F94.92478736323937
F96.0069859285278
F97.11836208681098
F98.22287896446768
F99.36555065631053
F100.54527646039419
F101.64197558544382
F102.7972312765339
F103.82172546718685
F104.84058036023097
F105.91338597202439
F106.98007886995622
F108.06294811670413
F109.17154910915353
F110.3515676082464
F111.57423531205251
F112.77721144800644
F114.03646657640743
F115.25897249767395
F116.67216877871185
F117.96555910063962
F119.23489949847148
F120.61470787048565
F122.00383037713533
F123.38886194247671
F124.75779245981569
F126.23850943705791
F127.68063327579638
F129.2463913457054
F130.76876654417364
F132.37626677716707
F133.88784560129477
F135.43325772915793
F136.92971817302177
F138.44154270304884
F139.86612628278976
F141.34300440290176
F142.91494224572284
F144.31073914843583
F145.82726974913587
F147.26831839460058
F148.72432760432562
F150.1036690288299
F151.42293646341733
F152.80029166010468
F154.23492039016085
F155.70218266527337
F157.1173390622191
F158.47882269540617
tp3
a(F7.676441318414225e-06
F5.0871144240552085e-06
F3.7569790486579646e-06
F2.9655709234093093e-06
F2.446673106717177e-06
F2.0711290947658442e-06
F1.7818449991880323e-06
F1.5492207564685346e-06
F1.3584810847786234e-06
F1.1987436367080492e-06
F1.0633468973086972e-06
F9.468792354383331e-07
F8.450581861260413e-07
F7.550563196207547e-07
F6.755657625985219e-07
F6.050806246652107e-07
F5.43136386783966e-07
F4.880091785726866e-07
F4.39371624972483e-07
F3.9684513832409487e-07
F3.592057761316876e-07
F3.2564272484454927e-07
F2.9575297312047384e-07
F2.693005658668144e-07
F2.458003055481056e-07
F2.2463762794622103e-07
F2.0558381598868596e-07
F1.884518384044646e-07
F1.7300232928662643e-07
F1.5909047839063025e-07
F1.4652387231465673e-07
F1.3517437191462635e-07
F1.2485629969226644e-07
F1.1552114104709417e-07
F1.0703789335877988e-07
F9.92875847665349e-08
F9.221432247015662e-08
F8.573940127693919e-08
F7.980106962796955e-08
F7.436598315072095e-08
F6.935881843551097e-08
F6.473791209663758e-08
F6.047867791480335e-08
F5.6537107826288266e-08
F5.28988266028978e-08
F4.9536229265322944e-08
F4.642823106275845e-08
F4.354879439102785e-08
F4.0879643273486505e-08
F3.840106199077512e-08
F3.610214023609284e-08
F3.396746433323299e-08
F3.198190097511328e-08
F3.013224238255286e-08
F2.8408138292879105e-08
F2.6799238322287077e-08
F2.5293441815716186e-08
F2.388689039593527e-08
F2.2569765915791575e-08
F2.133618636682241e-08
F2.0180833938400238e-08
F1.909708093470554e-08
F1.808044349470804e-08
F1.7126068186048966e-08
F1.6229032941437502e-08
F1.538560287556889e-08
F1.459250136548924e-08
F1.3846991628845286e-08
F1.3145413749541272e-08
F1.2484595804617596e-08
F1.1862149250805634e-08
F1.1275354241983195e-08
F1.0721890283650777e-08
F1.0199411932207377e-08
F9.705811545572656e-09
F9.239216430702385e-09
F8.798524988233916e-09
F8.381668073521017e-09
F7.987306434625588e-09
F7.613728365635737e-09
F7.259914987829877e-09
F6.924586782074216e-09
F6.606303247998615e-09
F6.304604853228888e-09
F6.018435554470123e-09
F5.746789485926438e-09
F5.488815994015222e-09
F5.2435123421914396e-09
F5.0106726076233114e-09
F4.78947599730333e-09
F4.579220690772839e-09
F4.3792951350974864e-09
F4.1890955847764325e-09
F4.00836040846045e-09
F3.836387314094657e-09
F3.672737946221652e-09
F3.5169517790311866e-09
F3.368566006360468e-09
F3.227209160705864e-09
F3.0924833404871648e-09
F2.9641316155039693e-09
F2.8418208415674386e-09
F2.7252102576925258e-09
F2.6140090601127485e-09
F2.5079121651242135e-09
F2.406636481240416e-09
F2.3099906966510112e-09
F2.2177088549998976e-09
F2.1296344895168423e-09
F2.045554988718778e-09
F1.965241881581475e-09
F1.8885119881077872e-09
F1.8151793406004974e-09
F1.745064604013236e-09
F1.6779913765539232e-09
F1.6138038435998715e-09
F1.5523751453895702e-09
F1.4935613779892256e-09
F1.4372510409633218e-09
F1.3832867894878092e-09
F1.3315918309971082e-09
F1.2820682221085438e-09
F1.234596406435434e-09
F1.1890831290721888e-09
F1.1454442353780868e-09
F1.1035980294706788e-09
F1.0634486892972286e-09
F1.024928518522135e-09
F9.879491940194753e-10
F9.524509255184276e-10
F9.18360045004785e-10
F8.856273292386447e-10
F8.541905412358775e-10
F8.239983465024647e-10
F7.94995577781739e-10
F7.671380422761968e-10
F7.403708251953523e-10
F7.146397617345566e-10
F6.899132857074274e-10
F6.661393597694779e-10
F6.432816163245786e-10
F6.212996612632923e-10
F6.001604870681808e-10
F5.798308592300086e-10
F5.60272562522652e-10
F5.414503264284517e-10
F5.233318623881962e-10
F5.058904958869298e-10
F4.891001562878478e-10
tp4
asS'params'
p5
(F1.8
I150
tp6
s.