(lp0
(lp1
(F2.258317958127243
F2.5495097567963922
F3.2939338184001206
F3.5224149964771905
F4.11269810638779
F4.726617087400786
F5.02413529713034
F5.252380412727167
F5.836833683683337
F6.309215605000958
F6.719237170107046
F7.158370487844081
F7.619751049778862
F8.249591631213292
F8.724086050661974
F9.119222609108473
F9.590770828540037
F10.125194576766972
F10.759897333385668
F11.076189723843962
F11.589744132594609
F12.263426050541904
F12.769206380153285
F13.475931115305556
F14.197073856163039
F14.863045191331102
F15.352967629206875
F16.143104654401533
F16.743680459271662
F17.372396104535618
F17.929278808466893
F18.475575092537717
F19.091587723510877
F19.74286279529048
F20.30726464879367
F20.767094636396312
F21.35912822595229
F21.94794116112309
F22.5228109145873
F23.096346208837662
F23.633713963826153
F24.093694226440242
F24.609467942415154
F25.095207312389622
F25.64194104428168
F26.207126682934103
tp2
a(F0.17910447761194032
F0.0662251655629139
F0.03038487508440244
F0.015540015540015542
F0.008748849688281726
F0.0051875334513565826
F0.0032391830696163804
F0.00211581048172493
F0.0014208638289678283
F0.0009978900362630984
F0.0007169424627434189
F0.0005247274692250589
F0.0003927070418305055
F0.00029917956997070524
F0.00023048234118789655
F0.00018026959157034834
F0.00014258484047659854
F0.00011374394030506137
F9.163976795782368e-05
F7.444991744611523e-05
F6.096412973330927e-05
F5.026229242458867e-05
F4.170264719317734e-05
F3.4828230352254747e-05
F2.924549184436744e-05
F2.4684762235838053e-05
F2.0913803223063e-05
F1.7791733350273296e-05
F1.5206720116976908e-05
F1.3040387578214525e-05
F1.1214472467377308e-05
F9.678446652480804e-06
F8.382442576981782e-06
F7.279653427226396e-06
F6.3431126566064346e-06
F5.542979580066663e-06
F4.857628105555434e-06
F4.269143831195405e-06
F3.7623248310519205e-06
F3.3242494906745538e-06
F2.9445665198443368e-06
F2.61470023254942e-06
F2.327127412631256e-06
F2.076266218032422e-06
F1.8567842431448668e-06
F1.6639436797305484e-06
tp3
aa(F1.8
I50
tp4
a.