(dp0
S'kernel'
p1
(lp2
(F15.688856366318284
F15.607447249615996
F15.58318872936656
F15.768221070140806
F16.004093739354914
F16.362647295865003
F16.73813559262563
F17.15045321957666
F17.577661850590204
F18.11290891736219
F18.640474384751013
F19.234789512617915
F19.79751112923192
F20.402391301687178
F21.012903594265012
F21.5745204204475
F22.256056068291556
F22.89842336677216
F23.553818114418977
F24.237438073511022
F24.901506701583067
F25.533278239302682
F26.196708355334682
F26.9229829524777
F27.585166289303785
F28.256628414398495
F29.028189849413845
F29.75510171031302
F30.474676296751095
F31.252876251070656
F32.09036941627285
F32.93287125426746
F33.74543852632841
F34.58227470965085
F35.38209533956792
F36.221838459524605
F36.98405086384971
F37.76062339790751
F38.60191203307651
F39.29409655839165
F40.15378408182154
F40.948479849140526
F41.818849418940644
F42.63929300321476
F43.38339847332508
F44.16542330197662
F44.92292919779326
F45.63432860948363
F46.34709854956837
F47.06314634115869
F47.807662261235926
F48.51301024510067
F49.190416327691715
F49.85250459546718
F50.572654666056195
F51.233412267129836
F51.90634704723743
F52.5626377476108
F53.21907250966386
F53.87119164041505
F54.55001177124818
F55.198807107799226
F55.88782668144471
F56.57194462476623
F57.2201756092283
F57.88925962172196
F58.570232819236026
F59.232383781894406
F59.874788041387944
F60.51817952013676
F61.172325038991424
F61.85907334666885
F62.53570569928468
F63.23952106572492
F63.97917786884123
F64.69576285234851
F65.37995157392785
F66.08525021851409
F66.79370008020017
F67.55238502982967
F68.3332144655938
F69.12837703437327
F69.88989044113576
F70.67274134014016
F71.48024667009385
F72.27072018744401
F73.05040124628215
F73.8516535519252
F74.61793154740907
F75.4029114017567
F76.1658619659183
F76.99832642142631
F77.79508659139967
F78.61680274237541
F79.44447341369037
F80.23820137810117
F81.09617592046966
F81.91279244509383
F82.71726409407363
F83.52789086539674
F84.36213239010864
F85.11236784539582
F85.93347577061093
F86.72352983125238
F87.53649372992835
F88.29178394745149
F89.07248309325665
F89.83007433002551
F90.58601281914477
F91.32889033570947
F92.05920035763168
F92.7890942576174
F93.54892894785529
F94.25518194702418
F94.9874064061145
F95.72282083743659
F96.47463233876398
F97.22590551313257
F97.96892010583868
F98.73959138673617
F99.59805252921993
F100.42297634156532
F101.28204704492072
F102.16161821428204
F103.03356090748113
F103.92939645240936
F104.81861422264771
F105.71891894514945
F106.6024706408418
F107.47902399900411
F108.33423721358254
F109.22281018766587
F110.1069092918653
F111.03485159105881
F111.90515453359856
F112.75501800802557
F113.62660459180832
F114.52187358231414
F115.38259344473569
F116.23930926661522
F117.13057227909576
F117.99524121983431
F118.86007065838149
F119.66962766650651
F120.47790207357053
F121.26962709647599
F122.03127426456157
F122.82663220727301
F123.60140475619684
tp3
a(F8.268371807630565e-06
F5.547052600122376e-06
F4.179991978814008e-06
F3.3217066025912763e-06
F2.7280903206952745e-06
F2.2844416576723463e-06
F1.941742007401318e-06
F1.6691716913493974e-06
F1.4482124670149668e-06
F1.2635606679546381e-06
F1.1085385908302122e-06
F9.763676025645336e-07
F8.637997870589742e-07
F7.669335783276837e-07
F6.83239657265863e-07
F6.110548585091873e-07
F5.476813182403448e-07
F4.921904714178816e-07
F4.434154091122858e-07
F4.003308604088667e-07
F3.622624101337543e-07
F3.2863008591627566e-07
F2.98745308325512e-07
F2.720004627748295e-07
F2.481462368473356e-07
F2.2680622239174936e-07
F2.0754810178579148e-07
F1.902067965473147e-07
F1.7457661215429704e-07
F1.6041981903726668e-07
F1.4754560935335824e-07
F1.3583358348866558e-07
F1.2519176737867106e-07
F1.1550244975559766e-07
F1.0668836179327875e-07
F9.864643890594087e-08
F9.132578646898213e-08
F8.464670144145228e-08
F7.852886704630374e-08
F7.295090930168634e-08
F6.782425914856925e-08
F6.311958914548993e-08
F5.878663203869829e-08
F5.4799963005677125e-08
F5.113682055368005e-08
F4.776238594782046e-08
F4.465219140018373e-08
F4.178552284549799e-08
F3.913944169288552e-08
F3.6693529397567516e-08
F3.442813791078938e-08
F3.232993138648353e-08
F3.038552048568774e-08
F2.8582106228881267e-08
F2.6905342270680835e-08
F2.5346817556555108e-08
F2.3896372921803736e-08
F2.2545562876909928e-08
F2.1286308610319553e-08
F2.011139019394499e-08
F1.9013614344155326e-08
F1.7987643607387783e-08
F1.7027313646570297e-08
F1.612790365302757e-08
F1.5285419283538987e-08
F1.4495403742199643e-08
F1.3753943403388713e-08
F1.3057785410021834e-08
F1.2403907150290368e-08
F1.1789286060119011e-08
F1.1211097256587133e-08
F1.0666608552059962e-08
F1.0153626274225103e-08
F9.669897373747744e-09
F9.213325748550981e-09
F8.782326719393253e-09
F8.375412637445543e-09
F7.990942580969964e-09
F7.627490057271512e-09
F7.283556399903264e-09
F6.957897218636228e-09
F6.649369321555836e-09
F6.357067964340056e-09
F6.079963768542371e-09
F5.8170953588740224e-09
F5.567675810991612e-09
F5.330942162872406e-09
F5.106116289391091e-09
F4.892576668494771e-09
F4.6896362937077024e-09
F4.4967229527650405e-09
F4.313162853660482e-09
F4.138485577788629e-09
F3.972164425126822e-09
F3.813737287057408e-09
F3.6628095364378353e-09
F3.5189081756475125e-09
F3.381695396766575e-09
F3.250822914729163e-09
F3.125947027209926e-09
F3.0067316537942338e-09
F2.8929371847981476e-09
F2.7842284795728885e-09
F2.6803602602886773e-09
F2.5810668001799245e-09
F2.4861455751439976e-09
F2.395356919062488e-09
F2.3085023831262455e-09
F2.2253819750578156e-09
F2.145813474150832e-09
F2.0696233376173717e-09
F1.9966433544377116e-09
F1.926704573601384e-09
F1.8596766231974952e-09
F1.7954094094521078e-09
F1.7337693342572875e-09
F1.6746270862839452e-09
F1.6178656455288729e-09
F1.563376485936412e-09
F1.5110490280447259e-09
F1.4607660485955928e-09
F1.4124440255085469e-09
F1.3659897157139208e-09
F1.3213174631149848e-09
F1.2783513619856995e-09
F1.237013937561117e-09
F1.1972359849852639e-09
F1.158949246309345e-09
F1.1220927149441084e-09
F1.0866064775756563e-09
F1.0524345025691407e-09
F1.019517641750697e-09
F9.878035233690175e-10
F9.57237879231118e-10
F9.277788795197009e-10
F8.993823705641777e-10
F8.720027243672713e-10
F8.455961400238962e-10
F8.201258509611265e-10
F7.955541966606922e-10
F7.718425900250091e-10
F7.489584137118141e-10
F7.268687701116629e-10
F7.055451645920561e-10
F6.849571667148565e-10
F6.650762846227651e-10
F6.458758630769491e-10
F6.273272302908079e-10
F6.094058301982258e-10
tp4
asS'params'
p5
(F1.8
I150
tp6
s.