(dp0
S'kernel'
p1
(lp2
(F1.118033988749895
F1.38995423993585
F1.4120294474598707
F1.6439219381841021
F2.1163385572466633
F2.5481752841811263
F2.7594534482997415
F3.2181855435365785
F3.5452756721920413
F3.8566932581124904
F4.2672967354721685
F4.627345443768189
F4.879994098728821
F5.012021104859352
F5.734069185826492
F6.0028577390691975
F6.259486189828566
F6.872438419596057
F7.096159483308998
F7.737782654870696
F8.074973511011361
F8.266520208531349
F8.546225990783016
F8.948571893912115
F9.0939156372438
F9.800208626217229
F10.19231044470341
F11.000078329313334
F11.81765432049074
F11.716507362886796
F12.331140696690877
F12.18633360188826
F12.705507326989478
F12.993854926282374
F13.909519229373393
F13.650300492079193
F14.792594775979687
F14.71819542934918
F15.205109181823005
F15.831975837863059
F16.151998874088733
F16.503054970412546
F16.971034997059018
F17.361290299185768
tp3
a(F3.5999999999999996
F3.2399999999999998
F0.4246509388541165
F0.46584507042253526
F0.39071450105517025
F0.11909674427302866
F0.1114241122969409
F0.0757133537066923
F0.03924308980482777
F0.02834590646767387
F0.018081064796456332
F0.013105310199724435
F0.009424230788488057
F0.00655822089454821
F0.004831619521271131
F0.0035380959520218227
F0.0025993362981150112
F0.001939004424166908
F0.0014869366256428324
F0.00113069816204763
F0.0008617424272103638
F0.0006816098588078126
F0.0005346819660551722
F0.0004259168302380576
F0.00034321234253271976
F0.00027614796946745165
F0.00022642885475581748
F0.00018591052482331308
F0.00015309677471317073
F0.00012727842002966736
F0.0001060604847654003
F8.887158990744635e-05
F7.514302707276566e-05
F6.36283585718026e-05
F5.433369050582423e-05
F4.65827008036009e-05
F3.9993729136824765e-05
F3.4513206444951466e-05
F2.9836493093354888e-05
F2.5869087910668182e-05
F2.2524931613783465e-05
F1.9692910079531155e-05
F1.7238014505623336e-05
F1.517130807298074e-05
tp4
asS'params'
p5
(F3.0
I50
tp6
s.