(dp0
S'kernel'
p1
(lp2
(F16.152175778177565
F16.27572438600889
F16.274802025106364
F16.34284653126335
F16.478779432987295
F16.71958993784174
F16.86676937059633
F17.020872566358207
F17.311605234430974
F17.649946069518155
F18.00759723480696
F18.318064522653067
F18.714427225246077
F19.143876716392793
F19.59611750269559
F20.131223527020104
F20.69889835457801
F21.44071539747921
F22.15846418420456
F22.891781653214807
F23.631341854450017
F24.457858510600396
F25.289609329148906
F26.082250915386712
F26.85113426285949
F27.652017725396096
F28.397334196133716
F29.132773306686577
F29.846792512142482
F30.55809994692083
F31.321879241301588
F32.05243924322168
F32.713643806931096
F33.35443358654463
F34.008707114806604
F34.598203674171586
F35.24110198915649
F35.88429410606088
F36.5726658557618
F37.25480237711161
F37.953658512569916
F38.67830507580161
F39.37451678366071
F40.064823104886536
F40.78724348795952
F41.45625790015922
F42.170245387661225
F42.88384226051296
F43.57343158952891
tp3
a(F7.3471825102149685e-06
F4.8482081295934505e-06
F3.6179234618430265e-06
F2.8759148013765897e-06
F2.3732856983980765e-06
F2.0032573506916215e-06
F1.7252313888517665e-06
F1.5085883363318399e-06
F1.3308896977354116e-06
F1.181821161617509e-06
F1.0551266422693352e-06
F9.474492290330703e-07
F8.538925307741206e-07
F7.71859917855533e-07
F6.994631042961067e-07
F6.347334905960168e-07
F5.766730124007785e-07
F5.23582742931317e-07
F4.7546554510298745e-07
F4.319392058592998e-07
F3.926658424230472e-07
F3.570152026363965e-07
F3.247478127264191e-07
F2.957005164311474e-07
F2.696190526685615e-07
F2.461347345123932e-07
F2.2506583734185104e-07
F2.061438514263976e-07
F1.891433235796655e-07
F1.738390088361569e-07
F1.5998644209051434e-07
F1.4745380935626093e-07
F1.3613777253391805e-07
F1.2590398800546609e-07
F1.1661660997364334e-07
F1.0819424215669188e-07
F1.005134778513038e-07
F9.349463428455339e-08
F8.705488114778785e-08
F8.113952649083158e-08
F7.569433198312709e-08
F7.06713753245148e-08
F6.603915046489913e-08
F6.176349385539628e-08
F5.780835190389808e-08
F5.41537430633091e-08
F5.07679283892116e-08
F4.7628736044198495e-08
F4.471811467313905e-08
tp4
asS'params'
p5
(F1.8
I50
tp6
s.