(dp0
S'kernel'
p1
(lp2
(F1.324802642213672
F1.5652475842498528
F1.8857683974920123
F2.5503245135969927
F2.6683328128252666
F2.8827233048708245
F2.999391221406504
F3.1380493140109293
F3.3133838287608963
F3.4998562945984277
F3.71907086300709
F3.8751275232100517
F4.0896715586825225
F4.305416827375179
F4.648631338479439
F4.932045457941162
F5.2056487909063
F5.6323497108494704
F6.026630484773395
F6.262616860209268
F6.600040772180456
F6.793998583164915
F7.091899415506713
F7.3661972012177355
F7.6431391193119005
F7.908178692081651
F8.184046100100874
F8.358838136966165
F8.659265939579837
F9.007683948438306
F9.259150912740752
F9.643661163756652
F9.915224726624471
F10.126223374568701
F10.437391510765002
F10.661618078987146
F10.925373194713254
F11.179071139297806
F11.495321050705858
F11.73929067556348
F11.990134361026353
F12.213551382230454
F12.4638811959138
F12.713965174336488
F12.942328923592182
F13.227973302699255
F13.471637917187008
F13.759758653907525
F14.025129224323548
F14.327292209951475
F14.628487531529824
F14.940144999747782
F15.258777882723441
F15.567596094638597
F15.881081137790163
F16.114316306018257
F16.41427342306869
F16.70612206693362
F16.991956419148543
F17.260800148036783
F17.580635629603076
F17.863174285988844
F18.202867846963745
F18.54197459813451
F18.885601249323663
F19.220739658161527
F19.532432844208095
F19.835109287666864
F20.15370694317
F20.433125678849418
F20.789921485218652
F21.111289823824368
F21.50084010109529
F21.913854555772193
F22.281839993431966
F22.621708639475234
F22.962049526051544
F23.36922868803222
F23.734239455291636
F24.10026074504102
F24.502259803975
F24.8382369203255
F25.157872931051198
F25.470348982083127
F25.851317559582593
F26.146176151895727
F26.48177685127277
F26.826887569824628
F27.17301696989066
F27.459126934144887
F27.821516946785252
F28.17857283920069
F28.49274549354359
F28.775724770474778
F29.056902908708373
tp3
a(F2.25
F0.8145820238843495
F0.4109972041006524
F0.19566383865497747
F0.1086360753062318
F0.05902506110536449
F0.033393266756446834
F0.02142230772604353
F0.013891284066103638
F0.00952663415223059
F0.006708863645743598
F0.004805003032913806
F0.0035935669390050927
F0.0027540537917622385
F0.00216705855546334
F0.0017325083011540021
F0.0014021488383723685
F0.0011442239355916402
F0.0009412384371738274
F0.0007796476671478661
F0.0006480924426610077
F0.0005413548478702762
F0.00045314345585363916
F0.00038059316834926116
F0.0003211046578611309
F0.00027145251065789953
F0.00023051446354728706
F0.0001968240725822092
F0.0001688051531096849
F0.00014559974969535514
F0.00012611082562833477
F0.00010965039493792963
F9.568728797991141e-05
F8.379340281310617e-05
F7.360073102350711e-05
F6.487433872289945e-05
F5.731215105285046e-05
F5.0735802754323967e-05
F4.503520115573336e-05
F4.004864902664821e-05
F3.570493688334706e-05
F3.191212476279216e-05
F2.8587595672588524e-05
F2.567092837410152e-05
F2.3103495303078214e-05
F2.0836045997183115e-05
F1.882956430282326e-05
F1.7051089645312115e-05
F1.5469716546585247e-05
F1.4062844190216421e-05
F1.2806249739970909e-05
F1.1680420420016914e-05
F1.0671259631156523e-05
F9.763034912859109e-06
F8.945364834124882e-06
F8.208456312389616e-06
F7.542587795409603e-06
F6.939967600610907e-06
F6.394035596681989e-06
F5.89813939253021e-06
F5.447520559440127e-06
F5.037452164618635e-06
F4.663786792118233e-06
F4.323116060092648e-06
F4.011847285414957e-06
F3.7268338208642556e-06
F3.4657765572643335e-06
F3.2261519356571764e-06
F3.005901746162936e-06
F2.803350168457814e-06
F2.616675968258928e-06
F2.444493646129202e-06
F2.2854697210292084e-06
F2.1384711339603187e-06
F2.0024923116665565e-06
F1.8765872476268643e-06
F1.7599016531057216e-06
F1.6516978205447997e-06
F1.5512302725375423e-06
F1.4578420653095283e-06
F1.3709625431432062e-06
F1.2900454561136103e-06
F1.214647067210088e-06
F1.144334434729441e-06
F1.0787218800042374e-06
F1.0174217747174873e-06
F9.601316417687693e-07
F9.065406617163573e-07
F8.563955546782993e-07
F8.094575859912952e-07
F7.6548814611549e-07
F7.242819548552644e-07
F6.856271610072992e-07
F6.493457649656214e-07
F6.152764253455641e-07
tp4
asS'params'
p5
(I3
I100
tp6
s.