(lp0
(lp1
(F7.885713102565688
F8.652711233526624
F8.472649652849999
F9.016549536476028
F7.890338610914803
F8.314773712431892
F8.317720308833195
F9.010323203988605
F9.866522975566909
F8.949028417723623
F11.112771262768716
F9.485705671950274
F10.396604446290125
F11.458729032406866
F11.38729316905637
F11.141548108827433
F12.550491913645178
F12.868980603672771
F13.118715986098099
F14.312711410462963
F13.257748984956134
F15.08623683522638
F15.61804226834738
F15.760716705884157
F17.00754043692549
F17.526547208673144
F18.36098585654022
F17.85261784362323
F19.293541982059473
F20.20717569824355
F21.483219478175133
F23.01935651941848
F23.935678268996913
F23.572553484863384
F25.20114319795618
F24.938150241028985
F26.670234892937813
F27.16916055771258
F27.300704671456025
F28.850895078391993
F29.263437800917632
F29.860472240604974
F30.9497003821161
F31.72867761638036
F32.49633405509396
F31.6938433067432
F33.04168318385033
F35.05108298089318
F35.57142302740613
tp2
a(F0.00010184020168018536
F6.373794038324964e-05
F4.843355865054748e-05
F3.653525233674353e-05
F3.258293248190477e-05
F2.778820410247137e-05
F2.46807456468258e-05
F2.113083642996957e-05
F1.7896383427653264e-05
F1.6139497679930198e-05
F1.3236119272182064e-05
F1.2175820946096543e-05
F1.0666463194039938e-05
F9.386596048943558e-06
F8.288114557627638e-06
F7.572905539772042e-06
F6.608464145774242e-06
F5.8905659521322084e-06
F5.272762853404583e-06
F4.636644332076602e-06
F4.259046729964571e-06
F3.7473377233358158e-06
F3.375318749432862e-06
F3.0345962354202835e-06
F2.710296886138459e-06
F2.4242075287937772e-06
F2.17931537859427e-06
F1.9757238638312445e-06
F1.7783846877947323e-06
F1.6110293733762574e-06
F1.4376359123406233e-06
F1.2928821984442296e-06
F1.1531248603448955e-06
F1.0442778843673346e-06
F9.414208416243529e-07
F8.56487779361956e-07
F7.749766594852734e-07
F7.05774169325247e-07
F6.445345030578998e-07
F5.852708418257411e-07
F5.346493512171722e-07
F4.890255320894003e-07
F4.4746856553430553e-07
F4.0930216908923023e-07
F3.761021505684623e-07
F3.4651068085199823e-07
F3.1948193411106373e-07
F2.935568162266939e-07
F2.7001774373102617e-07
tp3
aa(F1.8
I50
tp4
a.