(dp0
S'kernel'
p1
(lp2
(F8.140401847659568
F7.808110989363704
F7.714022760526729
F8.532033557335277
F8.880754622781627
F10.017464169425171
F10.75956882689518
F11.7077581380863
F12.954976272689358
F13.183054477539349
F14.090758111508869
F14.852334700093127
F15.840459463514184
F16.554279786766706
F17.352868534201853
F18.630514342805185
F19.89354588239497
F19.69878704216893
F20.6732001466016
F21.05758226023248
F22.70021294759034
F23.200500206402786
F23.729592217715002
F24.667787921067205
F25.74497363964956
F25.943354562901785
F26.087346375799687
F27.51456131583947
F28.890753551494537
F29.024903460207575
F30.09035679387861
F30.649288624659864
F31.14763832846627
F32.975599823055965
F33.75458197273343
F34.68936013336855
F35.57927321194983
F35.559859979842884
F37.08363873631933
F36.9617466329076
F37.92282860492102
F38.29709906117062
F40.02829403990581
F41.10898319020006
F42.0981181475686
F43.44714950374983
F45.27904128224453
F46.12334834225845
F47.14586312391258
tp3
a(F0.000136558768260748
F8.986000964797267e-05
F6.823203679702998e-05
F5.089624519355642e-05
F3.903358440280261e-05
F2.9447260838320064e-05
F2.2536271322236856e-05
F1.741803509074733e-05
F1.3467250617662423e-05
F1.0779353041236671e-05
F8.738569808872952e-06
F7.135544788736799e-06
F5.84290897710601e-06
F4.8366608146636776e-06
F4.029244889550843e-06
F3.3612891658699197e-06
F2.8051186498445027e-06
F2.3864971498979206e-06
F2.042945233216716e-06
F1.7589825432814675e-06
F1.5103348053968683e-06
F1.304702957412735e-06
F1.1341191813777029e-06
F9.900034810520907e-07
F8.647616678993553e-07
F7.608425576039386e-07
F6.739459712888998e-07
F5.966756434574259e-07
F5.284428357189898e-07
F4.701133840090116e-07
F4.1977807810704245e-07
F3.7578087992233397e-07
F3.374174362016495e-07
F3.0308020382402317e-07
F2.729271599520936e-07
F2.4629693169998534e-07
F2.22637053705532e-07
F2.018423242114211e-07
F1.834153790314854e-07
F1.669982142365489e-07
F1.5230936027824757e-07
F1.39170004270774e-07
F1.2724648025781824e-07
F1.1650441929125444e-07
F1.067412764433594e-07
F9.795198534149013e-08
F8.996931624593891e-08
F8.274480705373865e-08
F7.62187149815671e-08
tp4
asS'params'
p5
(F1.8
I50
tp6
s.