(dp0
S'kernel'
p1
(lp2
(F15.491866147983563
F15.434980796947835
F15.559722175939653
F15.630413485029232
F15.703491447851903
F15.956814762388309
F16.202099100604585
F16.511455100107145
F16.919351745261075
F17.309213619302476
F17.697096792253287
F18.06595904237498
F18.61120553831066
F19.103070887767046
F19.630525072370492
F20.201814730083736
F20.811972993644112
F21.45610305784804
F22.072246089706017
F22.65200374183911
F23.194956888199183
F23.795968745438216
F24.382938829181157
F24.976769698682904
F25.539222469051342
F26.071576830070807
F26.661063808172898
F27.243626518842863
F27.84010087663493
F28.48138894369977
F29.09728971714951
F29.62337238732038
F30.27284117243987
F30.924645487758998
F31.528850427638385
F32.210947603518555
F32.900531277858796
F33.64127131938043
F34.481144942426056
F35.268137315716785
F36.080066102888516
F36.98652976221683
F37.96332815115432
F38.86376804538768
F39.88039893398676
F40.79206680828493
F41.76296524118946
F42.7736027262294
F43.96270663070806
F45.15057999029134
F46.42315130666932
F47.549724363604994
F48.903755788841266
F50.13122503039041
F51.42595936708856
F52.74121872896491
F53.95835341140462
F55.15765235369467
F56.48800108020909
F57.78842551606611
F59.05397886253409
F60.37589159056806
F61.60046550759064
F62.80368746067319
F64.03290784431258
F65.18578643213695
F66.39462951352976
F67.49644891892282
F68.5872663131797
F69.63851638615719
F70.78016233307761
F71.93943979320355
F72.98411197766512
F74.03674320859915
F75.12320314024586
F76.07660349326362
F77.13226269154771
F78.20485590072569
F79.12723513895335
F80.07781917749267
F81.06893679685959
F82.0009828619925
F83.02370461320146
F83.97954071199433
F84.90357687997854
F85.83501484208897
F86.73459828220793
F87.56396668492346
F88.51364644862319
F89.39629990031726
F90.30264633272995
F91.22405489903568
F92.0724583252796
F92.83726097749015
F93.61259924900155
F94.38741368978067
F95.10639535387021
F95.80823953732695
F96.40881291729517
tp3
a(F8.814103967834503e-06
F5.874686179999018e-06
F4.370550273360516e-06
F3.4666861546473985e-06
F2.8636837150509885e-06
F2.4168804483556042e-06
F2.0742213371829843e-06
F1.8008397108866195e-06
F1.5746826862890454e-06
F1.3864356109130092e-06
F1.228324483348935e-06
F1.0946925045179882e-06
F9.777867189243165e-07
F8.762273324698712e-07
F7.873280875132612e-07
F7.089041930032595e-07
F6.393628790604925e-07
F5.774766366174121e-07
F5.225770354731543e-07
F4.74003829409751e-07
F4.310687267884068e-07
F3.9277744909002304e-07
F3.5859930667826276e-07
F3.2800455115948446e-07
F3.0062493665490514e-07
F2.761101615701282e-07
F2.539993816731538e-07
F2.3402681296565847e-07
F2.1593476173385636e-07
F1.9946924569320444e-07
F1.8449228163609654e-07
F1.7092505799320095e-07
F1.585142955356627e-07
F1.47149814544933e-07
F1.3676223165887255e-07
F1.2721464344800906e-07
F1.1843033666262901e-07
F1.1032552253886063e-07
F1.0281208583794443e-07
F9.586778791126026e-08
F8.944352599415973e-08
F8.347684900198858e-08
F7.792357080393625e-08
F7.277525188266466e-08
F6.798287237502846e-08
F6.35411887879601e-08
F5.9416032017477484e-08
F5.5579921951607334e-08
F5.199339418372138e-08
F4.864433788947307e-08
F4.551215246217693e-08
F4.2597916536689514e-08
F3.987040165039446e-08
F3.7328789144546376e-08
F3.495729741430614e-08
F3.274412858985641e-08
F3.068429651667171e-08
F2.8767565412213908e-08
F2.697823276577557e-08
F2.5309157112228036e-08
F2.3753372221693993e-08
F2.230113766141232e-08
F2.0947991333535496e-08
F1.9687104091409082e-08
F1.8510992043370102e-08
F1.7414797190667387e-08
F1.6391440233157547e-08
F1.5437166411297012e-08
F1.4546771225431191e-08
F1.3715827616266083e-08
F1.2938717322009222e-08
F1.2211326270783348e-08
F1.1531195787513105e-08
F1.0894763589947348e-08
F1.0298531182630871e-08
F9.740558307866032e-09
F9.217328276989433e-09
F8.726244439847093e-09
F8.265884640090684e-09
F7.833844824460736e-09
F7.427913989661051e-09
F7.0465266538092575e-09
F6.687637918526729e-09
F6.349940398199423e-09
F6.032109215742035e-09
F5.732758251601392e-09
F5.450716117900072e-09
F5.184974673806571e-09
F4.934162940239874e-09
F4.697435666003912e-09
F4.473839452434246e-09
F4.262495204121619e-09
F4.062738578350286e-09
F3.873936863581598e-09
F3.695361920654112e-09
F3.5263563814787605e-09
F3.366381184916586e-09
F3.214867963984908e-09
F3.071374594268723e-09
tp4
asS'params'
p5
(F1.8
I100
tp6
s.