(lp0
(lp1
(F3.060727945367826
F2.7804308744780664
F4.086057729474101
F3.7174104730309243
F4.630555712464498
F5.434423470501335
F5.059135362230935
F6.400213537907085
F6.5174004663196685
F7.3869100409059785
F7.709787831216036
F8.00478603712279
F9.977715968313717
F9.856669665757437
F10.098948017942119
F10.588350632314
F11.314977611615731
F13.209939737500896
F14.392429239369012
F14.672134319610393
F15.93067090935396
F16.942433382213444
F18.099599040477337
F17.45239118071895
F18.88500512441155
F20.711370081844162
F20.305492659367157
F21.070507405908987
F22.317795029686387
F22.944102289384652
F23.736679418807743
F24.61904349334895
F26.654617183504723
F27.1289467418293
F28.182833615811468
F28.995883257583984
F29.959285449957424
F30.94312111818814
F31.165061685562243
F33.35695200796281
F34.788210794989894
F34.94605912572668
F35.761123183018185
F37.658115220395956
tp2
a(F0.19878245744813022
F0.11157601115760112
F0.03583256695601299
F0.024250265961307298
F0.010448066951093807
F0.007083515221778029
F0.003673023626263508
F0.0025249143684498783
F0.0015529002333381484
F0.0011135782971030664
F0.0007529448203845955
F0.0005394411233172846
F0.0004039347163310807
F0.00028942271305464507
F0.00022493789471379104
F0.00016674301513808646
F0.00013065910550428268
F0.0001021436633860413
F7.871822729184512e-05
F6.355096144356426e-05
F4.990308357092527e-05
F4.084898317501824e-05
F3.290541584970899e-05
F2.646239478940477e-05
F2.1770114323128746e-05
F1.7736028981973814e-05
F1.4608426102363227e-05
F1.2078134130995612e-05
F1.0000072482051196e-05
F8.419066975951317e-06
F7.021233796282512e-06
F5.922755576958853e-06
F5.023154590192218e-06
F4.26737396614065e-06
F3.661730877570804e-06
F3.1155128208361558e-06
F2.673392904749223e-06
F2.314456765545036e-06
F1.998908782295427e-06
F1.736410506267205e-06
F1.5058743638152192e-06
F1.3172108856611122e-06
F1.1518130358925132e-06
F1.0062292349367805e-06
tp3
aa(F1.8
I50
tp4
a.