(lp0
(lp1
(F2.1952029067069776
F2.8508860062107293
F2.8012387930182254
F3.65456217388818
F3.6418282802928115
F4.256448680754982
F4.67096026770569
F4.753614638341596
F5.336088608708996
F5.597278393972852
F5.892025434332481
F6.318423769828802
F6.323909618147584
F6.9119150200820485
F7.312122484818121
F7.802004450953011
F8.346245904761856
F8.812440211466335
F9.535349967283842
F9.806270224248768
F10.242487637509509
F10.891947360513154
F11.329160242262963
F11.536801931651931
F12.147300298714221
F12.661223114615977
F12.932548694971825
F13.537355011102473
F14.00076951145774
F14.648651524151466
F14.768869286441667
F15.41504319799668
F15.496696283429229
F15.735892760432423
F16.38305934620387
F16.817625328199455
F17.380071462470163
F17.698914185310414
F18.467290413386426
F18.903058146591057
F19.055262742150784
F19.488471985028724
F19.750449334726053
F20.240925548646782
F21.02316312245125
F21.329849975636463
F21.575372471588928
F22.036809041362737
F22.880749333657423
F23.206569496710138
F23.631705761027177
F23.868843139850686
F24.325328952908155
F25.036348993373046
F25.464367693068567
F26.003982496376775
F26.535258943491122
F27.084537509973067
F27.371906568167713
F27.58285737245479
F28.37266459778437
F28.473434399465603
F29.18081476341032
F29.459526572170716
F30.28086751799049
F30.680196668028536
F30.985882133511335
F31.521227860027118
F32.01849200321934
F32.78227553589207
F33.21119062900137
F33.76016530227597
F34.090433079422986
F34.851101765394226
F35.45562900269528
F35.72655732202439
F36.01148189627716
F36.504289156537816
F37.215836408139445
F37.79732840154594
F38.158811127923364
F38.79774638323511
F39.070758590538176
F39.63254874260569
F39.81122774160498
F40.25073504061715
F40.82614995622032
F41.216222174630396
F41.579178214742726
F42.35501204118984
F42.83964416137557
F43.0485862831167
F43.66759841518667
F44.2379761020939
F44.639491508821244
tp2
a(F0.21508087298384354
F0.0855413510913715
F0.04194367141745142
F0.021488669867363468
F0.012627545372120023
F0.007332192333415484
F0.004834831341417774
F0.003119905589956572
F0.0021930191989623497
F0.0015271997583047754
F0.0011236485262509934
F0.0008259553626276218
F0.0006293018870935238
F0.00048489664604099106
F0.0003783590800555201
F0.0003014428410341667
F0.00024125682436908357
F0.00019570210651384494
F0.0001602704767263037
F0.0001312221310198427
F0.00010888288262717442
F9.031688060934507e-05
F7.544202877633323e-05
F6.33352659971268e-05
F5.326915068683617e-05
F4.516621243493192e-05
F3.8322220623367926e-05
F3.2720396314032907e-05
F2.804493196464689e-05
F2.4105904239406144e-05
F2.082902981794059e-05
F1.8052237026224368e-05
F1.5702860255850956e-05
F1.3707591714365308e-05
F1.2011523323927215e-05
F1.0549940311472515e-05
F9.303366069199144e-06
F8.219357781074378e-06
F7.289231864536469e-06
F6.475567970134889e-06
F5.766996141246278e-06
F5.150552781734732e-06
F4.607858816536322e-06
F4.134096828338213e-06
F3.7149062839256717e-06
F3.346452297541854e-06
F3.021505435265324e-06
F2.7314497234560555e-06
F2.4750495172760044e-06
F2.245838733785323e-06
F2.0416197593678447e-06
F1.8595044879147856e-06
F1.696031123542991e-06
F1.5503357859469508e-06
F1.418454916570961e-06
F1.3004488238350373e-06
F1.1938899231595093e-06
F1.0972781970297167e-06
F1.0097816899311463e-06
F9.305301201891021e-07
F8.586129978398465e-07
F7.930166311613547e-07
F7.335309659478832e-07
F6.792142989960249e-07
F6.296214883856304e-07
F5.843398795067894e-07
F5.428976207574127e-07
F5.048963899920895e-07
F4.6989575642724284e-07
F4.378901619179554e-07
F4.082865426340844e-07
F3.8107979760522555e-07
F3.56041938315562e-07
F3.3291696159405277e-07
F3.1155288712486605e-07
F2.9176687264399646e-07
F2.734914816278927e-07
F2.5650618736292566e-07
F2.4073570284361194e-07
F2.261172986992394e-07
F2.125223535841703e-07
F1.9991685890608643e-07
F1.8816800799055815e-07
F1.7722703841835617e-07
F1.67033110080573e-07
F1.575348614172533e-07
F1.4867167250000376e-07
F1.4036590755650568e-07
F1.3261985821936038e-07
F1.2536303657280466e-07
F1.1858504843724111e-07
F1.1222900319388925e-07
F1.0627256007421788e-07
F1.0068994890767626e-07
F9.544495289171087e-08
tp3
aa(F1.8
I100
tp4
a.