(lp0
(lp1
(F2.0
F2.53546276418555
F2.7386127875258306
F2.7873339895374523
F3.8692930325097596
F4.3256341860022225
F4.880720087387575
F5.4198708471697
F5.953815303372004
F6.143925950640724
F6.368324391514267
F6.892477783787192
F7.098714853923884
F7.455128930368747
F7.824807469854994
F8.235583814419668
F8.530894606704368
F8.931611512517005
F9.31346154969976
F9.779208116836713
F10.23698398991763
F10.674290430303843
F11.116318224313188
F11.52039698717929
F11.94586755397348
F12.357294802644988
F12.773800449550823
F13.185367248014769
F13.657148434035646
F14.07251288427214
F14.581745546489953
F15.071549700319691
F15.705259387026791
F16.324083483438333
F16.945883085067642
F17.5088277861513
F18.137241641662907
F18.81928436252361
F19.500258377145464
F20.136337730821882
F20.83243471451318
F21.46249190999358
F22.06833039843576
F22.68266636301135
F23.403491133248863
F24.066635301775634
F24.694963135228512
F25.355450810306486
F25.911778387264167
F26.48324531193178
F27.10537974211345
F27.71379897372266
F28.328584761631667
F28.968771022899585
F29.62425482355683
F30.290438664300037
F30.976727397628746
F31.619896949317173
F32.26643906136834
F32.96270349348238
F33.71091747479631
F34.496884149862325
F35.250584987649724
F36.0354392425187
F36.852908792971384
F37.65292924949986
F38.40349830997648
F39.223930683888675
F39.9884059509032
F40.81088099439263
F41.621887662319764
F42.43238927390199
F43.26318457534159
F44.125500710088176
F44.93512603726302
F45.75278184545051
F46.61544461341399
F47.438845593446615
F48.29211101964794
F49.14671808156901
F49.90594898776467
F50.71510895898625
F51.49917097609137
F52.31965569726169
F53.14870958562194
F53.94520754354272
F54.748733027495184
F55.55565290408278
F56.346557953273155
F57.16683671136839
F57.99126796741529
F58.835023228869375
F59.67495363575636
F60.473712462596424
F61.315734809347624
F62.13503704372696
tp2
a(F0.1415929203539823
F0.0769230769230769
F0.035175879396984924
F0.019073569482288825
F0.012014390863781891
F0.00761257832171927
F0.004576952437855875
F0.003062885069445029
F0.0020520085192177865
F0.0013857358062326203
F0.0009700838899053556
F0.0007108393702905778
F0.0005223387458389959
F0.0003913632217646596
F0.00029996800778367774
F0.00023242710685580464
F0.00018173160599412763
F0.00014462330053283083
F0.00011688099512297814
F9.519762758832886e-05
F7.852737123685093e-05
F6.537295972499065e-05
F5.482963973942965e-05
F4.624580384724874e-05
F3.928254805413573e-05
F3.3541303648337976e-05
F2.8774765962013325e-05
F2.4800484163887015e-05
F2.1462346735513476e-05
F1.864121973130877e-05
F1.624470249562335e-05
F1.4207504142138878e-05
F1.24638376832427e-05
F1.0969302958482162e-05
F9.680683769132886e-06
F8.567391122508365e-06
F7.600035763750679e-06
F6.757844530454456e-06
F6.020955005834376e-06
F5.375093812395156e-06
F4.806403871126903e-06
F4.304514330873409e-06
F3.86016454278931e-06
F3.4666164756023634e-06
F3.1174550433092647e-06
F2.8070340328695396e-06
F2.5308711631486355e-06
F2.2849211682017434e-06
F2.065409872771445e-06
F1.8692976334153918e-06
F1.6941436788550864e-06
F1.5374373104112242e-06
F1.3969589812570149e-06
F1.2709644067958193e-06
F1.1578082258646475e-06
F1.0559328579811382e-06
F9.641805323694698e-07
F8.814696256453255e-07
F8.068008678611216e-07
F7.39297409949732e-07
F6.782139401801942e-07
F6.228472558028194e-07
F5.725846144429753e-07
F5.269129917779184e-07
F4.853534316773088e-07
F4.474926171521689e-07
F4.129663777328216e-07
F3.814486997989961e-07
F3.526360113338871e-07
F3.2626517086032144e-07
F3.021083798457626e-07
F2.7995448869083154e-07
F2.5961794742423683e-07
F2.409336662868519e-07
F2.2375398371061329e-07
F2.079421508055223e-07
F1.9338059827063576e-07
F1.7995947605656866e-07
F1.6757951256837912e-07
F1.5615178813612066e-07
F1.4559524906340685e-07
F1.3583600841146981e-07
F1.2680881639748459e-07
F1.1845414252232663e-07
F1.1071633415728334e-07
F1.0354626665965175e-07
F9.689791780942158e-08
F9.07293340009583e-08
F8.500264455149139e-08
F7.968372427921399e-08
F7.474084721510984e-08
F7.014430728567138e-08
F6.58674673422241e-08
F6.188549862701971e-08
F5.8175791303975184e-08
F5.471763045124587e-08
tp3
aa(F1.8
I100
tp4
a.