(lp0
(lp1
(F2.2301023298010523
F3.9193866478700117
F5.429478681634661
F5.609587689700813
tp2
a(F0.17689733374022437
F0.11620736105639097
F0.05030276070000533
F0.01948275915425622
tp3
aa(F1.8
I10
tp4
a.