(lp0
(lp1
(F2.094449510014505
F2.279189986448897
F2.623398982660133
F2.9116526173648274
F3.1550006221266953
F3.6401312552647815
F3.864992013614792
F4.434178816553084
F5.187196694613682
F5.749417656037312
F6.488226305371078
F7.13000356164558
F7.613368326112199
F8.108890379698517
F8.651969027183195
F9.327691951418293
F10.007465342947555
F10.575504166189091
F11.23228847254365
F11.857026050677115
F12.468432740870826
F13.318988162567406
F14.005698661849474
F14.582170629706019
F15.219607590523971
F15.867552593243692
F16.47221513191711
F17.205930079025016
F17.836483313780448
F18.500031175004427
F19.160756138446477
F19.7538554543292
F20.35103659946603
F21.02210929619887
F21.687564329346056
F22.403051037263218
F23.271917954930352
F24.362848227761397
F25.480404017013484
F26.699166326102297
F27.862042431205946
F28.909668578278993
F29.965884134434248
F30.989503751885245
F32.029068580727916
F33.0678124726804
F34.007992798003364
F35.06368174415907
F36.227950893245655
F37.333775681120464
F38.469244059831055
F39.589861919133746
F40.76585396807391
F41.934515445932426
F43.236901431174964
F44.43895694260711
F45.55590175475157
F46.689029938152736
F47.750207705367174
F48.703654193425386
F49.70624867014442
F50.68546918829362
F51.608921950434336
F52.54810236194902
F53.54388900521863
F54.55201332246515
F55.48096435068102
F56.48341770931179
F57.47531457174143
F58.46984340567556
F59.44214813118407
F60.429395183317936
F61.452621963616906
F62.48658635375971
F63.548753366971816
F64.62731227004835
F65.7522966740096
F66.8347157098996
F67.962645794733
F69.04428430651811
F70.184186172472
F71.27408596027081
F72.40253126215458
F73.51394743674577
F74.65179842734929
F75.96471281148662
F77.27666070382726
F78.6379929282266
F80.1171943856795
F81.49067606483314
F82.98073315505366
F84.41537333415623
F86.0801888354255
F87.73672205220201
tp2
a(F0.10560338973843605
F0.058662783140799465
F0.03559611313693348
F0.02232716594567046
F0.014843618227937849
F0.010083744695855454
F0.007025245223371993
F0.005030635229122532
F0.0036144706568188543
F0.0026452860321809412
F0.0019343169564300453
F0.0014115697601225386
F0.0010436262479830809
F0.000775496502001967
F0.0005831503391728841
F0.0004448080204180085
F0.0003421952774592772
F0.00026595426522663573
F0.00020814711527747872
F0.00016405034681977413
F0.00013043058566724719
F0.0001042350170142638
F8.375658181522069e-05
F6.766057206418373e-05
F5.485756056244868e-05
F4.472367671093697e-05
F3.667321535288194e-05
F3.0234768029875645e-05
F2.506653270815195e-05
F2.088196936807338e-05
F1.7475712903703946e-05
F1.469272754603566e-05
F1.2402844958820252e-05
F1.0516061211516142e-05
F8.953707019164516e-06
F7.651184657681866e-06
F6.562515993542443e-06
F5.648790807541136e-06
F4.878457113018468e-06
F4.227474726915835e-06
F3.674714600126219e-06
F3.2034551848494474e-06
F2.8002826519986607e-06
F2.4541963854716572e-06
F2.156565642482369e-06
F1.8998566061057071e-06
F1.6777791372094402e-06
F1.4851407531606113e-06
F1.3174589046983171e-06
F1.1711146824756535e-06
F1.042985667291003e-06
F9.304344157471799e-07
F8.31326758011219e-07
F7.438309940149581e-07
F6.664396173989482e-07
F5.979021928525969e-07
F5.371286044515797e-07
F4.831676527461055e-07
F4.3518516997106024e-07
F3.924623060273149e-07
F3.5436259732662787e-07
F3.2033604439347446e-07
F2.8991426210498384e-07
F2.626749843559951e-07
F2.3825004334997393e-07
F2.1632663041677725e-07
F1.9662887488430608e-07
F1.78915516791923e-07
F1.6297143930765165e-07
F1.4860586954519644e-07
F1.3564956851934782e-07
F1.239540683915411e-07
F1.1338809577605647e-07
F1.0383577335828256e-07
F9.519143008478586e-08
F8.736019378622251e-08
F8.025915574283325e-08
F7.38137582783915e-08
F6.795611714551702e-08
F6.262635641345889e-08
F5.777084837087154e-08
F5.334114127335835e-08
F4.9295466702048967e-08
F4.5596902923946096e-08
F4.221240707485794e-08
F3.911254805147894e-08
F3.62711720991538e-08
F3.366422125794416e-08
F3.1270222079732806e-08
F2.906991942829481e-08
F2.7045716428531205e-08
F2.5181695373534835e-08
F2.3463640139968385e-08
F2.187854852478746e-08
tp3
aa(F1.5
I100
tp4
a.