(lp0
(lp1
(F252.92217387982748
F253.18150009134922
F251.82821304995446
F252.12560249046953
F251.88128412379385
F252.31710852574147
F253.3258671409415
F252.14377001916174
F252.5686387080266
F253.86258113243824
F252.82819400837496
F252.96785053169182
F252.34536741177257
F252.16208079236463
F252.0022437931051
F251.0861065763907
F253.4662954572057
F253.1573114123328
F252.48053072682663
F252.2986555623013
F252.6695534383267
F250.09278789630278
F252.7190300500589
F251.38444654093692
F251.03324087654013
F248.89688142069534
F250.00027798764884
F250.20151075280825
F251.17731186333646
F250.16753606211154
F250.24972863709044
F250.99612509600556
F251.3335664046352
F251.39880192916885
F252.173586450879
F251.689937703888
F251.93549656832508
F253.77759363285602
F251.81282363141656
F253.09832335436474
F252.30163206155288
F251.43662927108244
F253.45806970623408
F252.05511101886376
F254.92063554307364
F253.55434640739693
F253.74109157384532
F255.2900085956925
F254.7543048327101
F252.62745468655453
F252.22240732640813
F250.51626020631565
F251.11442496780458
F247.14284795553326
F248.49825808294858
F248.68763098354782
F246.3701996394163
F246.5804863061003
F245.24734644032497
F245.7798364664171
F246.4317627753626
F247.47569051228717
F247.12897946108004
F245.8690302167146
F247.16196312219566
F244.2094314340798
F243.724948364436
F244.70941567394607
F242.51483316267073
F240.96570233580786
F241.42440930191168
F237.79188476310296
F240.92616096125758
F239.79365255870138
F243.54883568024155
F241.67757629926066
F243.10884390897186
F241.25261766677647
F244.50216447201288
F243.94730744374473
F242.7755853771487
F244.28030559162332
F247.4105987356367
F246.71747997894312
F246.99643479963075
F247.35415055908726
F241.7322606227837
F246.23396602203624
F244.2181868866255
F245.6186680063345
F249.0383247258277
F245.50412378978152
F241.24424658070856
F241.24017777092632
F244.14363929085982
F234.58491629846318
F235.0214918421953
F237.83976169701413
F234.45722129190142
F234.812861006339
F229.15294141896038
F228.2760812157933
F227.76301196933676
F226.44701100609305
F224.27314292824047
F226.24429113868902
F227.6993530717163
F222.71958907241438
F226.8014301954012
F225.32064099550448
F229.71949515334362
F233.4961865304945
F232.38948157289173
F232.71806670194977
F239.20365311209235
F240.81670390046642
F238.47941103505147
F236.8454230753263
F236.36864967128284
F234.17245780017998
F234.0005385426615
F236.30302537682542
F233.18962395613843
F237.34114481166722
F234.93053717125187
F235.4756669956005
F236.33238008321214
F231.94134238506692
F234.49338086857745
F240.250644563418
F235.3592567347704
F234.28853335805113
F234.2720186216752
F234.1604267281176
F232.09728622182905
F233.94235300948048
F235.5058905034071
F235.92957143354917
F231.58081008375228
F231.9732114234109
F232.3247686592626
F230.4153075914165
F232.100167680445
F226.522565638995
F225.52628133904724
F228.47598232093057
F236.62119199857216
F233.78460723011395
F236.6947894856281
F239.3285307113912
F238.9817596905791
F234.89269253933733
F234.53270542363208
F233.25460151919134
F234.1695675356283
F232.2504718032042
F237.46250407736707
F237.09772484045232
F241.26752626289772
F243.01980320027502
F242.43335027015013
F243.6873672344685
F241.84196442381503
F242.84241594130214
F244.35373327787985
F242.1252671307947
F240.2496014749881
F234.9876870230666
F236.32705852277667
F236.61141039246726
F234.21619401999408
F238.39787669877788
F233.35795264091712
F233.4839502893494
F230.48456703963268
F237.01389698856582
F234.08982678061884
F239.16364806763434
F234.93035194786827
F237.88010772066406
F233.59082604038036
F241.89964368461293
F237.04301082708477
F238.1101458279009
F240.53975792612812
F239.1694575803838
F245.32467796149544
F245.02670836807948
F251.6411644627977
F245.28518006404747
F247.17279129155423
F245.74351157562668
F250.4139590647098
F253.08034630576742
F253.45110970359465
F255.19344244721134
F254.31278051657478
F257.8174014132349
F255.93637001470424
F263.54955169550647
F263.9254673618722
F270.4451795975694
F267.18870286563015
F273.8322596739867
F274.6774377153129
F274.5255634016555
F276.29507518185983
F277.47151597160695
F277.64071582571006
F279.35159663017913
F281.6773171009301
F283.5114186628092
F285.21732284238374
F283.3672719960179
F289.236803553849
F290.08795417799234
F290.5445689884522
F296.02548574973827
F292.7507363423224
F294.1031337548395
F295.57097535769844
F300.1785679899541
F298.3904035839599
F302.46905330943576
F303.14291900078223
F305.37451837076975
F307.4186302080695
F306.8048299377195
F308.7958071395328
F313.7495830886718
F312.7897222880402
F311.2204104269112
F316.1764656298032
F315.8870099517215
F313.9864401628611
F317.87216541823744
F319.1982446278437
F321.60305425384735
F319.023394353921
F321.94459545826527
F322.77077923780087
F325.27203811667454
F326.5391076986966
F326.963083514802
F323.10390764749934
F328.72988004966714
F329.56614276671723
F332.7470890968283
F334.3005911996753
F337.5044038373079
F338.35976333080947
F339.36062547841476
F341.88743603224805
F342.3908267154899
F344.82694139885854
F346.59864038950565
F348.19527799383997
F349.7780640347801
F351.14322082360167
F352.80064013343065
F353.7395823246071
F356.0160950788212
F357.6328595845232
F358.97569222846397
F361.2353258091301
F364.2665701203441
F366.11212307796063
F369.7761081037832
F370.4868287681119
F369.21844990229977
F368.77919163803267
F371.32664286742653
F373.3377963225223
F373.0599662871516
F375.2927284653472
F375.88240252510604
F379.0040333499818
F378.9317807747484
F378.78743824312113
F385.0329729676487
F382.8618393462375
F386.4595458262846
F386.75142802140306
F388.793406429382
F386.8315775458945
F391.150927036739
F393.5232545067357
F391.27771017420224
F393.8936915245196
F397.2445703568133
F400.15832017689195
F401.1147094451026
F404.48899707738383
F406.6480508400733
F406.7928802029301
F409.6377015195466
F412.13256600726675
F413.03200306476117
F413.1802418366485
F412.9047466423803
F416.4650858665186
F418.2792480476585
F420.0851418068189
F421.5985317175976
F424.6152292061286
F422.96319751468536
F425.01022617390316
F429.62055164397964
F431.0224961104954
F430.438450456994
F433.09656057173885
F429.9497158483258
F430.5078082168577
F431.30999320905926
F433.92411706151336
F435.6947868391548
F436.8667460340413
F439.46620028432574
F439.27587168395695
F440.7023868768857
F443.97707598497925
F441.7120748115761
F444.2187132584407
F443.4165718052065
F447.97284038802775
F446.6292295226431
F449.35561617941624
F452.70428958282525
F451.71513660919373
F454.4567658753222
F457.99769110142375
F461.79026079509396
F466.30011567163615
F467.90403202166556
F469.26835979852757
F471.1875501396662
F477.3100738312089
F478.1026408788396
F480.36115309280876
F480.86775210328904
F482.71846428073314
F483.79084807417127
F486.5411807810497
F487.36185999830957
F490.3201640250594
F489.25217461463905
F493.38437404934257
F495.6735215705257
F497.1231746881377
F499.40211539623056
F496.844421872801
F501.30241082372095
F502.9078205183971
F505.91781028989874
F508.05626918739466
F511.45971228654264
F509.718421641284
F512.9595495991122
F512.635729968117
F517.7871913651767
F520.7104705445286
F519.9534539259728
F522.1096548135248
F525.5056139077637
F527.4061375573189
F531.8700905199098
F527.8694441485436
F530.7406864576312
F531.8030532455833
F532.8160837461807
F536.0074532770033
F539.6623988548689
F541.669914474448
F545.0861430802224
F545.3050389868986
F549.6866225337142
F552.1874267032177
F553.7039235854164
F556.4760681420086
F555.7669353538437
F557.9444278577492
F565.321921756747
F566.8011066527281
F569.5890333895466
F573.4714697070018
F578.3450766920492
F578.5173136859848
F579.145561384935
F580.9199206260976
F584.7020953817208
F582.644696194867
F584.3403446607907
F587.8273228578435
F584.4002752473126
F587.4743610587931
F588.1577774174046
F587.7654066609854
F589.5825563253876
tp2
a(F1.2125734246351128e-10
F8.093262564927865e-11
F8.140234263716513e-11
F6.131719459195282e-11
F4.091290415228235e-11
F4.08597636561086e-11
F3.499707978025496e-11
F3.06457119462964e-11
F2.7268188304265048e-11
F2.453319318492844e-11
F2.2260481272897672e-11
F2.0411983641676657e-11
F1.8881756995052074e-11
F1.7522136857360404e-11
F1.6368116277706745e-11
F1.5359286091619417e-11
F1.4440802932212795e-11
F1.3630207368872169e-11
F1.2905105562127352e-11
F1.2286846772397638e-11
F1.1698211020419652e-11
F1.1181264487103792e-11
F1.0692084880886458e-11
F1.025699136990963e-11
F9.839433752534571e-12
F9.49703360687435e-12
F9.150356644811703e-12
F8.831794227247984e-12
F8.521920322073593e-12
F8.2515633604623e-12
F7.993690284689888e-12
F7.751694227860139e-12
F7.515583419498888e-12
F7.29683547169748e-12
F7.090049344270849e-12
F6.894914136779414e-12
F6.708817496847558e-12
F6.529308249501983e-12
F6.361016193400593e-12
F6.19981548851774e-12
F6.052224872433911e-12
F5.9048724219956754e-12
F5.767072155388799e-12
F5.634382380413449e-12
F5.501650492790423e-12
F5.383137392402191e-12
F5.263083487910779e-12
F5.152917512598554e-12
F5.041203495851509e-12
F4.9401466416945365e-12
F4.845615813524782e-12
F4.7542051831451496e-12
F4.662902630906702e-12
F4.5828395653879275e-12
F4.501999465749002e-12
F4.4265042833984676e-12
F4.350897788253382e-12
F4.283727392998178e-12
F4.218799837773785e-12
F4.152557615760267e-12
F4.090323204395544e-12
F4.027284375693012e-12
F3.9683311758811475e-12
F3.912410896966304e-12
F3.8572804901662925e-12
F3.805045385730309e-12
F3.7537669279387965e-12
F3.705297803601007e-12
F3.6562569602252815e-12
F3.611827564429778e-12
F3.569210768319495e-12
F3.5279962646218978e-12
F3.4857149116826984e-12
F3.4468261631125514e-12
F3.4031495185325557e-12
F3.366586923821861e-12
F3.3268708396673396e-12
F3.2926572526162372e-12
F3.253217345335573e-12
F3.217236984688575e-12
F3.18065225160888e-12
F3.1471135283098727e-12
F3.110096943428935e-12
F3.0739478867303414e-12
F3.0400693964348835e-12
F3.007578842910557e-12
F2.9768366109835697e-12
F2.9448534539131006e-12
F2.9146248008245172e-12
F2.8812007741963277e-12
F2.8518554321020626e-12
F2.821684564379864e-12
F2.7958533628333626e-12
F2.771476428409511e-12
F2.7428453139207727e-12
F2.7189067703310545e-12
F2.696961239284377e-12
F2.675584465504846e-12
F2.6504838742234556e-12
F2.6300622963254447e-12
F2.6131169419103383e-12
F2.594280680979951e-12
F2.5774014092842044e-12
F2.5589248897737896e-12
F2.5433661435054343e-12
F2.527377935466918e-12
F2.51076015394067e-12
F2.4958586183034053e-12
F2.4810526099539834e-12
F2.466807462027166e-12
F2.4490205784230688e-12
F2.4331448286008212e-12
F2.4160328897644096e-12
F2.4009835272086843e-12
F2.3837615975800767e-12
F2.3645892132797773e-12
F2.34697275712573e-12
F2.3322112233269437e-12
F2.3160952639208187e-12
F2.299714714921242e-12
F2.2837650502654487e-12
F2.2676444489363713e-12
F2.2521505236502967e-12
F2.2361383618030406e-12
F2.2218416107297445e-12
F2.2060609598628684e-12
F2.192208540202588e-12
F2.1780101552889573e-12
F2.164048680740926e-12
F2.1487610933247297e-12
F2.133647733363383e-12
F2.1208995622620936e-12
F2.1092104156974694e-12
F2.09484071147831e-12
F2.0822664115716777e-12
F2.069615064445336e-12
F2.0566763186678484e-12
F2.0434259174242785e-12
F2.0323236985573676e-12
F2.0211829515753887e-12
F2.009816053824848e-12
F1.997940944087768e-12
F1.9869399308092248e-12
F1.9772778732387146e-12
F1.9673794606193036e-12
F1.957799788180425e-12
F1.9448162578756375e-12
F1.9335572487925042e-12
F1.922678961439764e-12
F1.9125512781195678e-12
F1.900103731098576e-12
F1.8899926592470646e-12
F1.8800331016468013e-12
F1.8696781613248885e-12
F1.8584879037672694e-12
F1.848602314105955e-12
F1.83751645011783e-12
F1.8270671500383744e-12
F1.8153127571516808e-12
F1.8046649956607096e-12
F1.7932119297169103e-12
F1.7825786290137815e-12
F1.7719519954066148e-12
F1.7608276371201019e-12
F1.7498729061383281e-12
F1.7388635504764762e-12
F1.7289302526643897e-12
F1.7200944759047994e-12
F1.7104220161592572e-12
F1.7009704666564396e-12
F1.691363210505446e-12
F1.6823107543944438e-12
F1.674053958456388e-12
F1.665427098084384e-12
F1.6583603400926054e-12
F1.6488626913800959e-12
F1.6408402129129677e-12
F1.6315031282729617e-12
F1.6245240415093656e-12
F1.615672993479324e-12
F1.608825460196253e-12
F1.5993680156539938e-12
F1.591850379574544e-12
F1.5831405317712267e-12
F1.576155957368375e-12
F1.5674261809364213e-12
F1.5586564801515307e-12
F1.5503798010247015e-12
F1.5405333146757746e-12
F1.5327993511679476e-12
F1.5239360681672109e-12
F1.516438558853047e-12
F1.5063465775642041e-12
F1.4972003850375741e-12
F1.487604432055902e-12
F1.4785896352260561e-12
F1.4697113638246827e-12
F1.4599723213822289e-12
F1.4508437389489557e-12
F1.440412117072831e-12
F1.4307025992796517e-12
F1.41948010723827e-12
F1.4101868181820103e-12
F1.3991289832252127e-12
F1.3889608969679156e-12
F1.3776440401211242e-12
F1.3675726860620103e-12
F1.356762741488058e-12
F1.3460882730086592e-12
F1.3355513955574523e-12
F1.3247688748896132e-12
F1.3139391154776467e-12
F1.3031984399534507e-12
F1.2930001287599015e-12
F1.282203905681299e-12
F1.2714834068868048e-12
F1.2605243198454632e-12
F1.2500137430537952e-12
F1.2394805015861828e-12
F1.2289584565558607e-12
F1.2189802805423994e-12
F1.2076428684667257e-12
F1.1971862380216492e-12
F1.1865451333999335e-12
F1.1763088622090013e-12
F1.165280887429521e-12
F1.1549530775201786e-12
F1.1444370883924072e-12
F1.1340940757727727e-12
F1.1234322772421741e-12
F1.1128210455761497e-12
F1.1027897191137365e-12
F1.0927318866193923e-12
F1.0823344455094883e-12
F1.0722728384635978e-12
F1.0626204570884158e-12
F1.0525375858384227e-12
F1.042289379039118e-12
F1.0329349488089917e-12
F1.0233031262460083e-12
F1.0138361090263304e-12
F1.0039208587876343e-12
F9.945581939473388e-13
F9.852121116376279e-13
F9.76488029829149e-13
F9.673031898485733e-13
F9.582651386951317e-13
F9.48777530000577e-13
F9.401049505459534e-13
F9.309694211110835e-13
F9.221640519190775e-13
F9.133516467179433e-13
F9.046815598303755e-13
F8.959364579185441e-13
F8.872694316381588e-13
F8.78735885236559e-13
F8.701577337973646e-13
F8.617564421077652e-13
F8.534129840191181e-13
F8.45118876839585e-13
F8.368958249999387e-13
F8.287007512971853e-13
F8.205458664037197e-13
F8.12458879823166e-13
F8.044499634992913e-13
F7.964155281331528e-13
F7.884088448588799e-13
F7.803991701209239e-13
F7.725781442451042e-13
F7.649217613429565e-13
F7.575256999846483e-13
F7.499601112547298e-13
F7.423685390060732e-13
F7.349418473176135e-13
F7.277526546315915e-13
F7.206208363536178e-13
F7.133746876087727e-13
F7.063759859309512e-13
F6.994905333824781e-13
F6.925455166891406e-13
F6.857175286103222e-13
F6.788706581147993e-13
F6.724491859920139e-13
F6.656895828009551e-13
F6.593922192073381e-13
F6.529077088204451e-13
F6.465171682640588e-13
F6.401866831591636e-13
F6.341412285419666e-13
F6.279955250879419e-13
F6.217089881190225e-13
F6.156739079659927e-13
F6.096772420311752e-13
F6.036894221170092e-13
F5.977591911514638e-13
F5.919227918772767e-13
F5.860763955063514e-13
F5.802483998363518e-13
F5.746269454081729e-13
F5.691235574183241e-13
F5.635458028914738e-13
F5.58006833845145e-13
F5.525121904037916e-13
F5.472074246934544e-13
F5.418482996793184e-13
F5.366678942054223e-13
F5.314979792636254e-13
F5.263424168135062e-13
F5.211116126036602e-13
F5.161056874863652e-13
F5.1119901908671e-13
F5.063862559210176e-13
F5.01595288293116e-13
F4.969562162047466e-13
F4.922015152639565e-13
F4.875733772804297e-13
F4.830178634220528e-13
F4.785319741575109e-13
F4.741215907460565e-13
F4.697377940679862e-13
F4.654081026029346e-13
F4.611443775806077e-13
F4.569435346488197e-13
F4.528891629612524e-13
F4.4867028394037764e-13
F4.4466281004832457e-13
F4.4061224758867583e-13
F4.366732062426264e-13
F4.3270253825701033e-13
F4.288350889062395e-13
F4.249864096414134e-13
F4.2102835336863815e-13
F4.171339798308626e-13
F4.1330344068405035e-13
F4.0951794332457555e-13
F4.057798320284794e-13
F4.0193200061227166e-13
F3.981375222396479e-13
F3.943840971420494e-13
F3.907722590549342e-13
F3.8709677431673174e-13
F3.83495546409428e-13
F3.7987536185044425e-13
F3.7634726859415905e-13
F3.7282066470847025e-13
F3.694056760575245e-13
F3.6595773661396834e-13
F3.6257458555824123e-13
F3.5915686945958936e-13
F3.5585944201498775e-13
F3.526419473156592e-13
F3.493946840821388e-13
F3.461976757227905e-13
F3.429463520127041e-13
F3.3982492954262427e-13
F3.366781849082286e-13
F3.336397940083713e-13
F3.306000666452833e-13
F3.2763804153361265e-13
F3.2458824985746824e-13
F3.2162438665613775e-13
F3.186844507716282e-13
F3.15841083203914e-13
F3.1297198296922635e-13
F3.100866831568714e-13
F3.0722939277304547e-13
F3.044936748578517e-13
F3.017549176842178e-13
F2.9908949909140673e-13
F2.963617348257053e-13
F2.9372186587236593e-13
F2.910642913752908e-13
F2.884317188670199e-13
F2.858336590884897e-13
F2.832886971145502e-13
F2.807230303489827e-13
F2.7818706034851854e-13
F2.7564984909484656e-13
F2.731692890931545e-13
F2.7072923216736305e-13
F2.6829164226011357e-13
F2.6584086743454514e-13
F2.633843570870536e-13
F2.6097593230499823e-13
F2.58619674657266e-13
F2.5621205710853133e-13
F2.538618629620997e-13
F2.515556785091213e-13
F2.492889147635415e-13
F2.469812414850905e-13
F2.4474664995655416e-13
F2.4254477575164926e-13
F2.4037358833808736e-13
F2.382143651695482e-13
F2.361065054340515e-13
F2.340443840966671e-13
F2.3196372286207066e-13
F2.299613537741713e-13
tp3
aa(F1.8
I400
tp4
a.