(lp0
(lp1
(F126.07720347859433
F125.2528781558839
F125.15220487715204
F123.94621729783547
F125.76402560638239
F126.57596988080147
F124.46933345551875
F124.83651164490503
F124.56458173524024
F124.11715744158383
F124.92779742452501
F123.50670580850318
F123.90413676199441
F122.80084715610698
F123.0567850222783
F128.22243292712608
F122.63087053405367
F126.71806690357886
F122.39532479699582
F126.19542155494675
F121.65731304091034
F128.8088602915827
F129.1940473074485
F126.20461488183481
F128.7172243221432
F133.30518236049602
F131.81491160881123
F141.70310012888933
F137.9171467892478
F140.3406583639008
F142.55139096802966
F134.0913113577688
F148.99153951401027
F143.35541483449103
F141.56262763019876
F149.51129153033108
F144.5792895199165
F142.24214861472498
F140.3020438147609
F151.2278613171169
F149.54430690606156
F151.53892647862565
F147.98981852445206
F150.70784795678054
F150.90321116426418
F152.2700231166325
F142.99359768535672
F151.80534533142222
F152.22339303351032
F156.6950098245195
F151.24001724737772
F159.23870369614127
F155.18623543484597
F160.0178293463811
F163.1516726658686
F163.2607784116055
F158.83195330394588
F162.0607397882282
F167.06623085103178
F172.74067085991507
F166.79588032524745
F164.42958105447877
F162.8714492080827
F163.66782251864583
F168.7341855160065
F170.09085569388174
F170.93542420872961
F170.4883994685808
F174.8673307310159
F179.84489934284346
F176.21162375873593
F175.67820957083453
F175.33127004497143
F176.79830915965974
F178.78505012254064
F175.88828366164228
F180.32862237404595
F181.14976366737548
F179.60700453501514
F180.7389786528769
F177.77687363931025
F178.39412488507185
F174.14447309232898
F178.63099594243275
F179.7968501115043
F178.67165282547023
F178.4153312493216
F180.49071663140825
F176.5581067164518
F176.03511962827267
F176.09832114048615
F174.80433165856996
F173.39153634875848
F174.48900507721567
F173.8893132341188
F172.78425298443702
F170.94336419327348
F175.0444890655036
tp2
a(F2.010262387695091e-09
F2.036809692252799e-09
F1.346183723349795e-09
F1.0209095844574817e-09
F8.070731527169926e-10
F6.751109922524878e-10
F5.830822120075137e-10
F5.064403749744683e-10
F4.520201955906112e-10
F4.079132709129436e-10
F3.7058610678512005e-10
F3.4188288493017276e-10
F3.152954276655087e-10
F2.945257311859323e-10
F2.752529892968636e-10
F2.563850772260162e-10
F2.447521996930524e-10
F2.2789432897182968e-10
F2.1836997714118623e-10
F2.0545993612181653e-10
F1.9784324067957475e-10
F1.8636121866551337e-10
F1.789890340016599e-10
F1.7129701159583219e-10
F1.6297487811159901e-10
F1.556038329615009e-10
F1.4952888486624272e-10
F1.4115780721096294e-10
F1.3603265459396372e-10
F1.289158585641164e-10
F1.23090409020283e-10
F1.1869659803692465e-10
F1.1176463381975355e-10
F1.0855080694342313e-10
F1.0361867210171341e-10
F9.886055274109156e-11
F9.563846925529581e-11
F9.189663756586456e-11
F8.867120782175138e-11
F8.499934874743075e-11
F8.255297778787928e-11
F7.934221258857591e-11
F7.676454403883156e-11
F7.397476337435573e-11
F7.160632676167743e-11
F6.926108307628508e-11
F6.744517899479035e-11
F6.500914070919021e-11
F6.337310623415849e-11
F6.132248540902403e-11
F5.976860767773929e-11
F5.7642529126088375e-11
F5.625606757624477e-11
F5.43926941318948e-11
F5.2830947098079856e-11
F5.129252638358651e-11
F4.981866748212645e-11
F4.8320503344394846e-11
F4.691083457900997e-11
F4.5501099632893554e-11
F4.433781780849065e-11
F4.301072377426554e-11
F4.186565076189355e-11
F4.080336695041136e-11
F3.96918400310695e-11
F3.875106454332207e-11
F3.7717655782492985e-11
F3.678501724275889e-11
F3.578249783246633e-11
F3.485053877971861e-11
F3.3995054802915696e-11
F3.3096264668817475e-11
F3.228236054455481e-11
F3.149308686308351e-11
F3.073177235351886e-11
F3.00466913259461e-11
F2.9278556777352805e-11
F2.8625512305519094e-11
F2.796785340261353e-11
F2.7326115054805896e-11
F2.6747908177586752e-11
F2.614616135858869e-11
F2.562171860387445e-11
F2.5057423808553352e-11
F2.4575567413596285e-11
F2.407620729117864e-11
F2.358721072790715e-11
F2.3124927716789884e-11
F2.2691066204873457e-11
F2.225920536021796e-11
F2.185053121589266e-11
F2.147378203071733e-11
F2.1098318071997356e-11
F2.072872536517941e-11
F2.038443617217693e-11
F2.004734716150021e-11
F1.9719220533835183e-11
F1.9395264530645545e-11
tp3
aa(F1.8
I100
tp4
a.