(lp0
(lp1
(F2.311655251113366
F2.4222923027578647
F2.6314547656787575
F2.7885374715945064
F3.090781463758118
F3.4302672923860387
F3.725899924436186
F3.946598552983101
F4.285195377694755
F4.653626431738446
F4.939915212618903
F5.274590228117141
F5.658954491656927
F6.053635505672501
F6.458550147711123
F6.940463698164934
F7.273302016431203
F7.712001190202555
F8.277927880798513
F8.782301335798389
F9.438061776314612
F10.13084102059251
F10.836007353136948
F11.520421411720042
F12.275269643054223
F13.18380405171261
F13.862664103820856
F14.61873334849875
F15.347010033436675
F16.02254957988705
F16.703289262597472
F17.386571125148908
F18.088707671833266
F18.864343122981918
F19.537171432203493
F20.372974601954986
F21.43405526000382
F22.308509556304372
F23.296539783935916
F24.55040145103762
F25.89101055418865
F27.861519923775763
tp2
a(F0.08017222180981368
F0.05762045575427529
F0.03497620536446719
F0.02353365350164924
F0.016518952875210404
F0.011920982130450364
F0.00845952869488072
F0.006250408636017964
F0.004660494620458957
F0.0035731356221645103
F0.0027395018733004776
F0.002121438684707227
F0.0016645085463410623
F0.0013161491547088273
F0.00104507512221028
F0.000837536756088778
F0.0006759199110022958
F0.0005473343155665247
F0.00044668704079720126
F0.00036624284459670965
F0.00030109042023484297
F0.0002486826511834701
F0.00020617551219286008
F0.00017129559483199452
F0.00014284493310959346
F0.00011947450462384324
F0.00010006818689738344
F8.395158462730144e-05
F7.064339769082762e-05
F5.958881995096938e-05
F5.036527864556632e-05
F4.267595794782212e-05
F3.6264700466376285e-05
F3.088244312633252e-05
F2.6371935688476223e-05
F2.257497637886999e-05
F1.9379408745488203e-05
F1.6673243525702605e-05
F1.4371927667934676e-05
F1.2419341191249708e-05
F1.0755567180853563e-05
F9.327444311575256e-06
tp3
aa(F1.8
I50
tp4
a.