(lp0
(lp1
(F3.17214438511238
F4.149548168174458
F4.384364976823896
F5.24100545428469
F5.547616549718992
F6.188254498681339
F5.7216747313547405
F7.073424388951732
F8.014663014991168
F9.32541030671531
F10.261518772367493
F11.205456260233225
F12.590696142004136
F13.59394014927936
F14.916103767712093
F15.465745471775346
F16.826993605104953
F17.642734967191213
F18.691107693713263
F19.52690877808373
F20.481037388475315
F21.699633841247174
F22.91805168529418
F23.829247108866895
F25.056397043327983
F26.127354631351054
F27.020328734748535
F28.16929828751328
F29.184164679953167
F30.540878062126833
F31.308657641935188
F32.35735509428224
F33.19713949115681
F34.40373227153777
F35.55097204093292
F36.448435223872835
F37.50263248521123
F38.747044312478
F39.438650845748725
F40.565235314433174
F41.67452122420727
F42.6830432371879
F43.7257431233048
F44.92237499774569
F46.215141024468046
F47.141434809142055
F48.32386034889908
F49.20969612452994
F50.51980219533825
F51.637441477504375
F52.65347200155819
F53.48684745632564
F54.7529338312548
F56.018958388265574
F57.04169495579552
F58.18241723324478
F59.13618568688525
F60.446094195322615
F61.407910707031675
F62.34036122076389
F63.5399494190559
F64.64680342935327
F65.82646000309838
F66.82736102462201
F68.17962084180621
F69.23803016910622
F70.25777440027633
F71.12775236521856
F72.36171309188563
F73.47268778223852
F74.48348082382277
F75.40169990295847
F76.4571755695701
F77.71414223332307
F78.83774200233678
F79.67123623531424
F80.91829363919697
F82.01906729668559
F83.10423356006504
F84.00248245401137
F85.25431098752934
F86.33781756338435
F87.49306491624552
F88.43046690352367
F89.6643129583973
F90.89951228949545
F91.71133102391552
F93.01430546302036
F94.24404500196441
F95.30767438105914
F96.20506126485947
F97.47510571255425
F98.52831267061511
F99.5621587721159
F100.76519372732011
F101.6555518650458
F102.92709410377789
F103.98985690788977
tp2
a(F0.6399999999999998
F0.03975155279503106
F0.0069299694106818984
F0.002534314720309662
F0.0013297666261551633
F0.0007741636034745103
F0.0004924777108207542
F0.0003368827357571953
F0.00024750105362702466
F0.00018322155932104
F0.00013257878680685638
F9.704401120443743e-05
F7.078369200898522e-05
F5.260769402628183e-05
F3.897178802722211e-05
F2.9503008498081676e-05
F2.25820959286409e-05
F1.757101228672553e-05
F1.3790019001774872e-05
F1.0898813989066268e-05
F8.725122686785856e-06
F7.020211127899371e-06
F5.701896516425746e-06
F4.637960735306084e-06
F3.802687044114157e-06
F3.131601608777466e-06
F2.594896752366865e-06
F2.1599475327829938e-06
F1.8085263556154816e-06
F1.5233889901415758e-06
F1.289263978081318e-06
F1.0961756300209711e-06
F9.359502994871408e-07
F8.0302649902987e-07
F6.914847223567479e-07
F5.979219439553115e-07
F5.186631462815958e-07
F4.5172041996721105e-07
F3.945646577582262e-07
F3.4578376586516947e-07
F3.039346115336809e-07
F2.680517715620457e-07
F2.370720770046149e-07
F2.1023576033334704e-07
F1.869499966988732e-07
F1.6665050536251928e-07
F1.4892268068097838e-07
F1.3337945727905258e-07
F1.1973669430638729e-07
F1.0772058978944767e-07
F9.712019751105443e-08
F8.773135137337878e-08
F7.940967559335159e-08
F7.200576092831114e-08
F6.54153991380511e-08
F5.952027578730783e-08
F5.425366444445079e-08
F4.952873549858098e-08
F4.528454911960421e-08
F4.146431432346526e-08
F3.802018066093744e-08
F3.491546138632263e-08
F3.210574592214168e-08
F2.956130067577959e-08
F2.7251334848145083e-08
F2.5155104663532784e-08
F2.3246286965323408e-08
F2.1507041794355292e-08
F1.9920080371812353e-08
F1.8471242190826294e-08
F1.714591416020575e-08
F1.5931897700642778e-08
F1.4818935331485817e-08
F1.3797150942539498e-08
F1.285856492507652e-08
F1.1994330730209085e-08
F1.1198584263515098e-08
F1.04651182325682e-08
F9.78804776133104e-09
F9.162223531527378e-09
F8.58361370281546e-09
F8.048234785390319e-09
F7.552244658317567e-09
F7.0921602097772224e-09
F6.665111626914187e-09
F6.268474210159798e-09
F5.89973107114274e-09
F5.556486655552019e-09
F5.236773103403293e-09
F4.938839675335699e-09
F4.660921863525103e-09
F4.401412829021969e-09
F4.158972141452057e-09
F3.932357245829996e-09
F3.720287217886717e-09
F3.521765754058183e-09
F3.335729403225429e-09
F3.1613658292708403e-09
tp3
aa(F0.5
I100
tp4
a.