(lp0
(lp1
(F2.472066162365221
F3.2283896914715857
F3.377978505128348
F3.7544174015039626
F4.148873129935692
F4.493299108107768
F4.928889257428434
F5.315159958862968
F5.793377304279062
F6.43889983027571
F6.789978413998704
F10.38697271856651
F9.87049513794481
F10.166075863570121
F11.547265469708748
F12.674147858442588
F14.225209588629866
F15.492960274457266
F14.206375899629808
F15.848769930910267
F16.304951122073373
F18.87478818081511
F18.398584272406623
F18.96185197191964
F19.494372564344904
F19.756126932713023
F21.28104308428332
F20.940426384560897
F22.625740251355506
F23.45977646557386
F24.37889027771064
F25.49126473256801
F25.441754224202136
F28.24791423764099
F29.463916469066778
F30.846663329317987
F31.209976720857448
F32.71718525370174
F37.45522810613975
F37.63910525335313
F42.25865011995156
F45.36480487794908
F48.33093082683028
F50.16111195279103
tp2
a(F0.1305535739616505
F0.06555914817705429
F0.03429195712990136
F0.01876683370068938
F0.010867633618632607
F0.007044751705369631
F0.004525903443754653
F0.002905384879509039
F0.0019650138325494984
F0.0013851255376635652
F0.0009959993501163725
F0.0007330500186442585
F0.0005316625772689989
F0.00040103681435948443
F0.00029489297556301345
F0.00022473680322455668
F0.00017203990640982244
F0.00012740664898764473
F9.444756362216814e-05
F7.322693315860393e-05
F5.67409144435104e-05
F4.444858187143698e-05
F3.484279164020977e-05
F2.7541533688791845e-05
F2.2088842477311525e-05
F1.7987274614271473e-05
F1.4624317543902462e-05
F1.2001065286914195e-05
F9.62064808913746e-06
F7.979119918445214e-06
F6.672473087540392e-06
F5.537495413427996e-06
F4.620664341287065e-06
F3.858921701052078e-06
F3.234182639753828e-06
F2.784826066277914e-06
F2.3640301956548307e-06
F2.022053825306767e-06
F1.7191152615467862e-06
F1.4869455689890063e-06
F1.2925193704665018e-06
F1.1243839131605722e-06
F9.795888537105772e-07
F8.535646864672441e-07
tp3
aa(F1.8
I50
tp4
a.