(lp0
(lp1
(F5.303433153188936
F5.303433153188936
F5.289582222454337
F5.47869790651431
F5.486284266741378
F5.633027802131082
F5.791496400887269
F5.857097257723815
F6.130014841569494
F6.261444089572516
F6.38575587529149
F6.777181272947801
F6.872036639046739
F7.231591746753629
F7.459381699023831
F7.725103528056904
F7.953201646734931
F8.344803838771648
F8.66398590079544
F8.995084437939243
F9.28126362683538
F9.614374074416364
F9.933748024118868
F10.321367134810457
F10.707176699392207
F11.132512406599133
F11.508111160701297
F11.83062685600724
F12.149597311070753
F12.482273959339716
F12.917838665589526
F13.286818782011277
F13.680607730266765
F14.077628953220183
F14.52702948673301
F14.949002000692843
F15.425869496873386
F15.92927278415372
F16.39126830879359
F16.911021186593718
F17.423144647950245
F18.026751816084353
F18.568957227789646
F18.989310316009725
F19.48481586140594
F20.029448975723298
F20.460397415081122
F20.98842675992273
F21.561610604745134
tp2
a(F0.0007458953112684423
F0.00046909479812257663
F0.0003429512716518249
F0.0002634507139523888
F0.00021289557546750698
F0.0001761489944325162
F0.00014800353701274074
F0.00012670623788838738
F0.00010881028491760173
F9.433796562519661e-05
F8.260086767986393e-05
F7.206251460765007e-05
F6.340306852129903e-05
F5.5764067786766004e-05
F4.922484716308327e-05
F4.355995663304833e-05
F3.872282324407347e-05
F3.438461273371922e-05
F3.05774899299594e-05
F2.7241927513249414e-05
F2.433361229936351e-05
F2.1780129242440458e-05
F1.9535262074459565e-05
F1.753599520885669e-05
F1.5760669791209984e-05
F1.4172495784581245e-05
F1.2765058712768975e-05
F1.1524339970351264e-05
F1.0430123560366848e-05
F9.45825798401179e-06
F8.584592511619647e-06
F7.802608674103625e-06
F7.101418649345574e-06
F6.471416685107691e-06
F5.902325634916507e-06
F5.388941892706612e-06
F4.923905621202612e-06
F4.501423135575779e-06
F4.119093303912983e-06
F3.7716870311247687e-06
F3.456157023172399e-06
F3.1680005018604042e-06
F2.9058179262805524e-06
F2.6689975140199903e-06
F2.4540579721811528e-06
F2.258141550911765e-06
F2.0803779432880083e-06
F1.9183644418890854e-06
F1.7700142916141502e-06
tp3
aa(F1.8
I50
tp4
a.