(lp0
(lp1
(F2.335496832484569
F2.4688535993934706
F2.848751413406339
F3.147419578003543
F3.5150470203904183
F4.034128598394838
F4.43471156521669
F4.6694885920559015
tp2
a(F1.0
F0.09166666666666667
F0.023842140819696746
F0.012088350018718226
F0.006873046097549767
F0.004315745166769012
F0.002825196838134976
F0.00189294934652187
tp3
aa(F1.8
I10
tp4
a.