(dp0
S'kernel'
p1
(lp2
(F15.635508905169488
F15.99949557668679
F16.073039300604563
F16.11491625443392
F16.197707025723616
F16.41624672282226
F16.694610248379686
F16.980774089912668
F17.288107178043244
tp3
a(F8.33245102912762e-06
F5.392853915846487e-06
F3.96851143167481e-06
F3.131592214624983e-06
F2.577093454701973e-06
F2.1726284315076616e-06
F1.8618905930310285e-06
F1.6160411226172905e-06
F1.4166149495985599e-06
tp4
asS'params'
p5
(F1.8
I10
tp6
s.