(lp0
(lp1
(F2.2362961360614264
F2.4375
F2.6506925130799446
F3.9176012368926925
F3.9139337693707095
F4.376423930534276
F4.602254656408929
F5.185632007864388
F5.921917586962605
F7.420144149890604
F7.8861611008703845
F8.38536196445457
F9.177032660256835
F10.036752525898553
F9.466737178833236
F10.846742470543816
F11.53374975478366
F12.959004425598497
F13.654946493109207
F14.142230587170888
F15.315755236272645
F16.00475499194196
F17.244482648300163
F17.62554960772951
F19.59604338971711
F19.49687353348216
F20.263467661503544
F21.547294507236366
F22.43140447859732
F23.620921370964556
F24.336686682677744
F25.67966395654119
F27.056715796022846
F28.225857830319303
F29.635147120348083
F31.00690798503972
F32.6710072243217
F33.10606799757979
F34.8792526699173
F35.94701598841083
F37.106850957309256
F38.92343522874934
F40.0244168631729
F41.117723661550905
F41.241133078773274
F42.462440136020845
F45.086606125848334
F45.650877261714356
F47.168180911508124
F48.483812016634694
F50.708624701408645
F52.247054782144396
F54.00938162701538
F56.37331454241974
F56.67878282545395
F58.23827473522926
F59.91899199006992
F60.81559861558616
F63.69718496050746
F64.4744078565344
F66.50041796838713
F67.66318055003917
F69.80513309125263
F71.68983651296605
F73.68005805944212
F74.8026765684451
F75.86857396027787
F76.9652348606215
F78.55215858265856
F80.18642520741449
F81.7919847523525
F82.88604608523681
F85.71061898505906
F86.80694852243258
F88.50819971580299
F89.57057725926607
F90.9026557533033
F93.27038520794427
F93.81802579887334
F96.5146167202012
F97.04879594713627
F99.10641489780102
F101.63263747041255
F102.89000394191636
F104.73906679260612
F106.19184111155478
F107.745998235165
F108.42292192779323
F110.77700267382524
F112.28803319135702
F113.05300489076416
F115.9261404418319
F118.20882802986
F119.67904672492263
F121.55828808821279
tp2
a(F0.284160673566041
F0.12502671443682814
F0.06324465501485514
F0.03192742422462467
F0.01578841470612996
F0.009963147516353098
F0.00600152232602136
F0.003768121309485483
F0.00242003559321296
F0.0016674380232637722
F0.001170367913576819
F0.0008154673624872059
F0.0005856789710737766
F0.00041813429650419036
F0.00030589556558260466
F0.00022845230579286442
F0.00017115945075642423
F0.00012810776038435165
F9.86689349921384e-05
F7.717573720640872e-05
F6.0608091090217475e-05
F4.7674769067633414e-05
F3.8256456467514064e-05
F3.0408008683562344e-05
F2.4532441876068638e-05
F1.975738014062043e-05
F1.609759744785624e-05
F1.319865332617173e-05
F1.0944856980654365e-05
F9.086152609090532e-06
F7.562669267605338e-06
F6.330845856146865e-06
F5.308156867113662e-06
F4.478269501408573e-06
F3.793801311125005e-06
F3.2226860390999126e-06
F2.7518117504040556e-06
F2.3545929790752457e-06
F2.017410056224493e-06
F1.7378007875963102e-06
F1.5003401299705975e-06
F1.2997370823888458e-06
F1.1266329560275386e-06
F9.821029198134068e-07
F8.55327698487117e-07
F7.477779966856914e-07
F6.544925044827659e-07
F5.744949277030278e-07
F5.057949616451358e-07
F4.4530107635555837e-07
F3.932945146196055e-07
F3.47999447990468e-07
F3.087817859531368e-07
F2.742322533973475e-07
F2.4400773140803303e-07
F2.175695792408739e-07
F1.9405679824770736e-07
F1.7359840316227158e-07
F1.5545670621878684e-07
F1.3949516036230425e-07
F1.2530079297158568e-07
F1.1269200001293463e-07
F1.0156969573500943e-07
F9.156904759181062e-08
F8.269735413949504e-08
F7.480224890750576e-08
F6.774691171660131e-08
F6.141743624182812e-08
F5.573386155970496e-08
F5.0674783752145546e-08
F4.6103530501420836e-08
F4.200722591154004e-08
F3.830791772196795e-08
F3.49680018387207e-08
F3.195731406831576e-08
F2.9219063854053946e-08
F2.6757788247822626e-08
F2.4527867440373445e-08
F2.2499599696174885e-08
F2.0662307783971525e-08
F1.8991450161070643e-08
F1.7479831760794237e-08
F1.6098229560713662e-08
F1.4846072968892974e-08
F1.3701002819120775e-08
F1.2653158073143578e-08
F1.1696561631140867e-08
F1.0817914203069868e-08
F1.0019147584732659e-08
F9.28311033777454e-09
F8.60936306777941e-09
F7.990805619215041e-09
F7.421539869134127e-09
F6.898547313318496e-09
F6.416953343111954e-09
tp3
aa(F1.5
I100
tp4
a.