(lp0
(lp1
(F3.4641016151377544
F3.3015148038438356
F3.278719262151
F3.5992423445143915
F3.7698967110679855
F5.189434705065624
F6.191872553136548
F6.4872572819531
F7.156529123178993
F7.444397062156721
F7.763645635163103
F8.685015093797315
F9.097628228183341
F9.640507971024864
F10.409486093079796
F10.850417661169956
F11.21803849855678
F11.882924915832572
F12.245500809535553
F12.71180223124898
F13.024799445422252
F13.517198662661723
F14.034627185426698
F14.452777855858436
F14.87402743090146
F15.26620671952141
F15.846303896076197
F16.30030447844978
F16.809447406857068
F17.332919960535293
F17.8644922234418
F18.42201219356976
F19.03229418932507
F19.621124527525566
F20.22086695301885
F20.923050890761747
F21.48571045483517
F22.12601586349989
F22.882156826242742
F23.48995293264524
F24.17181602257964
F25.02966271319494
F25.93271131729022
F26.790851648410875
F27.701259496013673
F28.857609627761967
F29.9187324567228
F31.146434486059704
F32.222794395474715
F33.358961435322804
F34.358910102669185
F35.523707270414306
F36.480055866675194
F37.54847050122036
F38.46168036130168
F39.66359600510948
F40.734088941408004
F42.02541494566132
F43.50724509411833
F44.95240300595114
F46.33570085650905
F47.58085309527754
F48.91615379075553
F50.06969450582649
F51.38074516124119
F52.62017708182425
F53.92295162015262
F55.10730812733944
F56.25956073629266
F57.43922426705826
F58.64900901748933
F59.740668124196446
F60.7992376826559
F61.813260634448966
F62.76001166602951
F63.67110441190295
F64.58567573349585
F65.3802436647435
F66.2237044873415
F67.08340259041049
F67.87237010373417
F68.62504494199314
F69.35644870898967
F70.07046377875682
F70.80207482135366
F71.52631580305537
F72.2656502063319
F72.97530504131628
F73.67876598447356
F74.37113898719736
F75.04426578493769
F75.78306051303933
F76.61747826326635
F77.40742438196085
F78.20000655213101
F79.00961235438703
F79.79794780171369
F80.62974006289198
F81.34787450127062
F82.0985068936307
F82.85649745563781
F83.5114671676408
F84.21866646709628
F84.91502322863433
F85.62041699739656
F86.27744202513914
F86.93234037539249
F87.57848400715133
F88.20199113895282
F88.84821745475833
F89.49865029689873
F90.17395685349291
F90.82110862174514
F91.512088964807
F92.21517708705281
F92.95117461280465
F93.73023372642758
F94.50882238907211
F95.26903065871575
F96.05576175154008
F96.84477992344254
F97.62490277376942
F98.42389001900945
F99.23779774894592
F100.00743921678409
F100.76470230493553
F101.52526697503602
F102.29773791801502
F103.04392840976273
F103.81392656271882
F104.57953800079709
F105.35115871574448
F106.13907521288957
F106.93237511184489
F107.71322102913875
F108.52868674802532
F109.35851676868548
F110.18749064936078
F111.0193161066014
F111.81574617201306
F112.6493266196401
F113.52082577244217
F114.44258697439514
F115.37288798452359
F116.27752833754779
F117.21678103889674
tp2
a(F0.020408163265306117
F0.007142857142857143
F0.0037313432835820895
F0.0025471217524197657
F0.001951219512195122
F0.0015198408312147673
F0.0011977904033758818
F0.0008288267460930733
F0.0005511411746516715
F0.0003860047993936614
F0.00028254049628949
F0.00021771159660512028
F0.0001717368948116944
F0.00013565419479965907
F0.00010719771190152506
F8.431395682690215e-05
F6.69762033200668e-05
F5.377971067265555e-05
F4.371906159012502e-05
F3.600389861143068e-05
F2.9786274693246044e-05
F2.4773577397953538e-05
F2.080465031543006e-05
F1.7520204657609095e-05
F1.4834751492559037e-05
F1.2653013780111239e-05
F1.0832655954639846e-05
F9.331240373881431e-06
F8.078179494845073e-06
F7.02095155413921e-06
F6.130802303652241e-06
F5.373593536304736e-06
F4.725205170668383e-06
F4.170862338525545e-06
F3.69385886722363e-06
F3.280989066124484e-06
F2.9222955706826736e-06
F2.6095381462827856e-06
F2.335996345150921e-06
F2.096031635394725e-06
F1.884515895775943e-06
F1.697611299720687e-06
F1.532018406364085e-06
F1.3847882388979949e-06
F1.2532305291742502e-06
F1.135725434673775e-06
F1.0306897191438103e-06
F9.361832184904876e-07
F8.512688578756592e-07
F7.747801234202129e-07
F7.057461273875364e-07
F6.433852821332335e-07
F5.870342609347419e-07
F5.359808175352559e-07
F4.89713565824702e-07
F4.477147459354071e-07
F4.095399084061757e-07
F3.748028868127756e-07
F3.432069559791723e-07
F3.1442337076335517e-07
F2.8816505779967595e-07
F2.6422737308734215e-07
F2.4240084371477483e-07
F2.2251365007469598e-07
F2.0438138794661145e-07
F1.878470731715022e-07
F1.7274910942221636e-07
F1.589475390063572e-07
F1.463195456582838e-07
F1.3477740365037757e-07
F1.2422324164779954e-07
F1.1457380948493659e-07
F1.0574394531767159e-07
F9.765912087078801e-08
F9.025110080392425e-08
F8.346236421513313e-08
F7.723583795603232e-08
F7.152423580877126e-08
F6.628315259669504e-08
F6.147017889472419e-08
F5.7048335554144915e-08
F5.298352186437884e-08
F4.9245808049282383e-08
F4.5806255614220236e-08
F4.2639816574831324e-08
F3.9722140251739735e-08
F3.7032809646830166e-08
F3.455139139908022e-08
F3.225995994965029e-08
F3.014274451223287e-08
F2.8184825507456553e-08
F2.637267093736845e-08
F2.4694227161548462e-08
F2.3138175117155722e-08
F2.1694028131982326e-08
F2.035282109222042e-08
F1.9106057675833008e-08
F1.794627482019412e-08
F1.6866785266410883e-08
F1.5861324507129977e-08
F1.49240823698905e-08
F1.4049827087727579e-08
F1.3233746276530025e-08
F1.2471526110717407e-08
F1.1758967722754307e-08
F1.1092542313441505e-08
F1.0468708207042863e-08
F9.884442976517457e-09
F9.336879384820851e-09
F8.823439281529783e-09
F8.341762226825353e-09
F7.88971376472618e-09
F7.465286323799691e-09
F7.066668031318853e-09
F6.6921617243897015e-09
F6.3401677757590236e-09
F6.009265643942395e-09
F5.698033884022224e-09
F5.405208721390224e-09
F5.129581068453541e-09
F4.870057626729381e-09
F4.62558517143734e-09
F4.3952513990594466e-09
F4.17816339056696e-09
F3.973507491296601e-09
F3.780499021248022e-09
F3.5984285311792843e-09
F3.4266170407335425e-09
F3.2644292785125284e-09
F3.111276332010231e-09
F2.9666062886211633e-09
F2.8299022045119917e-09
F2.7006787670469176e-09
F2.5784889195817494e-09
F2.462910486657223e-09
F2.353551582272879e-09
F2.250044805785487e-09
F2.1520426058529534e-09
F2.0592170649931434e-09
F1.9712638747442255e-09
F1.88789540743722e-09
F1.808839292643888e-09
F1.733842622090959e-09
F1.6626692656103225e-09
F1.5950953972983071e-09
F1.53091232516327e-09
tp3
aa(F1.8
I150
tp4
a.