(dp0
S'gyr_r'
p1
(dp2
I0
F15.667027147272364
sI1
F15.635508905169488
sI2
F15.99949557668679
sI3
F16.073039300604563
sI4
F16.11491625443392
sI5
F16.197707025723616
sI6
F16.41624672282226
sI7
F16.694610248379686
sI8
F16.980774089912668
sI9
F17.288107178043244
ssS'infected'
p3
(lp4
(lp5
I0
aI0
aI0
aa(lp6
I-1
aI-7
aI0
aa(lp7
I14
aI-19
aI0
aa(lp8
I7
aI5
aI0
aa(lp9
I8
aI-2
aI0
aa(lp10
I14
aI-17
aI0
aa(lp11
I-6
aI-6
aI0
aa(lp12
I3
aI1
aI0
aa(lp13
I-1
aI-3
aI0
aa(lp14
I7
aI8
aI0
aa(lp15
I0
aI-14
aI0
aa(lp16
I18
aI-19
aI0
aa(lp17
I-9
aI-17
aI0
aa(lp18
I-18
aI-12
aI0
aa(lp19
I9
aI14
aI0
aa(lp20
I-7
aI-1
aI0
aa(lp21
I-5
aI-18
aI0
aa(lp22
I-15
aI15
aI0
aa(lp23
I8
aI14
aI0
aa(lp24
I3
aI10
aI0
aa(lp25
I16
aI16
aI0
aa(lp26
I0
aI-18
aI0
aa(lp27
I-15
aI8
aI0
aa(lp28
I11
aI0
aI0
aa(lp29
I5
aI-1
aI0
aa(lp30
I16
aI17
aI0
aa(lp31
I7
aI7
aI0
aa(lp32
I1
aI-17
aI0
aa(lp33
I14
aI16
aI0
aa(lp34
I15
aI-11
aI0
aa(lp35
I12
aI13
aI0
aa(lp36
I-11
aI-2
aI0
aa(lp37
I-18
aI-11
aI0
aa(lp38
I0
aI6
aI0
aa(lp39
I-5
aI0
aI0
aa(lp40
I-8
aI3
aI0
aa(lp41
I-19
aI0
aI0
aa(lp42
I17
aI7
aI0
aa(lp43
I-11
aI8
aI0
aa(lp44
I19
aI4
aI0
aa(lp45
I-13
aI-12
aI0
aa(lp46
I10
aI1
aI0
aa(lp47
I3
aI-8
aI0
aa(lp48
I2
aI4
aI0
aa(lp49
I16
aI3
aI0
aa(lp50
I-17
aI7
aI0
aa(lp51
I0
aI10
aI0
aa(lp52
I-3
aI-9
aI0
aa(lp53
I19
aI0
aI0
aa(lp54
I17
aI5
aI0
aa(lp55
I-12
aI4
aI0
aa(lp56
I0
aI-9
aI0
aa(lp57
I9
aI19
aI0
aa(lp58
I-11
aI17
aI0
aa(lp59
I-11
aI2
aI0
aa(lp60
I1
aI-4
aI0
aa(lp61
I-15
aI0
aI0
aa(lp62
I-16
aI-5
aI0
aa(lp63
I3
aI1
aI0
aa(lp64
I-7
aI18
aI0
aa(lp65
I12
aI-17
aI0
aa(lp66
I18
aI-10
aI0
aa(lp67
I2
aI-12
aI0
aa(lp68
I-8
aI-4
aI0
aa(lp69
I14
aI-5
aI0
aa(lp70
I17
aI-9
aI0
aa(lp71
I-12
aI-5
aI0
aa(lp72
I6
aI18
aI0
aa(lp73
I19
aI0
aI0
aa(lp74
I-15
aI-19
aI0
aa(lp75
I1
aI-16
aI0
aa(lp76
I-10
aI4
aI0
aa(lp77
I-12
aI-3
aI0
aa(lp78
I-15
aI-12
aI0
aa(lp79
I-6
aI1
aI0
aa(lp80
I19
aI-12
aI0
aa(lp81
I0
aI-12
aI0
aa(lp82
I-7
aI8
aI0
aa(lp83
I-17
aI1
aI0
aa(lp84
I-9
aI-11
aI0
aa(lp85
I-14
aI11
aI0
aa(lp86
I4
aI7
aI0
aa(lp87
I15
aI4
aI0
aa(lp88
I-9
aI18
aI0
aa(lp89
I-4
aI19
aI0
aa(lp90
I18
aI2
aI0
aa(lp91
I2
aI-6
aI0
aa(lp92
I-7
aI11
aI0
aa(lp93
I-15
aI6
aI0
aa(lp94
I18
aI2
aI0
aa(lp95
I15
aI0
aI0
aa(lp96
I-12
aI-10
aI0
aa(lp97
I-8
aI-5
aI0
aa(lp98
I2
aI-16
aI0
aa(lp99
I17
aI-9
aI0
aa(lp100
I12
aI-1
aI0
aa(lp101
I-8
aI-10
aI0
aa(lp102
I-18
aI0
aI0
aa(lp103
I-11
aI-12
aI0
aa(lp104
I-19
aI-11
aI0
aa(lp105
I8
aI18
aI0
aa(lp106
I0
aI1
aI1
aa(lp107
I-1
aI-8
aI1
aa(lp108
I19
aI-17
aI1
aa(lp109
I11
aI2
aI1
aa(lp110
I13
aI-17
aI1
aa(lp111
I-6
aI-7
aI1
aa(lp112
I3
aI0
aI1
aa(lp113
I-2
aI-3
aI1
aa(lp114
I6
aI8
aI1
aa(lp115
I1
aI-14
aI1
aa(lp116
I17
aI-18
aI1
aa(lp117
I-9
aI-16
aI1
aa(lp118
I9
aI13
aI1
aa(lp119
I-6
aI-1
aI1
aa(lp120
I-5
aI-17
aI1
aa(lp121
I-14
aI16
aI1
aa(lp122
I4
aI10
aI1
aa(lp123
I0
aI-19
aI1
aa(lp124
I-17
aI9
aI1
aa(lp125
I12
aI0
aI1
aa(lp126
I4
aI0
aI1
aa(lp127
I17
aI18
aI1
aa(lp128
I8
aI7
aI1
aa(lp129
I11
aI11
aI1
aa(lp130
I-12
aI-2
aI1
aa(lp131
I-18
aI-10
aI1
aa(lp132
I0
aI5
aI1
aa(lp133
I-6
aI2
aI1
aa(lp134
I-20
aI0
aI1
aa(lp135
I-10
aI8
aI1
aa(lp136
I19
aI5
aI1
aa(lp137
I-13
aI-11
aI1
aa(lp138
I16
aI2
aI1
aa(lp139
I-16
aI7
aI1
aa(lp140
I-1
aI10
aI1
aa(lp141
I-3
aI-10
aI1
aa(lp142
I19
aI-1
aI1
aa(lp143
I16
aI5
aI1
aa(lp144
I-12
aI5
aI1
aa(lp145
I9
aI20
aI1
aa(lp146
I-12
aI18
aI1
aa(lp147
I-12
aI2
aI1
aa(lp148
I1
aI-3
aI1
aa(lp149
I-14
aI0
aI1
aa(lp150
I2
aI1
aI1
aa(lp151
I18
aI-9
aI1
aa(lp152
I3
aI-12
aI1
aa(lp153
I17
aI-8
aI1
aa(lp154
I-12
aI-4
aI1
aa(lp155
I6
aI17
aI1
aa(lp156
I18
aI0
aI1
aa(lp157
I-14
aI-11
aI1
aa(lp158
I-5
aI1
aI1
aa(lp159
I19
aI-13
aI1
aa(lp160
I-1
aI-12
aI1
aa(lp161
I-7
aI10
aI1
aa(lp162
I-16
aI1
aI1
aa(lp163
I-8
aI-11
aI1
aa(lp164
I-14
aI10
aI1
aa(lp165
I3
aI6
aI1
aa(lp166
I14
aI4
aI1
aa(lp167
I-8
aI17
aI1
aa(lp168
I19
aI2
aI1
aa(lp169
I-7
aI12
aI1
aa(lp170
I-15
aI7
aI1
aa(lp171
I15
aI1
aI1
aa(lp172
I-8
aI-2
aI1
aa(lp173
I12
aI1
aI1
aa(lp174
I-18
aI1
aI1
aa(lp175
I-19
aI-12
aI1
aa(lp176
I8
aI19
aI1
aa(lp177
I-3
aI1
aI2
aa(lp178
I14
aI-18
aI2
aa(lp179
I-7
aI-6
aI2
aa(lp180
I3
aI2
aI2
aa(lp181
I-1
aI-4
aI2
aa(lp182
I2
aI-14
aI2
aa(lp183
I18
aI-20
aI2
aa(lp184
I-8
aI-17
aI2
aa(lp185
I-20
aI-12
aI2
aa(lp186
I-6
aI-18
aI2
aa(lp187
I-17
aI14
aI2
aa(lp188
I16
aI21
aI2
aa(lp189
I-16
aI8
aI2
aa(lp190
I4
aI-1
aI2
aa(lp191
I15
aI17
aI2
aa(lp192
I15
aI16
aI2
aa(lp193
I-11
aI-3
aI2
aa(lp194
I-17
aI-11
aI2
aa(lp195
I-5
aI2
aI2
aa(lp196
I-6
aI3
aI2
aa(lp197
I17
aI8
aI2
aa(lp198
I-11
aI9
aI2
aa(lp199
I18
aI4
aI2
aa(lp200
I-12
aI-12
aI2
aa(lp201
I10
aI0
aI2
aa(lp202
I3
aI3
aI2
aa(lp203
I17
aI3
aI2
aa(lp204
I-17
aI5
aI2
aa(lp205
I0
aI11
aI2
aa(lp206
I17
aI6
aI2
aa(lp207
I-14
aI2
aI2
aa(lp208
I0
aI-8
aI2
aa(lp209
I-11
aI16
aI2
aa(lp210
I1
aI-5
aI2
aa(lp211
I-15
aI-5
aI2
aa(lp212
I2
aI0
aI2
aa(lp213
I13
aI-16
aI2
aa(lp214
I15
aI-5
aI2
aa(lp215
I3
aI-16
aI2
aa(lp216
I-10
aI3
aI2
aa(lp217
I-13
aI-2
aI2
aa(lp218
I-16
aI-12
aI2
aa(lp219
I-2
aI0
aI2
aa(lp220
I17
aI-12
aI2
aa(lp221
I-1
aI-13
aI2
aa(lp222
I-8
aI8
aI2
aa(lp223
I-14
aI12
aI2
aa(lp224
I4
aI6
aI2
aa(lp225
I15
aI3
aI2
aa(lp226
I-9
aI19
aI2
aa(lp227
I-4
aI20
aI2
aa(lp228
I20
aI3
aI2
aa(lp229
I-6
aI11
aI2
aa(lp230
I14
aI0
aI2
aa(lp231
I-14
aI-9
aI2
aa(lp232
I19
aI-9
aI2
aa(lp233
I-18
aI-1
aI2
aa(lp234
I-2
aI-11
aI2
aa(lp235
I13
aI-18
aI2
aa(lp236
I6
aI7
aI2
aa(lp237
I1
aI-15
aI2
aa(lp238
I18
aI-18
aI2
aa(lp239
I8
aI13
aI2
aa(lp240
I-13
aI17
aI2
aa(lp241
I1
aI-20
aI2
aa(lp242
I-18
aI9
aI2
aa(lp243
I17
aI17
aI2
aa(lp244
I8
aI8
aI2
aa(lp245
I10
aI9
aI2
aa(lp246
I-17
aI-10
aI2
aa(lp247
I-20
aI-1
aI2
aa(lp248
I-9
aI8
aI2
aa(lp249
I20
aI5
aI2
aa(lp250
I15
aI2
aI2
aa(lp251
I-1
aI11
aI2
aa(lp252
I19
aI-2
aI2
aa(lp253
I18
aI5
aI2
aa(lp254
I-13
aI5
aI2
aa(lp255
I9
aI21
aI2
aa(lp256
I-12
aI19
aI2
aa(lp257
I-13
aI2
aI2
aa(lp258
I18
aI-8
aI2
aa(lp259
I3
aI-13
aI2
aa(lp260
I18
aI-13
aI2
aa(lp261
I-2
aI-12
aI2
aa(lp262
I-8
aI10
aI2
aa(lp263
I-16
aI0
aI2
aa(lp264
I-8
aI-12
aI2
aa(lp265
I-13
aI10
aI2
aa(lp266
I3
aI8
aI2
aa(lp267
I13
aI4
aI2
aa(lp268
I-9
aI17
aI2
aa(lp269
I19
aI1
aI2
aa(lp270
I14
aI-1
aI2
aa(lp271
I-9
aI-2
aI2
aa(lp272
I-19
aI1
aI2
aa(lp273
I7
aI19
aI2
aa(lp274
I-1
aI0
aI3
aa(lp275
I-2
aI-8
aI3
aa(lp276
I15
aI-19
aI3
aa(lp277
I14
aI-16
aI3
aa(lp278
I0
aI-2
aI3
aa(lp279
I-9
aI-18
aI3
aa(lp280
I-8
aI-1
aI3
aa(lp281
I-5
aI-16
aI3
aa(lp282
I8
aI10
aI3
aa(lp283
I3
aI9
aI3
aa(lp284
I16
aI15
aI3
aa(lp285
I1
aI-18
aI3
aa(lp286
I-15
aI10
aI3
aa(lp287
I7
aI6
aI3
aa(lp288
I13
aI16
aI3
aa(lp289
I15
aI-10
aI3
aa(lp290
I13
aI13
aI3
aa(lp291
I-7
aI3
aI3
aa(lp292
I14
aI15
aI3
aa(lp293
I-13
aI7
aI3
aa(lp294
I-4
aI-9
aI3
aa(lp295
I16
aI4
aI3
aa(lp296
I0
aI-10
aI3
aa(lp297
I-10
aI17
aI3
aa(lp298
I-10
aI2
aI3
aa(lp299
I-14
aI3
aI3
aa(lp300
I4
aI1
aI3
aa(lp301
I11
aI-17
aI3
aa(lp302
I1
aI-12
aI3
aa(lp303
I-7
aI-5
aI3
aa(lp304
I13
aI-4
aI3
aa(lp305
I16
aI-9
aI3
aa(lp306
I19
aI-6
aI3
aa(lp307
I-16
aI-18
aI3
aa(lp308
I-9
aI4
aI3
aa(lp309
I-13
aI-3
aI3
aa(lp310
I-14
aI-12
aI3
aa(lp311
I19
aI-14
aI3
aa(lp312
I-15
aI11
aI3
aa(lp313
I-12
aI15
aI3
aa(lp314
I-5
aI19
aI3
aa(lp315
I17
aI2
aI3
aa(lp316
I1
aI-6
aI3
aa(lp317
I-14
aI6
aI3
aa(lp318
I15
aI-1
aI3
aa(lp319
I-12
aI-9
aI3
aa(lp320
I-6
aI-5
aI3
aa(lp321
I17
aI-10
aI3
aa(lp322
I-8
aI-9
aI3
aa(lp323
I-11
aI-13
aI3
aa(lp324
I-19
aI-10
aI3
aa(lp325
I0
aI2
aI3
aa(lp326
I12
aI2
aI3
aa(lp327
I-3
aI-3
aI3
aa(lp328
I10
aI14
aI3
aa(lp329
I-15
aI16
aI3
aa(lp330
I5
aI10
aI3
aa(lp331
I-1
aI-19
aI3
aa(lp332
I-17
aI10
aI3
aa(lp333
I9
aI0
aI3
aa(lp334
I8
aI6
aI3
aa(lp335
I10
aI11
aI3
aa(lp336
I-18
aI-9
aI3
aa(lp337
I1
aI5
aI3
aa(lp338
I-9
aI9
aI3
aa(lp339
I18
aI6
aI3
aa(lp340
I13
aI2
aI3
aa(lp341
I21
aI1
aI3
aa(lp342
I17
aI4
aI3
aa(lp343
I-12
aI6
aI3
aa(lp344
I10
aI20
aI3
aa(lp345
I-12
aI-1
aI3
aa(lp346
I0
aI-5
aI3
aa(lp347
I5
aI17
aI3
aa(lp348
I-14
aI-10
aI3
aa(lp349
I-4
aI1
aI3
aa(lp350
I20
aI-13
aI3
aa(lp351
I-7
aI9
aI3
aa(lp352
I-16
aI2
aI3
aa(lp353
I-7
aI-11
aI3
aa(lp354
I3
aI7
aI3
aa(lp355
I-8
aI18
aI3
aa(lp356
I19
aI3
aI3
aa(lp357
I-6
aI12
aI3
aa(lp358
I14
aI1
aI3
aa(lp359
I-3
aI2
aI3
aa(lp360
I-7
aI-7
aI3
aa(lp361
I-7
aI-17
aI3
aa(lp362
I-21
aI-11
aI3
aa(lp363
I-7
aI-18
aI3
aa(lp364
I-17
aI15
aI3
aa(lp365
I15
aI21
aI3
aa(lp366
I-11
aI-4
aI3
aa(lp367
I-17
aI-12
aI3
aa(lp368
I-12
aI9
aI3
aa(lp369
I4
aI2
aI3
aa(lp370
I-16
aI5
aI3
aa(lp371
I1
aI-8
aI3
aa(lp372
I-16
aI-4
aI3
aa(lp373
I1
aI0
aI3
aa(lp374
I18
aI-11
aI3
aa(lp375
I-1
aI-14
aI3
aa(lp376
I-8
aI9
aI3
aa(lp377
I-10
aI19
aI3
aa(lp378
I-5
aI11
aI3
aa(lp379
I13
aI0
aI3
aa(lp380
I20
aI-9
aI3
aa(lp381
I-18
aI-2
aI3
aa(lp382
I12
aI-18
aI3
aa(lp383
I5
aI3
aI3
aa(lp384
I2
aI-15
aI3
aa(lp385
I2
aI-21
aI3
aa(lp386
I10
aI8
aI3
aa(lp387
I-19
aI-1
aI3
aa(lp388
I-9
aI7
aI3
aa(lp389
I21
aI5
aI3
aa(lp390
I19
aI-3
aI3
aa(lp391
I10
aI21
aI3
aa(lp392
I-13
aI1
aI3
aa(lp393
I19
aI-8
aI3
aa(lp394
I4
aI-14
aI3
aa(lp395
I18
aI-12
aI3
aa(lp396
I-9
aI10
aI3
aa(lp397
I-16
aI-3
aI3
aa(lp398
I2
aI8
aI3
aa(lp399
I-11
aI18
aI3
aa(lp400
I18
aI1
aI3
aa(lp401
I-22
aI1
aI3
aa(lp402
I7
aI18
aI3
aa(lp403
I12
aI-19
aI4
aa(lp404
I7
aI4
aI4
aa(lp405
I9
aI-3
aI4
aa(lp406
I7
aI9
aI4
aa(lp407
I-10
aI-17
aI4
aa(lp408
I9
aI15
aI4
aa(lp409
I-7
aI0
aI4
aa(lp410
I-8
aI-18
aI4
aa(lp411
I-16
aI15
aI4
aa(lp412
I2
aI9
aI4
aa(lp413
I14
aI-11
aI4
aa(lp414
I-11
aI-1
aI4
aa(lp415
I0
aI4
aI4
aa(lp416
I-6
aI0
aI4
aa(lp417
I-12
aI8
aI4
aa(lp418
I4
aI-6
aI4
aa(lp419
I2
aI3
aI4
aa(lp420
I2
aI11
aI4
aa(lp421
I-3
aI-8
aI4
aa(lp422
I-11
aI3
aI4
aa(lp423
I9
aI18
aI4
aa(lp424
I0
aI-4
aI4
aa(lp425
I-15
aI1
aI4
aa(lp426
I19
aI-10
aI4
aa(lp427
I14
aI-6
aI4
aa(lp428
I-13
aI-5
aI4
aa(lp429
I-13
aI-18
aI4
aa(lp430
I-11
aI4
aI4
aa(lp431
I-6
aI8
aI4
aa(lp432
I-3
aI19
aI4
aa(lp433
I21
aI2
aI4
aa(lp434
I-15
aI5
aI4
aa(lp435
I18
aI3
aI4
aa(lp436
I-13
aI-10
aI4
aa(lp437
I2
aI-17
aI4
aa(lp438
I-9
aI-9
aI4
aa(lp439
I-1
aI2
aI4
aa(lp440
I11
aI3
aI4
aa(lp441
I-2
aI-1
aI4
aa(lp442
I6
aI9
aI4
aa(lp443
I7
aI11
aI4
aa(lp444
I-5
aI-2
aI4
aa(lp445
I4
aI11
aI4
aa(lp446
I5
aI0
aI4
aa(lp447
I16
aI18
aI4
aa(lp448
I-1
aI5
aI4
aa(lp449
I-21
aI0
aI4
aa(lp450
I-10
aI7
aI4
aa(lp451
I-18
aI7
aI4
aa(lp452
I-3
aI-11
aI4
aa(lp453
I18
aI-1
aI4
aa(lp454
I-11
aI5
aI4
aa(lp455
I-14
aI-1
aI4
aa(lp456
I2
aI2
aI4
aa(lp457
I16
aI-8
aI4
aa(lp458
I25
aI-15
aI4
aa(lp459
I-6
aI10
aI4
aa(lp460
I-14
aI7
aI4
aa(lp461
I-8
aI-3
aI4
aa(lp462
I11
aI1
aI4
aa(lp463
I-18
aI2
aI4
aa(lp464
I17
aI21
aI4
aa(lp465
I-17
aI6
aI4
aa(lp466
I-10
aI-3
aI4
aa(lp467
I-4
aI2
aI4
aa(lp468
I18
aI8
aI4
aa(lp469
I10
aI-1
aI4
aa(lp470
I1
aI11
aI4
aa(lp471
I-15
aI2
aI4
aa(lp472
I-10
aI16
aI4
aa(lp473
I3
aI-15
aI4
aa(lp474
I-16
aI-13
aI4
aa(lp475
I21
aI3
aI4
aa(lp476
I-15
aI-8
aI4
aa(lp477
I20
aI-10
aI4
aa(lp478
I14
aI-21
aI4
aa(lp479
I5
aI7
aI4
aa(lp480
I1
aI-19
aI4
aa(lp481
I19
aI-18
aI4
aa(lp482
I9
aI11
aI4
aa(lp483
I-13
aI18
aI4
aa(lp484
I-19
aI9
aI4
aa(lp485
I9
aI8
aI4
aa(lp486
I10
aI10
aI4
aa(lp487
I-16
aI-10
aI4
aa(lp488
I-20
aI-2
aI4
aa(lp489
I20
aI4
aI4
aa(lp490
I18
aI-2
aI4
aa(lp491
I9
aI22
aI4
aa(lp492
I-2
aI-13
aI4
aa(lp493
I-7
aI-13
aI4
aa(lp494
I-11
aI10
aI4
aa(lp495
I-9
aI-1
aI4
aa(lp496
I2
aI22
aI4
aa(lp497
I15
aI-20
aI4
aa(lp498
I15
aI-16
aI4
aa(lp499
I0
aI-1
aI4
aa(lp500
I-12
aI-18
aI4
aa(lp501
I7
aI10
aI4
aa(lp502
I4
aI-16
aI4
aa(lp503
I13
aI17
aI4
aa(lp504
I14
aI-9
aI4
aa(lp505
I13
aI14
aI4
aa(lp506
I-14
aI-2
aI4
aa(lp507
I11
aI-16
aI4
aa(lp508
I2
aI-13
aI4
aa(lp509
I14
aI-4
aI4
aa(lp510
I-16
aI-19
aI4
aa(lp511
I-7
aI-15
aI4
aa(lp512
I1
aI-9
aI4
aa(lp513
I13
aI-1
aI4
aa(lp514
I-12
aI-8
aI4
aa(lp515
I-6
aI-4
aI4
aa(lp516
I20
aI-11
aI4
aa(lp517
I-12
aI-13
aI4
aa(lp518
I-2
aI2
aI4
aa(lp519
I-2
aI-2
aI4
aa(lp520
I10
aI16
aI4
aa(lp521
I-15
aI17
aI4
aa(lp522
I4
aI9
aI4
aa(lp523
I-1
aI-20
aI4
aa(lp524
I8
aI5
aI4
aa(lp525
I10
aI12
aI4
aa(lp526
I-10
aI10
aI4
aa(lp527
I13
aI3
aI4
aa(lp528
I22
aI1
aI4
aa(lp529
I-12
aI7
aI4
aa(lp530
I10
aI19
aI4
aa(lp531
I-13
aI-1
aI4
aa(lp532
I2
aI-5
aI4
aa(lp533
I5
aI18
aI4
aa(lp534
I-15
aI-10
aI4
aa(lp535
I-4
aI0
aI4
aa(lp536
I20
aI-14
aI4
aa(lp537
I-15
aI3
aI4
aa(lp538
I-7
aI-12
aI4
aa(lp539
I-8
aI19
aI4
aa(lp540
I-6
aI-16
aI4
aa(lp541
I-10
aI-4
aI4
aa(lp542
I-16
aI6
aI4
aa(lp543
I2
aI-8
aI4
aa(lp544
I-15
aI-4
aI4
aa(lp545
I-11
aI20
aI4
aa(lp546
I-4
aI11
aI4
aa(lp547
I22
aI-9
aI4
aa(lp548
I-17
aI-2
aI4
aa(lp549
I11
aI-18
aI4
aa(lp550
I6
aI3
aI4
aa(lp551
I1
aI-21
aI4
aa(lp552
I10
aI7
aI4
aa(lp553
I21
aI6
aI4
aa(lp554
I-13
aI0
aI4
aa(lp555
I4
aI-17
aI4
aa(lp556
I-17
aI-4
aI4
aa(lp557
I-2
aI-7
aI5
aa(lp558
I8
aI-1
aI5
aa(lp559
I-6
aI-8
aI5
aa(lp560
I19
aI-19
aI5
aa(lp561
I-18
aI-13
aI5
aa(lp562
I-7
aI-2
aI5
aa(lp563
I-15
aI13
aI5
aa(lp564
I7
aI14
aI5
aa(lp565
I-15
aI9
aI5
aa(lp566
I5
aI-2
aI5
aa(lp567
I13
aI-13
aI5
aa(lp568
I12
aI14
aI5
aa(lp569
I-8
aI2
aI5
aa(lp570
I16
aI7
aI5
aa(lp571
I-13
aI-13
aI5
aa(lp572
I3
aI-7
aI5
aa(lp573
I-18
aI8
aI5
aa(lp574
I-2
aI7
aI5
aa(lp575
I-10
aI18
aI5
aa(lp576
I-11
aI1
aI5
aa(lp577
I-16
aI-6
aI5
aa(lp578
I15
aI-6
aI5
aa(lp579
I21
aI-18
aI5
aa(lp580
I-8
aI7
aI5
aa(lp581
I-9
aI-12
aI5
aa(lp582
I-13
aI11
aI5
aa(lp583
I3
aI-6
aI5
aa(lp584
I-14
aI5
aI5
aa(lp585
I-11
aI-10
aI5
aa(lp586
I-9
aI-5
aI5
aa(lp587
I-23
aI4
aI5
aa(lp588
I-11
aI-11
aI5
aa(lp589
I-20
aI-11
aI5
aa(lp590
I18
aI-17
aI5
aa(lp591
I10
aI2
aI5
aa(lp592
I-5
aI-7
aI5
aa(lp593
I6
aI0
aI5
aa(lp594
I5
aI8
aI5
aa(lp595
I-8
aI-16
aI5
aa(lp596
I0
aI-20
aI5
aa(lp597
I3
aI-1
aI5
aa(lp598
I12
aI12
aI5
aa(lp599
I-12
aI-11
aI5
aa(lp600
I-1
aI8
aI5
aa(lp601
I-4
aI-10
aI5
aa(lp602
I-12
aI17
aI5
aa(lp603
I-12
aI1
aI5
aa(lp604
I1
aI-2
aI5
aa(lp605
I-14
aI1
aI5
aa(lp606
I6
aI1
aI5
aa(lp607
I4
aI-12
aI5
aa(lp608
I7
aI17
aI5
aa(lp609
I17
aI0
aI5
aa(lp610
I20
aI-16
aI5
aa(lp611
I-1
aI-11
aI5
aa(lp612
I-8
aI11
aI5
aa(lp613
I-7
aI-10
aI5
aa(lp614
I3
aI5
aI5
aa(lp615
I14
aI7
aI5
aa(lp616
I-8
aI16
aI5
aa(lp617
I20
aI2
aI5
aa(lp618
I-8
aI13
aI5
aa(lp619
I15
aI-18
aI5
aa(lp620
I-2
aI-4
aI5
aa(lp621
I-21
aI-12
aI5
aa(lp622
I-16
aI14
aI5
aa(lp623
I-17
aI8
aI5
aa(lp624
I15
aI18
aI5
aa(lp625
I16
aI14
aI5
aa(lp626
I-10
aI9
aI5
aa(lp627
I-10
aI-13
aI5
aa(lp628
I3
aI4
aI5
aa(lp629
I-19
aI5
aI5
aa(lp630
I-3
aI11
aI5
aa(lp631
I-11
aI15
aI5
aa(lp632
I16
aI-4
aI5
aa(lp633
I3
aI-17
aI5
aa(lp634
I-9
aI3
aI5
aa(lp635
I-17
aI-13
aI5
aa(lp636
I17
aI-11
aI5
aa(lp637
I0
aI-11
aI5
aa(lp638
I4
aI5
aI5
aa(lp639
I14
aI3
aI5
aa(lp640
I-5
aI20
aI5
aa(lp641
I-17
aI-1
aI5
aa(lp642
I6
aI6
aI5
aa(lp643
I7
aI13
aI5
aa(lp644
I-14
aI17
aI5
aa(lp645
I17
aI16
aI5
aa(lp646
I8
aI9
aI5
aa(lp647
I9
aI9
aI5
aa(lp648
I8
aI21
aI5
aa(lp649
I-14
aI19
aI5
aa(lp650
I-2
aI-21
aI5
aa(lp651
I-13
aI9
aI5
aa(lp652
I-9
aI16
aI5
aa(lp653
I-3
aI-7
aI5
aa(lp654
I16
aI-19
aI5
aa(lp655
I-10
aI-18
aI5
aa(lp656
I-7
aI-16
aI5
aa(lp657
I-1
aI9
aI5
aa(lp658
I2
aI-18
aI5
aa(lp659
I6
aI4
aI5
aa(lp660
I12
aI16
aI5
aa(lp661
I14
aI14
aI5
aa(lp662
I-13
aI8
aI5
aa(lp663
I-5
aI-9
aI5
aa(lp664
I-10
aI1
aI5
aa(lp665
I10
aI-17
aI5
aa(lp666
I1
aI-11
aI5
aa(lp667
I-8
aI4
aI5
aa(lp668
I19
aI-15
aI5
aa(lp669
I0
aI-6
aI5
aa(lp670
I15
aI-2
aI5
aa(lp671
I-5
aI-6
aI5
aa(lp672
I-19
aI-9
aI5
aa(lp673
I12
aI3
aI5
aa(lp674
I-3
aI-5
aI5
aa(lp675
I10
aI15
aI5
aa(lp676
I-2
aI-17
aI5
aa(lp677
I-19
aI10
aI5
aa(lp678
I9
aI6
aI5
aa(lp679
I14
aI2
aI5
aa(lp680
I5
aI16
aI5
aa(lp681
I21
aI-13
aI5
aa(lp682
I-17
aI16
aI5
aa(lp683
I15
aI22
aI5
aa(lp684
I7
aI2
aI5
aa(lp685
I17
aI-13
aI5
aa(lp686
I-3
aI-14
aI5
aa(lp687
I13
aI1
aI5
aa(lp688
I20
aI-8
aI5
aa(lp689
I5
aI2
aI5
aa(lp690
I2
aI-20
aI5
aa(lp691
I11
aI8
aI5
aa(lp692
I-8
aI6
aI5
aa(lp693
I11
aI21
aI5
aa(lp694
I8
aI17
aI5
aa(lp695
I8
aI-3
aI5
aa(lp696
I-10
aI-1
aI5
aa(lp697
I-1
aI4
aI5
aa(lp698
I6
aI-7
aI5
aa(lp699
I1
aI3
aI5
aa(lp700
I3
aI11
aI5
aa(lp701
I-19
aI-2
aI5
aa(lp702
I-13
aI-19
aI5
aa(lp703
I-6
aI9
aI5
aa(lp704
I-3
aI20
aI5
aa(lp705
I-15
aI4
aI5
aa(lp706
I-13
aI-9
aI5
aa(lp707
I-10
aI-9
aI5
aa(lp708
I-1
aI1
aI5
aa(lp709
I-1
aI-1
aI5
aa(lp710
I-5
aI-1
aI5
aa(lp711
I5
aI11
aI5
aa(lp712
I18
aI-4
aI5
aa(lp713
I24
aI-15
aI5
aa(lp714
I-8
aI0
aI5
aa(lp715
I-19
aI2
aI5
aa(lp716
I17
aI20
aI5
aa(lp717
I-5
aI3
aI5
aa(lp718
I19
aI8
aI5
aa(lp719
I11
aI-1
aI5
aa(lp720
I-16
aI-8
aI5
aa(lp721
I9
aI12
aI5
aa(lp722
I-14
aI18
aI5
aa(lp723
I-19
aI8
aI5
aa(lp724
I9
aI7
aI5
aa(lp725
I-20
aI-3
aI5
aa(lp726
I17
aI-2
aI5
aa(lp727
I12
aI17
aI5
aa(lp728
I15
aI-9
aI5
aa(lp729
I14
aI-3
aI5
aa(lp730
I-17
aI-19
aI5
aa(lp731
I2
aI-9
aI5
aa(lp732
I12
aI-2
aI5
aa(lp733
I-12
aI-7
aI5
aa(lp734
I-12
aI-14
aI5
aa(lp735
I11
aI16
aI5
aa(lp736
I11
aI12
aI5
aa(lp737
I-11
aI7
aI5
aa(lp738
I1
aI-7
aI5
aa(lp739
I-6
aI-17
aI5
aa(lp740
I3
aI-11
aI5
aa(lp741
I-14
aI-4
aI5
aa(lp742
I-11
aI19
aI5
aa(lp743
I21
aI-8
aI5
aa(lp744
I0
aI-21
aI5
aa(lp745
I20
aI6
aI5
aa(lp746
I6
aI5
aI6
aa(lp747
I0
aI-13
aI6
aa(lp748
I-4
aI-18
aI6
aa(lp749
I-1
aI-18
aI6
aa(lp750
I0
aI-17
aI6
aa(lp751
I13
aI15
aI6
aa(lp752
I3
aI-9
aI6
aa(lp753
I-12
aI3
aI6
aa(lp754
I-1
aI-9
aI6
aa(lp755
I8
aI20
aI6
aa(lp756
I-15
aI-1
aI6
aa(lp757
I-7
aI19
aI6
aa(lp758
I20
aI0
aI6
aa(lp759
I-15
aI-20
aI6
aa(lp760
I-6
aI-3
aI6
aa(lp761
I-10
aI-11
aI6
aa(lp762
I-9
aI20
aI6
aa(lp763
I2
aI-7
aI6
aa(lp764
I-8
aI-6
aI6
aa(lp765
I1
aI1
aI6
aa(lp766
I1
aI-13
aI6
aa(lp767
I16
aI-18
aI6
aa(lp768
I19
aI6
aI6
aa(lp769
I-4
aI-11
aI6
aa(lp770
I15
aI5
aI6
aa(lp771
I9
aI17
aI6
aa(lp772
I-6
aI-11
aI6
aa(lp773
I19
aI-4
aI6
aa(lp774
I-7
aI13
aI6
aa(lp775
I16
aI1
aI6
aa(lp776
I-17
aI3
aI6
aa(lp777
I-3
aI0
aI6
aa(lp778
I17
aI-20
aI6
aa(lp779
I-17
aI12
aI6
aa(lp780
I16
aI20
aI6
aa(lp781
I17
aI9
aI6
aa(lp782
I16
aI6
aI6
aa(lp783
I-9
aI15
aI6
aa(lp784
I14
aI-15
aI6
aa(lp785
I19
aI-11
aI6
aa(lp786
I-13
aI19
aI6
aa(lp787
I-13
aI3
aI6
aa(lp788
I-3
aI-12
aI6
aa(lp789
I-16
aI-1
aI6
aa(lp790
I-9
aI-14
aI6
aa(lp791
I-12
aI10
aI6
aa(lp792
I14
aI-2
aI6
aa(lp793
I-4
aI-16
aI6
aa(lp794
I8
aI11
aI6
aa(lp795
I2
aI10
aI6
aa(lp796
I13
aI12
aI6
aa(lp797
I-13
aI6
aI6
aa(lp798
I-9
aI2
aI6
aa(lp799
I5
aI1
aI6
aa(lp800
I20
aI-6
aI6
aa(lp801
I-15
aI-18
aI6
aa(lp802
I-6
aI5
aI6
aa(lp803
I-15
aI12
aI6
aa(lp804
I-14
aI15
aI6
aa(lp805
I-10
aI-12
aI6
aa(lp806
I6
aI11
aI6
aa(lp807
I11
aI20
aI6
aa(lp808
I-7
aI20
aI6
aa(lp809
I-3
aI3
aI6
aa(lp810
I-22
aI-11
aI6
aa(lp811
I16
aI22
aI6
aa(lp812
I-7
aI-3
aI6
aa(lp813
I-17
aI-5
aI6
aa(lp814
I4
aI3
aI6
aa(lp815
I20
aI-7
aI6
aa(lp816
I-22
aI0
aI6
aa(lp817
I11
aI-19
aI6
aa(lp818
I9
aI-4
aI6
aa(lp819
I15
aI-12
aI6
aa(lp820
I5
aI-6
aI6
aa(lp821
I2
aI12
aI6
aa(lp822
I-12
aI-16
aI6
aa(lp823
I-2
aI19
aI6
aa(lp824
I-6
aI-2
aI6
aa(lp825
I-24
aI4
aI6
aa(lp826
I-19
aI7
aI6
aa(lp827
I-5
aI10
aI6
aa(lp828
I-14
aI8
aI6
aa(lp829
I-18
aI6
aI6
aa(lp830
I-10
aI-2
aI6
aa(lp831
I18
aI11
aI6
aa(lp832
I3
aI-14
aI6
aa(lp833
I-14
aI-8
aI6
aa(lp834
I21
aI-10
aI6
aa(lp835
I14
aI-20
aI6
aa(lp836
I-18
aI10
aI6
aa(lp837
I-16
aI-11
aI6
aa(lp838
I-18
aI-6
aI6
aa(lp839
I8
aI22
aI6
aa(lp840
I-4
aI-13
aI6
aa(lp841
I-11
aI11
aI6
aa(lp842
I0
aI24
aI6
aa(lp843
I17
aI-16
aI6
aa(lp844
I-12
aI-17
aI6
aa(lp845
I4
aI-15
aI6
aa(lp846
I15
aI-8
aI6
aa(lp847
I10
aI-16
aI6
aa(lp848
I1
aI-10
aI6
aa(lp849
I-5
aI-3
aI6
aa(lp850
I-2
aI3
aI6
aa(lp851
I10
aI13
aI6
aa(lp852
I23
aI1
aI6
aa(lp853
I-15
aI-9
aI6
aa(lp854
I-8
aI20
aI6
aa(lp855
I-10
aI-5
aI6
aa(lp856
I-15
aI-3
aI6
aa(lp857
I-13
aI20
aI6
aa(lp858
I22
aI-10
aI6
aa(lp859
I11
aI-21
aI6
aa(lp860
I5
aI4
aI6
aa(lp861
I1
aI-22
aI6
aa(lp862
I21
aI8
aI6
aa(lp863
I-5
aI-8
aI6
aa(lp864
I17
aI-21
aI6
aa(lp865
I-19
aI-13
aI6
aa(lp866
I-14
aI13
aI6
aa(lp867
I7
aI15
aI6
aa(lp868
I14
aI-12
aI6
aa(lp869
I-8
aI1
aI6
aa(lp870
I-13
aI-14
aI6
aa(lp871
I-2
aI6
aI6
aa(lp872
I22
aI-19
aI6
aa(lp873
I-7
aI6
aI6
aa(lp874
I-13
aI12
aI6
aa(lp875
I-11
aI-9
aI6
aa(lp876
I10
aI3
aI6
aa(lp877
I-4
aI-8
aI6
aa(lp878
I7
aI0
aI6
aa(lp879
I4
aI8
aI6
aa(lp880
I2
aI-1
aI6
aa(lp881
I12
aI11
aI6
aa(lp882
I-19
aI-16
aI6
aa(lp883
I0
aI8
aI6
aa(lp884
I2
aI-2
aI6
aa(lp885
I4
aI-10
aI6
aa(lp886
I17
aI-1
aI6
aa(lp887
I-1
aI-10
aI6
aa(lp888
I-6
aI-10
aI6
aa(lp889
I15
aI7
aI6
aa(lp890
I-3
aI-4
aI6
aa(lp891
I-15
aI14
aI6
aa(lp892
I16
aI13
aI6
aa(lp893
I-10
aI-14
aI6
aa(lp894
I-3
aI12
aI6
aa(lp895
I16
aI-3
aI6
aa(lp896
I3
aI-18
aI6
aa(lp897
I18
aI16
aI6
aa(lp898
I-1
aI-22
aI6
aa(lp899
I17
aI-19
aI6
aa(lp900
I5
aI-17
aI6
aa(lp901
I12
aI15
aI6
aa(lp902
I9
aI-17
aI6
aa(lp903
I-2
aI-5
aI6
aa(lp904
I11
aI15
aI6
aa(lp905
I7
aI16
aI6
aa(lp906
I23
aI-14
aI6
aa(lp907
I7
aI1
aI6
aa(lp908
I17
aI-14
aI6
aa(lp909
I-4
aI-14
aI6
aa(lp910
I11
aI7
aI6
aa(lp911
I-11
aI0
aI6
aa(lp912
I6
aI-8
aI6
aa(lp913
I1
aI2
aI6
aa(lp914
I-14
aI-19
aI6
aa(lp915
I-3
aI21
aI6
aa(lp916
I-2
aI1
aI6
aa(lp917
I5
aI12
aI6
aa(lp918
I-9
aI0
aI6
aa(lp919
I-21
aI1
aI6
aa(lp920
I17
aI19
aI6
aa(lp921
I19
aI7
aI6
aa(lp922
I-17
aI-8
aI6
aa(lp923
I-19
aI6
aI6
aa(lp924
I13
aI-3
aI6
aa(lp925
I-13
aI-8
aI6
aa(lp926
I11
aI19
aI6
aa(lp927
I-6
aI-15
aI6
aa(lp928
I4
aI-11
aI6
aa(lp929
I20
aI7
aI6
aa(lp930
I7
aI-2
aI7
aa(lp931
I15
aI-15
aI7
aa(lp932
I-2
aI-14
aI7
aa(lp933
I-7
aI1
aI7
aa(lp934
I1
aI6
aI7
aa(lp935
I9
aI1
aI7
aa(lp936
I4
aI-8
aI7
aa(lp937
I1
aI4
aI7
aa(lp938
I-18
aI5
aI7
aa(lp939
I25
aI0
aI7
aa(lp940
I17
aI-22
aI7
aa(lp941
I-17
aI2
aI7
aa(lp942
I-4
aI18
aI7
aa(lp943
I16
aI0
aI7
aa(lp944
I0
aI3
aI7
aa(lp945
I17
aI-17
aI7
aa(lp946
I-10
aI-16
aI7
aa(lp947
I-7
aI2
aI7
aa(lp948
I-22
aI-1
aI7
aa(lp949
I-8
aI12
aI7
aa(lp950
I-2
aI-19
aI7
aa(lp951
I14
aI17
aI7
aa(lp952
I-7
aI4
aI7
aa(lp953
I-12
aI14
aI7
aa(lp954
I21
aI-9
aI7
aa(lp955
I8
aI12
aI7
aa(lp956
I-1
aI12
aI7
aa(lp957
I20
aI-2
aI7
aa(lp958
I10
aI22
aI7
aa(lp959
I-12
aI20
aI7
aa(lp960
I1
aI8
aI7
aa(lp961
I15
aI13
aI7
aa(lp962
I15
aI14
aI7
aa(lp963
I-2
aI-9
aI7
aa(lp964
I18
aI-6
aI7
aa(lp965
I-16
aI-17
aI7
aa(lp966
I-13
aI-4
aI7
aa(lp967
I-17
aI11
aI7
aa(lp968
I9
aI-1
aI7
aa(lp969
I-18
aI-8
aI7
aa(lp970
I4
aI17
aI7
aa(lp971
I-7
aI-9
aI7
aa(lp972
I-21
aI-10
aI7
aa(lp973
I3
aI-10
aI7
aa(lp974
I22
aI5
aI7
aa(lp975
I5
aI-14
aI7
aa(lp976
I-9
aI11
aI7
aa(lp977
I2
aI6
aI7
aa(lp978
I20
aI1
aI7
aa(lp979
I10
aI-3
aI7
aa(lp980
I8
aI15
aI7
aa(lp981
I-16
aI16
aI7
aa(lp982
I-1
aI3
aI7
aa(lp983
I4
aI-7
aI7
aa(lp984
I0
aI-3
aI7
aa(lp985
I13
aI-6
aI7
aa(lp986
I-6
aI7
aI7
aa(lp987
I11
aI4
aI7
aa(lp988
I-3
aI-1
aI7
aa(lp989
I-4
aI-2
aI7
aa(lp990
I-1
aI6
aI7
aa(lp991
I-21
aI-1
aI7
aa(lp992
I-3
aI-13
aI7
aa(lp993
I16
aI23
aI7
aa(lp994
I10
aI-2
aI7
aa(lp995
I1
aI10
aI7
aa(lp996
I20
aI-19
aI7
aa(lp997
I9
aI10
aI7
aa(lp998
I-15
aI-11
aI7
aa(lp999
I21
aI4
aI7
aa(lp1000
I-5
aI-10
aI7
aa(lp1001
I3
aI22
aI7
aa(lp1002
I16
aI-20
aI7
aa(lp1003
I13
aI-9
aI7
aa(lp1004
I-14
aI-3
aI7
aa(lp1005
I-1
aI-2
aI7
aa(lp1006
I-15
aI18
aI7
aa(lp1007
I-2
aI-20
aI7
aa(lp1008
I25
aI2
aI7
aa(lp1009
I12
aI9
aI7
aa(lp1010
I21
aI-14
aI7
aa(lp1011
I-16
aI3
aI7
aa(lp1012
I-6
aI-12
aI7
aa(lp1013
I-10
aI20
aI7
aa(lp1014
I-18
aI-4
aI7
aa(lp1015
I7
aI3
aI7
aa(lp1016
I9
aI-2
aI7
aa(lp1017
I-9
aI-8
aI7
aa(lp1018
I-9
aI14
aI7
aa(lp1019
I10
aI-14
aI7
aa(lp1020
I-2
aI8
aI7
aa(lp1021
I20
aI-18
aI7
aa(lp1022
I-14
aI9
aI7
aa(lp1023
I-10
aI-10
aI7
aa(lp1024
I-23
aI3
aI7
aa(lp1025
I-1
aI7
aI7
aa(lp1026
I-2
aI-10
aI7
aa(lp1027
I3
aI-3
aI7
aa(lp1028
I20
aI-15
aI7
aa(lp1029
I14
aI6
aI7
aa(lp1030
I-9
aI13
aI7
aa(lp1031
I-20
aI-10
aI7
aa(lp1032
I4
aI4
aI7
aa(lp1033
I-2
aI10
aI7
aa(lp1034
I17
aI15
aI7
aa(lp1035
I-15
aI19
aI7
aa(lp1036
I-2
aI-22
aI7
aa(lp1037
I-4
aI-7
aI7
aa(lp1038
I14
aI13
aI7
aa(lp1039
I-6
aI-9
aI7
aa(lp1040
I10
aI-19
aI7
aa(lp1041
I-1
aI-6
aI7
aa(lp1042
I-5
aI-5
aI7
aa(lp1043
I-4
aI-5
aI7
aa(lp1044
I-2
aI-16
aI7
aa(lp1045
I10
aI6
aI7
aa(lp1046
I5
aI15
aI7
aa(lp1047
I-17
aI17
aI7
aa(lp1048
I6
aI2
aI7
aa(lp1049
I-9
aI6
aI7
aa(lp1050
I12
aI21
aI7
aa(lp1051
I8
aI16
aI7
aa(lp1052
I7
aI-7
aI7
aa(lp1053
I-13
aI-20
aI7
aa(lp1054
I17
aI-4
aI7
aa(lp1055
I24
aI-14
aI7
aa(lp1056
I-20
aI2
aI7
aa(lp1057
I18
aI20
aI7
aa(lp1058
I20
aI8
aI7
aa(lp1059
I-16
aI9
aI7
aa(lp1060
I13
aI5
aI7
aa(lp1061
I16
aI-2
aI7
aa(lp1062
I-17
aI-18
aI7
aa(lp1063
I12
aI-3
aI7
aa(lp1064
I11
aI18
aI7
aa(lp1065
I0
aI-7
aI7
aa(lp1066
I23
aI-6
aI7
aa(lp1067
I-1
aI-21
aI7
aa(lp1068
I-1
aI-17
aI7
aa(lp1069
I7
aI20
aI7
aa(lp1070
I21
aI0
aI7
aa(lp1071
I-16
aI-20
aI7
aa(lp1072
I8
aI-22
aI7
aa(lp1073
I-8
aI-7
aI7
aa(lp1074
I16
aI-17
aI7
aa(lp1075
I-4
aI-12
aI7
aa(lp1076
I-5
aI-11
aI7
aa(lp1077
I-7
aI16
aI7
aa(lp1078
I-19
aI4
aI7
aa(lp1079
I18
aI-21
aI7
aa(lp1080
I16
aI10
aI7
aa(lp1081
I14
aI-14
aI7
aa(lp1082
I-8
aI-14
aI7
aa(lp1083
I21
aI-7
aI7
aa(lp1084
I-13
aI15
aI7
aa(lp1085
I6
aI10
aI7
aa(lp1086
I-23
aI-11
aI7
aa(lp1087
I17
aI22
aI7
aa(lp1088
I-18
aI-5
aI7
aa(lp1089
I-23
aI0
aI7
aa(lp1090
I10
aI-4
aI7
aa(lp1091
I16
aI-12
aI7
aa(lp1092
I-11
aI-15
aI7
aa(lp1093
I-2
aI20
aI7
aa(lp1094
I-24
aI5
aI7
aa(lp1095
I-5
aI9
aI7
aa(lp1096
I18
aI12
aI7
aa(lp1097
I21
aI-11
aI7
aa(lp1098
I-18
aI11
aI7
aa(lp1099
I3
aI27
aI7
aa(lp1100
I-5
aI-13
aI7
aa(lp1101
I-12
aI11
aI7
aa(lp1102
I13
aI-8
aI7
aa(lp1103
I2
aI-10
aI7
aa(lp1104
I-3
aI4
aI7
aa(lp1105
I23
aI2
aI7
aa(lp1106
I-16
aI-9
aI7
aa(lp1107
I-8
aI21
aI7
aa(lp1108
I-15
aI-2
aI7
aa(lp1109
I-13
aI21
aI7
aa(lp1110
I17
aI-23
aI7
aa(lp1111
I-20
aI-13
aI7
aa(lp1112
I13
aI-10
aI7
aa(lp1113
I-9
aI1
aI7
aa(lp1114
I22
aI-20
aI7
aa(lp1115
I-12
aI12
aI7
aa(lp1116
I9
aI3
aI7
aa(lp1117
I7
aI-1
aI7
aa(lp1118
I-19
aI-15
aI7
aa(lp1119
I-4
aI5
aI7
aa(lp1120
I15
aI12
aI7
aa(lp1121
I5
aI-18
aI7
aa(lp1122
I9
aI-18
aI7
aa(lp1123
I23
aI-13
aI7
aa(lp1124
I16
aI-14
aI7
aa(lp1125
I7
aI-8
aI7
aa(lp1126
I-14
aI-20
aI7
aa(lp1127
I-4
aI21
aI7
aa(lp1128
I4
aI12
aI7
aa(lp1129
I-20
aI1
aI7
aa(lp1130
I-11
aI-8
aI7
aa(lp1131
I5
aI-10
aI7
aa(lp1132
I-4
aI-17
aI8
aa(lp1133
I16
aI-11
aI8
aa(lp1134
I0
aI7
aI8
aa(lp1135
I15
aI8
aI8
aa(lp1136
I0
aI9
aI8
aa(lp1137
I13
aI-5
aI8
aa(lp1138
I5
aI19
aI8
aa(lp1139
I-10
aI5
aI8
aa(lp1140
I-9
aI-10
aI8
aa(lp1141
I5
aI6
aI8
aa(lp1142
I-17
aI0
aI8
aa(lp1143
I-20
aI6
aI8
aa(lp1144
I4
aI16
aI8
aa(lp1145
I-18
aI14
aI8
aa(lp1146
I13
aI-15
aI8
aa(lp1147
I13
aI-19
aI8
aa(lp1148
I-19
aI11
aI8
aa(lp1149
I6
aI19
aI8
aa(lp1150
I13
aI-20
aI8
aa(lp1151
I19
aI-7
aI8
aa(lp1152
I18
aI-14
aI8
aa(lp1153
I16
aI-1
aI8
aa(lp1154
I-11
aI-14
aI8
aa(lp1155
I-11
aI6
aI8
aa(lp1156
I-6
aI13
aI8
aa(lp1157
I-7
aI-22
aI8
aa(lp1158
I-18
aI15
aI8
aa(lp1159
I15
aI20
aI8
aa(lp1160
I3
aI-21
aI8
aa(lp1161
I1
aI9
aI8
aa(lp1162
I1
aI13
aI8
aa(lp1163
I-13
aI-6
aI8
aa(lp1164
I-14
aI-18
aI8
aa(lp1165
I-10
aI-8
aI8
aa(lp1166
I-2
aI4
aI8
aa(lp1167
I-21
aI-2
aI8
aa(lp1168
I23
aI-15
aI8
aa(lp1169
I-9
aI-4
aI8
aa(lp1170
I15
aI-21
aI8
aa(lp1171
I-7
aI-14
aI8
aa(lp1172
I2
aI21
aI8
aa(lp1173
I-11
aI-19
aI8
aa(lp1174
I3
aI-20
aI8
aa(lp1175
I14
aI-8
aI8
aa(lp1176
I9
aI16
aI8
aa(lp1177
I-16
aI17
aI8
aa(lp1178
I2
aI-4
aI8
aa(lp1179
I-7
aI17
aI8
aa(lp1180
I-4
aI10
aI8
aa(lp1181
I22
aI-8
aI8
aa(lp1182
I22
aI6
aI8
aa(lp1183
I12
aI-13
aI8
aa(lp1184
I-17
aI-6
aI8
aa(lp1185
I21
aI-19
aI8
aa(lp1186
I-14
aI4
aI8
aa(lp1187
I9
aI2
aI8
aa(lp1188
I5
aI9
aI8
aa(lp1189
I-9
aI-15
aI8
aa(lp1190
I4
aI-13
aI8
aa(lp1191
I14
aI8
aI8
aa(lp1192
I-23
aI-12
aI8
aa(lp1193
I13
aI19
aI8
aa(lp1194
I-6
aI20
aI8
aa(lp1195
I6
aI13
aI8
aa(lp1196
I-2
aI-6
aI8
aa(lp1197
I2
aI-19
aI8
aa(lp1198
I22
aI-15
aI8
aa(lp1199
I-20
aI9
aI8
aa(lp1200
I22
aI-13
aI8
aa(lp1201
I8
aI2
aI8
aa(lp1202
I13
aI8
aI8
aa(lp1203
I-8
aI5
aI8
aa(lp1204
I3
aI12
aI8
aa(lp1205
I-7
aI-4
aI8
aa(lp1206
I18
aI-5
aI8
aa(lp1207
I-19
aI3
aI8
aa(lp1208
I-20
aI-4
aI8
aa(lp1209
I16
aI-10
aI8
aa(lp1210
I11
aI-2
aI8
aa(lp1211
I-10
aI-7
aI8
aa(lp1212
I2
aI-11
aI8
aa(lp1213
I-1
aI-16
aI8
aa(lp1214
I1
aI-1
aI8
aa(lp1215
I20
aI-4
aI8
aa(lp1216
I17
aI1
aI8
aa(lp1217
I-17
aI4
aI8
aa(lp1218
I16
aI9
aI8
aa(lp1219
I13
aI10
aI8
aa(lp1220
I-6
aI6
aI8
aa(lp1221
I5
aI13
aI8
aa(lp1222
I-7
aI21
aI8
aa(lp1223
I-22
aI-13
aI8
aa(lp1224
I9
aI-5
aI8
aa(lp1225
I4
aI-5
aI8
aa(lp1226
I-12
aI-15
aI8
aa(lp1227
I-2
aI22
aI8
aa(lp1228
I-15
aI-7
aI8
aa(lp1229
I5
aI-15
aI8
aa(lp1230
I11
aI13
aI8
aa(lp1231
I-12
aI16
aI8
aa(lp1232
I11
aI-22
aI8
aa(lp1233
I0
aI-22
aI8
aa(lp1234
I22
aI8
aI8
aa(lp1235
I-3
aI9
aI8
aa(lp1236
I10
aI4
aI8
aa(lp1237
I3
aI-2
aI8
aa(lp1238
I4
aI-9
aI8
aa(lp1239
I15
aI6
aI8
aa(lp1240
I-4
aI-4
aI8
aa(lp1241
I16
aI12
aI8
aa(lp1242
I-9
aI-13
aI8
aa(lp1243
I18
aI17
aI8
aa(lp1244
I8
aI-17
aI8
aa(lp1245
I26
aI-16
aI8
aa(lp1246
I-5
aI-14
aI8
aa(lp1247
I18
aI7
aI8
aa(lp1248
I-17
aI-9
aI8
aa(lp1249
I17
aI-15
aI8
aa(lp1250
I-2
aI-15
aI8
aa(lp1251
I15
aI-22
aI8
aa(lp1252
I-23
aI-1
aI8
aa(lp1253
I-9
aI12
aI8
aa(lp1254
I-6
aI4
aI8
aa(lp1255
I21
aI-2
aI8
aa(lp1256
I-12
aI21
aI8
aa(lp1257
I-16
aI12
aI8
aa(lp1258
I-18
aI-7
aI8
aa(lp1259
I4
aI18
aI8
aa(lp1260
I23
aI5
aI8
aa(lp1261
I5
aI-13
aI8
aa(lp1262
I11
aI5
aI8
aa(lp1263
I-4
aI-1
aI8
aa(lp1264
I21
aI-17
aI8
aa(lp1265
I22
aI4
aI8
aa(lp1266
I24
aI2
aI8
aa(lp1267
I-5
aI-12
aI8
aa(lp1268
I-18
aI-3
aI8
aa(lp1269
I21
aI-16
aI8
aa(lp1270
I13
aI6
aI8
aa(lp1271
I-3
aI10
aI8
aa(lp1272
I18
aI15
aI8
aa(lp1273
I-7
aI-8
aI8
aa(lp1274
I9
aI-19
aI8
aa(lp1275
I-1
aI-5
aI8
aa(lp1276
I5
aI14
aI8
aa(lp1277
I-10
aI6
aI8
aa(lp1278
I13
aI21
aI8
aa(lp1279
I7
aI-3
aI8
aa(lp1280
I-13
aI-21
aI8
aa(lp1281
I17
aI-3
aI8
aa(lp1282
I-21
aI2
aI8
aa(lp1283
I-17
aI-17
aI8
aa(lp1284
I23
aI-5
aI8
aa(lp1285
I7
aI21
aI8
aa(lp1286
I7
aI-21
aI8
aa(lp1287
I-8
aI-8
aI8
aa(lp1288
I19
aI-21
aI8
aa(lp1289
I17
aI10
aI8
aa(lp1290
I14
aI-13
aI8
aa(lp1291
I-25
aI-13
aI8
aa(lp1292
I-19
aI-6
aI8
aa(lp1293
I11
aI-4
aI8
aa(lp1294
I0
aI20
aI8
aa(lp1295
I-24
aI6
aI8
aa(lp1296
I-4
aI9
aI8
aa(lp1297
I19
aI12
aI8
aa(lp1298
I21
aI-12
aI8
aa(lp1299
I12
aI-8
aI8
aa(lp1300
I23
aI3
aI8
aa(lp1301
I-9
aI21
aI8
aa(lp1302
I17
aI-24
aI8
aa(lp1303
I23
aI-20
aI8
aa(lp1304
I-19
aI-14
aI8
aa(lp1305
I-4
aI6
aI8
aa(lp1306
I9
aI-16
aI8
aa(lp1307
I22
aI-14
aI8
aa(lp1308
I16
aI-15
aI8
aa(lp1309
I12
aI-20
aI9
aa(lp1310
I17
aI-5
aI9
aa(lp1311
I20
aI-12
aI9
aa(lp1312
I-16
aI11
aI9
aa(lp1313
I14
aI-10
aI9
aa(lp1314
I19
aI-16
aI9
aa(lp1315
I-8
aI-15
aI9
aa(lp1316
I-4
aI7
aI9
aa(lp1317
I20
aI-1
aI9
aa(lp1318
I2
aI-3
aI9
aa(lp1319
I-18
aI12
aI9
aa(lp1320
I15
aI-4
aI9
aa(lp1321
I0
aI-15
aI9
aa(lp1322
I17
aI14
aI9
aa(lp1323
I11
aI9
aI9
aa(lp1324
I-14
aI20
aI9
aa(lp1325
I-5
aI-15
aI9
aa(lp1326
I19
aI15
aI9
aa(lp1327
I5
aI-16
aI9
aa(lp1328
I12
aI-4
aI9
aa(lp1329
I-9
aI5
aI9
aa(lp1330
I-16
aI10
aI9
aa(lp1331
I-12
aI0
aI9
aa(lp1332
I-5
aI12
aI9
aa(lp1333
I-21
aI-9
aI9
aa(lp1334
I-1
aI-15
aI9
aa(lp1335
I-5
aI15
aI9
aa(lp1336
I1
aI12
aI9
aa(lp1337
I4
aI-4
aI9
aa(lp1338
I-14
aI-5
aI9
aa(lp1339
I-2
aI18
aI9
aa(lp1340
I-2
aI5
aI9
aa(lp1341
I-21
aI-4
aI9
aa(lp1342
I-18
aI3
aI9
aa(lp1343
I-4
aI3
aI9
aa(lp1344
I3
aI-19
aI9
aa(lp1345
I1
aI22
aI9
aa(lp1346
I16
aI-21
aI9
aa(lp1347
I9
aI-15
aI9
aa(lp1348
I13
aI-2
aI9
aa(lp1349
I10
aI18
aI9
aa(lp1350
I3
aI-5
aI9
aa(lp1351
I-4
aI12
aI9
aa(lp1352
I-17
aI-3
aI9
aa(lp1353
I10
aI-18
aI9
aa(lp1354
I21
aI7
aI9
aa(lp1355
I4
aI-18
aI9
aa(lp1356
I4
aI-2
aI9
aa(lp1357
I11
aI10
aI9
aa(lp1358
I-15
aI-6
aI9
aa(lp1359
I-7
aI7
aI9
aa(lp1360
I-9
aI-3
aI9
aa(lp1361
I-22
aI4
aI9
aa(lp1362
I20
aI-17
aI9
aa(lp1363
I-22
aI-12
aI9
aa(lp1364
I-16
aI13
aI9
aa(lp1365
I-21
aI4
aI9
aa(lp1366
I-11
aI14
aI9
aa(lp1367
I16
aI-5
aI9
aa(lp1368
I-17
aI-14
aI9
aa(lp1369
I10
aI-11
aI9
aa(lp1370
I-11
aI-18
aI9
aa(lp1371
I18
aI-16
aI9
aa(lp1372
I-3
aI-6
aI9
aa(lp1373
I-4
aI-6
aI9
aa(lp1374
I-3
aI-18
aI9
aa(lp1375
I3
aI17
aI9
aa(lp1376
I14
aI22
aI9
aa(lp1377
I-12
aI-19
aI9
aa(lp1378
I-13
aI4
aI9
aa(lp1379
I24
aI-17
aI9
aa(lp1380
I-17
aI-20
aI9
aa(lp1381
I5
aI-11
aI9
aa(lp1382
I-19
aI12
aI9
aa(lp1383
I-10
aI15
aI9
aa(lp1384
I-4
aI-15
aI9
aa(lp1385
I14
aI12
aI9
aa(lp1386
I9
aI-20
aI9
aa(lp1387
I2
aI13
aI9
aa(lp1388
I-13
aI-16
aI9
aa(lp1389
I19
aI11
aI9
aa(lp1390
I-3
aI-16
aI9
aa(lp1391
I-11
aI-17
aI9
aa(lp1392
I1
aI-24
aI9
aa(lp1393
I-14
aI-15
aI9
aa(lp1394
I-7
aI5
aI9
aa(lp1395
I-13
aI13
aI9
aa(lp1396
I12
aI10
aI9
aa(lp1397
I-14
aI14
aI9
aa(lp1398
I15
aI-3
aI9
aa(lp1399
I8
aI-8
aI9
aa(lp1400
I6
aI12
aI9
aa(lp1401
I-10
aI0
aI9
aa(lp1402
I16
aI19
aI9
aa(lp1403
I24
aI0
aI9
aa(lp1404
I-3
aI18
aI9
aa(lp1405
I-22
aI-2
aI9
aa(lp1406
I14
aI18
aI9
aa(lp1407
I-11
aI13
aI9
aa(lp1408
I23
aI-9
aI9
aa(lp1409
I-19
aI-8
aI9
aa(lp1410
I11
aI-3
aI9
aa(lp1411
I13
aI-7
aI9
aa(lp1412
I9
aI4
aI9
aa(lp1413
I21
aI-21
aI9
aa(lp1414
I13
aI9
aI9
aa(lp1415
I-10
aI21
aI9
aa(lp1416
I13
aI7
aI9
aa(lp1417
I-22
aI-10
aI9
aa(lp1418
I-16
aI19
aI9
aa(lp1419
I4
aI15
aI9
aa(lp1420
I-17
aI18
aI9
aa(lp1421
I12
aI20
aI9
aa(lp1422
I7
aI-6
aI9
aa(lp1423
I24
aI-13
aI9
aa(lp1424
I18
aI21
aI9
aa(lp1425
I12
aI5
aI9
aa(lp1426
I13
aI-14
aI9
aa(lp1427
I-19
aI-5
aI9
aa(lp1428
I10
aI-6
aI9
aa(lp1429
I17
aI12
aI9
aa(lp1430
I-8
aI22
aI9
aa(lp1431
I-20
aI-15
aI9
aa(lp1432
I8
aI-18
aI9
aa(lp1433
I5
aI-9
aI9
aa(lp1434
I15
aI9
aI9
aa(lp1435
I-20
aI7
aI9
aa(lp1436
I-19
aI14
aI9
aa(lp1437
I18
aI-15
aI9
aa(lp1438
I-6
aI14
aI9
aa(lp1439
I-6
aI-22
aI9
aa(lp1440
I4
aI-21
aI9
aa(lp1441
I-19
aI-3
aI9
aa(lp1442
I23
aI-16
aI9
aa(lp1443
I-6
aI-14
aI9
aa(lp1444
I-10
aI-19
aI9
aa(lp1445
I4
aI-20
aI9
aa(lp1446
I23
aI-8
aI9
aa(lp1447
I23
aI6
aI9
aa(lp1448
I11
aI-13
aI9
aa(lp1449
I8
aI3
aI9
aa(lp1450
I-10
aI-15
aI9
aa(lp1451
I6
aI-13
aI9
aa(lp1452
I-24
aI-12
aI9
aa(lp1453
I13
aI20
aI9
aa(lp1454
I14
aI9
aI9
aa(lp1455
I13
aI11
aI9
aa(lp1456
I-5
aI6
aI9
aa(lp1457
I-21
aI-14
aI9
aa(lp1458
I0
aI23
aI9
aa(lp1459
I-12
aI13
aI9
aa(lp1460
I23
aI8
aI9
aa(lp1461
I9
aI-11
aI9
aa(lp1462
I3
aI18
aI9
aa(lp1463
I23
aI4
aI9
aa(lp1464
I7
aI22
aI9
aa(lp1465
I19
aI-20
aI9
aa(lp1466
I-29
aI-13
aI9
aa(lp1467
I-25
aI9
aI9
aa(lp1468
I-9
aI23
aI9
aa(lp1469
I18
aI-24
aI9
aa(lp1470
I23
aI-19
aI9
aa(lp1471
I-20
aI-14
aI9
aa(lp1472
I8
aI-16
aI9
aa(lp1473
I23
aI-11
aI9
aasS'pop'
p1474
(dp1475
I0
I101
sI1
I172
sI2
I269
sI3
I398
sI4
I552
sI5
I741
sI6
I925
sI7
I1127
sI8
I1304
sI9
I1469
ssS'params'
p1476
(F1.8
I10
tp1477
sS'max_r'
p1478
(dp1479
I0
F25.40308126181455
sI1
F25.123683367044894
sI2
F26.741662495790937
sI3
F25.66892262144525
sI4
F28.982029342977675
sI5
F28.215313621088
sI6
F28.834473179432763
sI7
F29.315888367039992
sI8
F29.780419797778045
sI9
F32.192983682730336
ssS'gens'
p1480
(lp1481
(lp1482
g5
ag6
ag7
ag8
ag9
ag10
ag11
ag12
ag13
ag14
ag15
ag16
ag17
ag18
ag19
ag20
ag21
ag22
ag23
ag24
ag25
ag26
ag27
ag28
ag29
ag30
ag31
ag32
ag33
ag34
ag35
ag36
ag37
ag38
ag39
ag40
ag41
ag42
ag43
ag44
ag45
ag46
ag47
ag48
ag49
ag50
ag51
ag52
ag53
ag54
ag55
ag56
ag57
ag58
ag59
ag60
ag61
ag62
ag63
ag64
ag65
ag66
ag67
ag68
ag69
ag70
ag71
ag72
ag73
ag74
ag75
ag76
ag77
ag78
ag79
ag80
ag81
ag82
ag83
ag84
ag85
ag86
ag87
ag88
ag89
ag90
ag91
ag92
ag93
ag94
ag95
ag96
ag97
ag98
ag99
ag100
ag101
ag102
ag103
ag104
ag105
aa(lp1483
g106
ag107
ag108
ag109
ag110
ag111
ag112
ag113
ag114
ag115
ag116
ag117
ag118
ag119
ag120
ag121
ag122
ag123
ag124
ag125
ag126
ag127
ag128
ag129
ag130
ag131
ag132
ag133
ag134
ag135
ag136
ag137
ag138
ag139
ag140
ag141
ag142
ag143
ag144
ag145
ag146
ag147
ag148
ag149
ag150
ag151
ag152
ag153
ag154
ag155
ag156
ag157
ag158
ag159
ag160
ag161
ag162
ag163
ag164
ag165
ag166
ag167
ag168
ag169
ag170
ag171
ag172
ag173
ag174
ag175
ag176
aa(lp1484
g177
ag178
ag179
ag180
ag181
ag182
ag183
ag184
ag185
ag186
ag187
ag188
ag189
ag190
ag191
ag192
ag193
ag194
ag195
ag196
ag197
ag198
ag199
ag200
ag201
ag202
ag203
ag204
ag205
ag206
ag207
ag208
ag209
ag210
ag211
ag212
ag213
ag214
ag215
ag216
ag217
ag218
ag219
ag220
ag221
ag222
ag223
ag224
ag225
ag226
ag227
ag228
ag229
ag230
ag231
ag232
ag233
ag234
ag235
ag236
ag237
ag238
ag239
ag240
ag241
ag242
ag243
ag244
ag245
ag246
ag247
ag248
ag249
ag250
ag251
ag252
ag253
ag254
ag255
ag256
ag257
ag258
ag259
ag260
ag261
ag262
ag263
ag264
ag265
ag266
ag267
ag268
ag269
ag270
ag271
ag272
ag273
aa(lp1485
g274
ag275
ag276
ag277
ag278
ag279
ag280
ag281
ag282
ag283
ag284
ag285
ag286
ag287
ag288
ag289
ag290
ag291
ag292
ag293
ag294
ag295
ag296
ag297
ag298
ag299
ag300
ag301
ag302
ag303
ag304
ag305
ag306
ag307
ag308
ag309
ag310
ag311
ag312
ag313
ag314
ag315
ag316
ag317
ag318
ag319
ag320
ag321
ag322
ag323
ag324
ag325
ag326
ag327
ag328
ag329
ag330
ag331
ag332
ag333
ag334
ag335
ag336
ag337
ag338
ag339
ag340
ag341
ag342
ag343
ag344
ag345
ag346
ag347
ag348
ag349
ag350
ag351
ag352
ag353
ag354
ag355
ag356
ag357
ag358
ag359
ag360
ag361
ag362
ag363
ag364
ag365
ag366
ag367
ag368
ag369
ag370
ag371
ag372
ag373
ag374
ag375
ag376
ag377
ag378
ag379
ag380
ag381
ag382
ag383
ag384
ag385
ag386
ag387
ag388
ag389
ag390
ag391
ag392
ag393
ag394
ag395
ag396
ag397
ag398
ag399
ag400
ag401
ag402
aa(lp1486
g403
ag404
ag405
ag406
ag407
ag408
ag409
ag410
ag411
ag412
ag413
ag414
ag415
ag416
ag417
ag418
ag419
ag420
ag421
ag422
ag423
ag424
ag425
ag426
ag427
ag428
ag429
ag430
ag431
ag432
ag433
ag434
ag435
ag436
ag437
ag438
ag439
ag440
ag441
ag442
ag443
ag444
ag445
ag446
ag447
ag448
ag449
ag450
ag451
ag452
ag453
ag454
ag455
ag456
ag457
ag458
ag459
ag460
ag461
ag462
ag463
ag464
ag465
ag466
ag467
ag468
ag469
ag470
ag471
ag472
ag473
ag474
ag475
ag476
ag477
ag478
ag479
ag480
ag481
ag482
ag483
ag484
ag485
ag486
ag487
ag488
ag489
ag490
ag491
ag492
ag493
ag494
ag495
ag496
ag497
ag498
ag499
ag500
ag501
ag502
ag503
ag504
ag505
ag506
ag507
ag508
ag509
ag510
ag511
ag512
ag513
ag514
ag515
ag516
ag517
ag518
ag519
ag520
ag521
ag522
ag523
ag524
ag525
ag526
ag527
ag528
ag529
ag530
ag531
ag532
ag533
ag534
ag535
ag536
ag537
ag538
ag539
ag540
ag541
ag542
ag543
ag544
ag545
ag546
ag547
ag548
ag549
ag550
ag551
ag552
ag553
ag554
ag555
ag556
aa(lp1487
g557
ag558
ag559
ag560
ag561
ag562
ag563
ag564
ag565
ag566
ag567
ag568
ag569
ag570
ag571
ag572
ag573
ag574
ag575
ag576
ag577
ag578
ag579
ag580
ag581
ag582
ag583
ag584
ag585
ag586
ag587
ag588
ag589
ag590
ag591
ag592
ag593
ag594
ag595
ag596
ag597
ag598
ag599
ag600
ag601
ag602
ag603
ag604
ag605
ag606
ag607
ag608
ag609
ag610
ag611
ag612
ag613
ag614
ag615
ag616
ag617
ag618
ag619
ag620
ag621
ag622
ag623
ag624
ag625
ag626
ag627
ag628
ag629
ag630
ag631
ag632
ag633
ag634
ag635
ag636
ag637
ag638
ag639
ag640
ag641
ag642
ag643
ag644
ag645
ag646
ag647
ag648
ag649
ag650
ag651
ag652
ag653
ag654
ag655
ag656
ag657
ag658
ag659
ag660
ag661
ag662
ag663
ag664
ag665
ag666
ag667
ag668
ag669
ag670
ag671
ag672
ag673
ag674
ag675
ag676
ag677
ag678
ag679
ag680
ag681
ag682
ag683
ag684
ag685
ag686
ag687
ag688
ag689
ag690
ag691
ag692
ag693
ag694
ag695
ag696
ag697
ag698
ag699
ag700
ag701
ag702
ag703
ag704
ag705
ag706
ag707
ag708
ag709
ag710
ag711
ag712
ag713
ag714
ag715
ag716
ag717
ag718
ag719
ag720
ag721
ag722
ag723
ag724
ag725
ag726
ag727
ag728
ag729
ag730
ag731
ag732
ag733
ag734
ag735
ag736
ag737
ag738
ag739
ag740
ag741
ag742
ag743
ag744
ag745
aa(lp1488
g746
ag747
ag748
ag749
ag750
ag751
ag752
ag753
ag754
ag755
ag756
ag757
ag758
ag759
ag760
ag761
ag762
ag763
ag764
ag765
ag766
ag767
ag768
ag769
ag770
ag771
ag772
ag773
ag774
ag775
ag776
ag777
ag778
ag779
ag780
ag781
ag782
ag783
ag784
ag785
ag786
ag787
ag788
ag789
ag790
ag791
ag792
ag793
ag794
ag795
ag796
ag797
ag798
ag799
ag800
ag801
ag802
ag803
ag804
ag805
ag806
ag807
ag808
ag809
ag810
ag811
ag812
ag813
ag814
ag815
ag816
ag817
ag818
ag819
ag820
ag821
ag822
ag823
ag824
ag825
ag826
ag827
ag828
ag829
ag830
ag831
ag832
ag833
ag834
ag835
ag836
ag837
ag838
ag839
ag840
ag841
ag842
ag843
ag844
ag845
ag846
ag847
ag848
ag849
ag850
ag851
ag852
ag853
ag854
ag855
ag856
ag857
ag858
ag859
ag860
ag861
ag862
ag863
ag864
ag865
ag866
ag867
ag868
ag869
ag870
ag871
ag872
ag873
ag874
ag875
ag876
ag877
ag878
ag879
ag880
ag881
ag882
ag883
ag884
ag885
ag886
ag887
ag888
ag889
ag890
ag891
ag892
ag893
ag894
ag895
ag896
ag897
ag898
ag899
ag900
ag901
ag902
ag903
ag904
ag905
ag906
ag907
ag908
ag909
ag910
ag911
ag912
ag913
ag914
ag915
ag916
ag917
ag918
ag919
ag920
ag921
ag922
ag923
ag924
ag925
ag926
ag927
ag928
ag929
aa(lp1489
g930
ag931
ag932
ag933
ag934
ag935
ag936
ag937
ag938
ag939
ag940
ag941
ag942
ag943
ag944
ag945
ag946
ag947
ag948
ag949
ag950
ag951
ag952
ag953
ag954
ag955
ag956
ag957
ag958
ag959
ag960
ag961
ag962
ag963
ag964
ag965
ag966
ag967
ag968
ag969
ag970
ag971
ag972
ag973
ag974
ag975
ag976
ag977
ag978
ag979
ag980
ag981
ag982
ag983
ag984
ag985
ag986
ag987
ag988
ag989
ag990
ag991
ag992
ag993
ag994
ag995
ag996
ag997
ag998
ag999
ag1000
ag1001
ag1002
ag1003
ag1004
ag1005
ag1006
ag1007
ag1008
ag1009
ag1010
ag1011
ag1012
ag1013
ag1014
ag1015
ag1016
ag1017
ag1018
ag1019
ag1020
ag1021
ag1022
ag1023
ag1024
ag1025
ag1026
ag1027
ag1028
ag1029
ag1030
ag1031
ag1032
ag1033
ag1034
ag1035
ag1036
ag1037
ag1038
ag1039
ag1040
ag1041
ag1042
ag1043
ag1044
ag1045
ag1046
ag1047
ag1048
ag1049
ag1050
ag1051
ag1052
ag1053
ag1054
ag1055
ag1056
ag1057
ag1058
ag1059
ag1060
ag1061
ag1062
ag1063
ag1064
ag1065
ag1066
ag1067
ag1068
ag1069
ag1070
ag1071
ag1072
ag1073
ag1074
ag1075
ag1076
ag1077
ag1078
ag1079
ag1080
ag1081
ag1082
ag1083
ag1084
ag1085
ag1086
ag1087
ag1088
ag1089
ag1090
ag1091
ag1092
ag1093
ag1094
ag1095
ag1096
ag1097
ag1098
ag1099
ag1100
ag1101
ag1102
ag1103
ag1104
ag1105
ag1106
ag1107
ag1108
ag1109
ag1110
ag1111
ag1112
ag1113
ag1114
ag1115
ag1116
ag1117
ag1118
ag1119
ag1120
ag1121
ag1122
ag1123
ag1124
ag1125
ag1126
ag1127
ag1128
ag1129
ag1130
ag1131
aa(lp1490
g1132
ag1133
ag1134
ag1135
ag1136
ag1137
ag1138
ag1139
ag1140
ag1141
ag1142
ag1143
ag1144
ag1145
ag1146
ag1147
ag1148
ag1149
ag1150
ag1151
ag1152
ag1153
ag1154
ag1155
ag1156
ag1157
ag1158
ag1159
ag1160
ag1161
ag1162
ag1163
ag1164
ag1165
ag1166
ag1167
ag1168
ag1169
ag1170
ag1171
ag1172
ag1173
ag1174
ag1175
ag1176
ag1177
ag1178
ag1179
ag1180
ag1181
ag1182
ag1183
ag1184
ag1185
ag1186
ag1187
ag1188
ag1189
ag1190
ag1191
ag1192
ag1193
ag1194
ag1195
ag1196
ag1197
ag1198
ag1199
ag1200
ag1201
ag1202
ag1203
ag1204
ag1205
ag1206
ag1207
ag1208
ag1209
ag1210
ag1211
ag1212
ag1213
ag1214
ag1215
ag1216
ag1217
ag1218
ag1219
ag1220
ag1221
ag1222
ag1223
ag1224
ag1225
ag1226
ag1227
ag1228
ag1229
ag1230
ag1231
ag1232
ag1233
ag1234
ag1235
ag1236
ag1237
ag1238
ag1239
ag1240
ag1241
ag1242
ag1243
ag1244
ag1245
ag1246
ag1247
ag1248
ag1249
ag1250
ag1251
ag1252
ag1253
ag1254
ag1255
ag1256
ag1257
ag1258
ag1259
ag1260
ag1261
ag1262
ag1263
ag1264
ag1265
ag1266
ag1267
ag1268
ag1269
ag1270
ag1271
ag1272
ag1273
ag1274
ag1275
ag1276
ag1277
ag1278
ag1279
ag1280
ag1281
ag1282
ag1283
ag1284
ag1285
ag1286
ag1287
ag1288
ag1289
ag1290
ag1291
ag1292
ag1293
ag1294
ag1295
ag1296
ag1297
ag1298
ag1299
ag1300
ag1301
ag1302
ag1303
ag1304
ag1305
ag1306
ag1307
ag1308
aa(lp1491
g1309
ag1310
ag1311
ag1312
ag1313
ag1314
ag1315
ag1316
ag1317
ag1318
ag1319
ag1320
ag1321
ag1322
ag1323
ag1324
ag1325
ag1326
ag1327
ag1328
ag1329
ag1330
ag1331
ag1332
ag1333
ag1334
ag1335
ag1336
ag1337
ag1338
ag1339
ag1340
ag1341
ag1342
ag1343
ag1344
ag1345
ag1346
ag1347
ag1348
ag1349
ag1350
ag1351
ag1352
ag1353
ag1354
ag1355
ag1356
ag1357
ag1358
ag1359
ag1360
ag1361
ag1362
ag1363
ag1364
ag1365
ag1366
ag1367
ag1368
ag1369
ag1370
ag1371
ag1372
ag1373
ag1374
ag1375
ag1376
ag1377
ag1378
ag1379
ag1380
ag1381
ag1382
ag1383
ag1384
ag1385
ag1386
ag1387
ag1388
ag1389
ag1390
ag1391
ag1392
ag1393
ag1394
ag1395
ag1396
ag1397
ag1398
ag1399
ag1400
ag1401
ag1402
ag1403
ag1404
ag1405
ag1406
ag1407
ag1408
ag1409
ag1410
ag1411
ag1412
ag1413
ag1414
ag1415
ag1416
ag1417
ag1418
ag1419
ag1420
ag1421
ag1422
ag1423
ag1424
ag1425
ag1426
ag1427
ag1428
ag1429
ag1430
ag1431
ag1432
ag1433
ag1434
ag1435
ag1436
ag1437
ag1438
ag1439
ag1440
ag1441
ag1442
ag1443
ag1444
ag1445
ag1446
ag1447
ag1448
ag1449
ag1450
ag1451
ag1452
ag1453
ag1454
ag1455
ag1456
ag1457
ag1458
ag1459
ag1460
ag1461
ag1462
ag1463
ag1464
ag1465
ag1466
ag1467
ag1468
ag1469
ag1470
ag1471
ag1472
ag1473
aasS'mean_r'
p1492
(dp1493
I0
F14.59324646289563
sI1
F14.407061080443922
sI2
F15.57678335608533
sI3
F15.145306346959561
sI4
F15.052364167024292
sI5
F15.248706254619385
sI6
F16.105460243798902
sI7
F16.630192152429302
sI8
F17.64243003501516
sI9
F18.62757299954437
ssS'attr'
p1494
(dp1495
(I-17
I0
tp1496
I1
s(I-15
I-2
tp1497
I1
s(I-22
I-10
tp1498
I0
s(I-17
I4
tp1499
I1
s(I-1
I-21
tp1500
I1
s(I-9
I-2
tp1501
I4
s(I-5
I1
tp1502
I0
s(I2
I-14
tp1503
I2
s(I13
I20
tp1504
I3
s(I1
I-21
tp1505
I1
s(I-14
I10
tp1506
I4
s(I3
I2
tp1507
I0
s(I-11
I15
tp1508
I2
s(I11
I0
tp1509
I5
s(I7
I22
tp1510
I0
s(I23
I-19
tp1511
I2
s(I14
I16
tp1512
I4
s(I17
I-13
tp1513
I2
s(I4
I1
tp1514
I5
s(I-20
I6
tp1515
I4
s(I-9
I-9
tp1516
I4
s(I-5
I6
tp1517
I3
s(I-10
I0
tp1518
I4
s(I13
I13
tp1519
I5
s(I1
I-20
tp1520
I1
s(I-16
I-1
tp1521
I4
s(I-14
I5
tp1522
I5
s(I-3
I-11
tp1523
I5
s(I-11
I8
tp1524
I3
s(I13
I5
tp1525
I1
s(I-7
I-15
tp1526
I5
s(I0
I6
tp1527
I2
s(I-20
I7
tp1528
I4
s(I17
I-12
tp1529
I2
s(I6
I11
tp1530
I3
s(I-8
I2
tp1531
I4
s(I-11
I16
tp1532
I2
s(I-10
I-17
tp1533
I4
s(I9
I0
tp1534
I5
s(I13
I6
tp1535
I1
s(I0
I5
tp1536
I2
s(I11
I-17
tp1537
I1
s(I15
I-18
tp1538
I3
s(I18
I-16
tp1539
I2
s(I4
I17
tp1540
I1
s(I2
I4
tp1541
I3
s(I-7
I-6
tp1542
I2
s(I-18
I-6
tp1543
I3
s(I16
I20
tp1544
I5
s(I17
I-19
tp1545
I3
s(I19
I1
tp1546
I2
s(I-8
I9
tp1547
I5
s(I-5
I20
tp1548
I4
s(I-5
I-9
tp1549
I5
s(I-21
I-11
tp1550
I0
s(I19
I-9
tp1551
I2
s(I4
I-11
tp1552
I4
s(I18
I-10
tp1553
I4
s(I3
I-11
tp1554
I4
s(I1
I-2
tp1555
I1
s(I-16
I-20
tp1556
I2
s(I-14
I-3
tp1557
I4
s(I23
I-8
tp1558
I2
s(I19
I6
tp1559
I2
s(I-8
I16
tp1560
I1
s(I7
I7
tp1561
I1
s(I19
I-20
tp1562
I5
s(I-2
I-8
tp1563
I4
s(I-10
I-7
tp1564
I0
s(I4
I-4
tp1565
I3
s(I1
I-9
tp1566
I0
s(I10
I10
tp1567
I5
s(I-25
I-13
tp1568
I0
s(I14
I-10
tp1569
I2
s(I14
I-5
tp1570
I3
s(I4
I7
tp1571
I0
s(I10
I-1
tp1572
I0
s(I-17
I18
tp1573
I4
s(I23
I-15
tp1574
I2
s(I16
I2
tp1575
I0
s(I19
I15
tp1576
I5
s(I19
I-11
tp1577
I2
s(I7
I5
tp1578
I5
s(I-23
I-11
tp1579
I0
s(I10
I12
tp1580
I5
s(I-4
I3
tp1581
I2
s(I-12
I-4
tp1582
I1
s(I-25
I9
tp1583
I3
s(I0
I-17
tp1584
I4
s(I1
I13
tp1585
I2
s(I15
I9
tp1586
I2
s(I-4
I-10
tp1587
I5
s(I-10
I5
tp1588
I3
s(I-8
I-14
tp1589
I2
s(I22
I-19
tp1590
I2
s(I19
I-6
tp1591
I1
s(I16
I-9
tp1592
I4
s(I-23
I-1
tp1593
I3
s(I-7
I1
tp1594
I5
s(I-6
I0
tp1595
I5
s(I-3
I21
tp1596
I4
s(I1
I6
tp1597
I2
s(I-13
I3
tp1598
I3
s(I-4
I-16
tp1599
I5
s(I5
I18
tp1600
I1
s(I-8
I-7
tp1601
I4
s(I16
I-18
tp1602
I5
s(I-20
I-4
tp1603
I3
s(I19
I-12
tp1604
I2
s(I-7
I10
tp1605
I5
s(I11
I21
tp1606
I0
s(I3
I-16
tp1607
I5
s(I-14
I-1
tp1608
I4
s(I0
I-3
tp1609
I1
s(I-13
I8
tp1610
I3
s(I-6
I-1
tp1611
I5
s(I-9
I12
tp1612
I4
s(I-12
I-19
tp1613
I2
s(I17
I8
tp1614
I2
s(I20
I3
tp1615
I2
s(I-7
I19
tp1616
I4
s(I9
I9
tp1617
I5
s(I-15
I9
tp1618
I0
s(I11
I10
tp1619
I5
s(I3
I-7
tp1620
I3
s(I0
I-12
tp1621
I2
s(I13
I-17
tp1622
I4
s(I-17
I-2
tp1623
I1
s(I-18
I-3
tp1624
I1
s(I-6
I-3
tp1625
I0
s(I-14
I2
tp1626
I3
s(I-5
I-6
tp1627
I4
s(I9
I-5
tp1628
I4
s(I22
I-10
tp1629
I2
s(I17
I1
tp1630
I3
s(I-20
I-14
tp1631
I0
s(I-7
I20
tp1632
I1
s(I-11
I-15
tp1633
I2
s(I19
I-4
tp1634
I2
s(I-3
I4
tp1635
I5
s(I17
I-11
tp1636
I2
s(I8
I22
tp1637
I0
s(I11
I3
tp1638
I5
s(I-3
I0
tp1639
I5
s(I14
I8
tp1640
I1
s(I-11
I0
tp1641
I2
s(I14
I12
tp1642
I5
s(I-16
I7
tp1643
I4
s(I-2
I-12
tp1644
I2
s(I5
I13
tp1645
I3
s(I9
I-4
tp1646
I4
s(I-7
I7
tp1647
I5
s(I-13
I-13
tp1648
I0
s(I4
I-20
tp1649
I1
s(I-6
I4
tp1650
I4
s(I16
I12
tp1651
I4
s(I-6
I-17
tp1652
I4
s(I3
I11
tp1653
I2
s(I15
I-21
tp1654
I4
s(I2
I3
tp1655
I3
s(I12
I-2
tp1656
I3
s(I-5
I9
tp1657
I5
s(I-12
I-5
tp1658
I1
s(I-1
I6
tp1659
I2
s(I-2
I-16
tp1660
I1
s(I6
I-13
tp1661
I3
s(I3
I-20
tp1662
I1
s(I-2
I4
tp1663
I2
s(I12
I16
tp1664
I4
s(I2
I-17
tp1665
I1
s(I15
I5
tp1666
I4
s(I-15
I14
tp1667
I4
s(I-12
I13
tp1668
I1
s(I-9
I16
tp1669
I1
s(I-6
I-22
tp1670
I4
s(I21
I-14
tp1671
I2
s(I18
I-9
tp1672
I4
s(I-16
I8
tp1673
I0
s(I21
I0
tp1674
I1
s(I8
I11
tp1675
I3
s(I-17
I-8
tp1676
I0
s(I13
I-5
tp1677
I3
s(I7
I15
tp1678
I3
s(I-12
I-9
tp1679
I0
s(I-15
I-4
tp1680
I1
s(I-15
I7
tp1681
I5
s(I2
I21
tp1682
I0
s(I-12
I20
tp1683
I2
s(I10
I-18
tp1684
I4
s(I-13
I-5
tp1685
I1
s(I-10
I-1
tp1686
I2
s(I-6
I-11
tp1687
I2
s(I8
I-8
tp1688
I3
s(I14
I-18
tp1689
I3
s(I18
I4
tp1690
I2
s(I-21
I-9
tp1691
I0
s(I-17
I10
tp1692
I0
s(I9
I21
tp1693
I0
s(I-12
I-1
tp1694
I3
s(I-15
I-11
tp1695
I2
s(I6
I5
tp1696
I5
s(I-12
I19
tp1697
I2
s(I2
I-6
tp1698
I0
s(I-2
I-6
tp1699
I4
s(I-12
I-12
tp1700
I0
s(I-2
I-2
tp1701
I4
s(I6
I0
tp1702
I0
s(I-15
I2
tp1703
I3
s(I5
I16
tp1704
I1
s(I2
I22
tp1705
I0
s(I-5
I11
tp1706
I4
s(I-1
I4
tp1707
I2
s(I-15
I-18
tp1708
I2
s(I14
I-20
tp1709
I4
s(I-11
I5
tp1710
I3
s(I-24
I6
tp1711
I3
s(I5
I-1
tp1712
I1
s(I-17
I7
tp1713
I4
s(I-4
I-8
tp1714
I2
s(I9
I7
tp1715
I1
s(I-5
I0
tp1716
I5
s(I2
I-13
tp1717
I3
s(I10
I19
tp1718
I0
s(I-13
I-19
tp1719
I2
s(I1
I-22
tp1720
I1
s(I-16
I-8
tp1721
I0
s(I-14
I11
tp1722
I4
s(I3
I5
tp1723
I0
s(I11
I-16
tp1724
I1
s(I-13
I-8
tp1725
I0
s(I17
I-5
tp1726
I3
s(I4
I2
tp1727
I3
s(I4
I-21
tp1728
I1
s(I-7
I-17
tp1729
I4
s(I23
I-20
tp1730
I2
s(I-16
I-11
tp1731
I2
s(I-20
I9
tp1732
I0
s(I17
I-14
tp1733
I2
s(I6
I10
tp1734
I3
s(I9
I8
tp1735
I1
s(I-11
I17
tp1736
I2
s(I-7
I-10
tp1737
I2
s(I13
I12
tp1738
I5
s(I14
I-2
tp1739
I3
s(I-3
I-12
tp1740
I2
s(I18
I-13
tp1741
I2
s(I-1
I9
tp1742
I3
s(I-1
I-5
tp1743
I0
s(I7
I14
tp1744
I3
s(I13
I-20
tp1745
I3
s(I-20
I0
tp1746
I3
s(I17
I-21
tp1747
I5
s(I22
I4
tp1748
I2
s(I-8
I3
tp1749
I4
s(I-5
I-12
tp1750
I2
s(I10
I16
tp1751
I5
s(I3
I-14
tp1752
I5
s(I-16
I-10
tp1753
I2
s(I11
I-18
tp1754
I4
s(I25
I2
tp1755
I2
s(I-14
I-4
tp1756
I1
s(I4
I18
tp1757
I1
s(I-7
I-7
tp1758
I2
s(I16
I21
tp1759
I5
s(I17
I-20
tp1760
I5
s(I-19
I-1
tp1761
I3
s(I-8
I10
tp1762
I5
s(I7
I4
tp1763
I5
s(I13
I21
tp1764
I0
s(I4
I-10
tp1765
I3
s(I1
I-3
tp1766
I1
s(I-16
I-19
tp1767
I2
s(I-10
I-15
tp1768
I4
s(I-14
I-2
tp1769
I4
s(I-14
I13
tp1770
I4
s(I-10
I8
tp1771
I3
s(I23
I-5
tp1772
I2
s(I3
I3
tp1773
I3
s(I-19
I-9
tp1774
I2
s(I11
I-1
tp1775
I0
s(I-8
I17
tp1776
I1
s(I-9
I-18
tp1777
I4
s(I19
I-17
tp1778
I3
s(I-10
I-2
tp1779
I2
s(I-4
I5
tp1780
I2
s(I1
I-10
tp1781
I0
s(I-12
I-13
tp1782
I5
s(I0
I20
tp1783
I4
s(I1
I11
tp1784
I2
s(I4
I0
tp1785
I1
s(I-10
I3
tp1786
I3
s(I23
I-16
tp1787
I2
s(I16
I3
tp1788
I0
s(I9
I-16
tp1789
I1
s(I-19
I-16
tp1790
I0
s(I-1
I-19
tp1791
I1
s(I-19
I10
tp1792
I0
s(I16
I-15
tp1793
I2
s(I-23
I-12
tp1794
I0
s(I-1
I-2
tp1795
I4
s(I10
I13
tp1796
I5
s(I-16
I16
tp1797
I4
s(I1
I12
tp1798
I3
s(I-4
I-9
tp1799
I5
s(I4
I15
tp1800
I1
s(I-19
I3
tp1801
I1
s(I23
I3
tp1802
I2
s(I7
I-1
tp1803
I0
s(I17
I-4
tp1804
I2
s(I1
I-1
tp1805
I5
s(I1
I5
tp1806
I2
s(I-13
I2
tp1807
I3
s(I15
I-8
tp1808
I1
s(I-6
I-15
tp1809
I4
s(I-5
I-17
tp1810
I5
s(I-8
I-6
tp1811
I4
s(I17
I22
tp1812
I5
s(I16
I-17
tp1813
I5
s(I-20
I-3
tp1814
I3
s(I-7
I9
tp1815
I5
s(I9
I10
tp1816
I5
s(I15
I-12
tp1817
I1
s(I11
I20
tp1818
I0
s(I3
I-13
tp1819
I3
s(I14
I3
tp1820
I1
s(I0
I-1
tp1821
I4
s(I-13
I11
tp1822
I4
s(I-10
I20
tp1823
I1
s(I18
I0
tp1824
I1
s(I-9
I15
tp1825
I2
s(I-22
I0
tp1826
I1
s(I17
I15
tp1827
I3
s(I-20
I-12
tp1828
I0
s(I-7
I18
tp1829
I4
s(I-11
I-14
tp1830
I5
s(I19
I-3
tp1831
I2
s(I-1
I0
tp1832
I5
s(I8
I16
tp1833
I0
s(I11
I13
tp1834
I5
s(I3
I-8
tp1835
I3
s(I-10
I-14
tp1836
I0
s(I0
I-11
tp1837
I2
s(I-16
I6
tp1838
I4
s(I13
I-18
tp1839
I4
s(I-21
I0
tp1840
I3
s(I-2
I-14
tp1841
I2
s(I-13
I19
tp1842
I2
s(I-9
I4
tp1843
I3
s(I22
I-9
tp1844
I2
s(I17
I0
tp1845
I1
s(I-7
I0
tp1846
I5
s(I-20
I-13
tp1847
I0
s(I-13
I-16
tp1848
I2
s(I5
I-9
tp1849
I4
s(I7
I20
tp1850
I0
s(I-11
I-4
tp1851
I2
s(I15
I3
tp1852
I1
s(I-14
I4
tp1853
I5
s(I-6
I-18
tp1854
I5
s(I-3
I-10
tp1855
I5
s(I-15
I19
tp1856
I2
s(I-19
I-8
tp1857
I2
s(I-1
I-11
tp1858
I2
s(I-5
I-14
tp1859
I2
s(I21
I-17
tp1860
I5
s(I12
I2
tp1861
I5
s(I18
I-5
tp1862
I2
s(I-1
I1
tp1863
I5
s(I-2
I-1
tp1864
I4
s(I-2
I-13
tp1865
I2
s(I-6
I5
tp1866
I3
s(I15
I-22
tp1867
I1
s(I-2
I-4
tp1868
I4
s(I-12
I7
tp1869
I3
s(I-22
I-2
tp1870
I3
s(I-24
I-12
tp1871
I0
s(I-18
I1
tp1872
I1
s(I-20
I-1
tp1873
I3
s(I21
I6
tp1874
I2
s(I8
I5
tp1875
I1
s(I-6
I12
tp1876
I4
s(I3
I-17
tp1877
I5
s(I13
I-4
tp1878
I3
s(I12
I17
tp1879
I4
s(I2
I-20
tp1880
I1
s(I15
I4
tp1881
I1
s(I-15
I13
tp1882
I4
s(I-12
I14
tp1883
I2
s(I-9
I19
tp1884
I1
s(I20
I-1
tp1885
I2
s(I18
I-12
tp1886
I2
s(I-18
I-10
tp1887
I2
s(I8
I12
tp1888
I5
s(I9
I19
tp1889
I0
s(I-12
I-16
tp1890
I2
s(I15
I13
tp1891
I5
s(I-15
I6
tp1892
I5
s(I-1
I-18
tp1893
I1
s(I12
I-19
tp1894
I3
s(I-14
I6
tp1895
I5
s(I3
I17
tp1896
I1
s(I-6
I-14
tp1897
I2
s(I-21
I4
tp1898
I4
s(I18
I-17
tp1899
I3
s(I18
I5
tp1900
I4
s(I-15
I-8
tp1901
I0
s(I-21
I-10
tp1902
I0
s(I15
I-3
tp1903
I3
s(I5
I17
tp1904
I1
s(I9
I20
tp1905
I0
s(I-1
I2
tp1906
I5
s(I-15
I-12
tp1907
I5
s(I24
I2
tp1908
I2
s(I3
I22
tp1909
I0
s(I6
I1
tp1910
I5
s(I14
I18
tp1911
I3
s(I20
I5
tp1912
I2
s(I-5
I10
tp1913
I5
s(I-10
I2
tp1914
I3
s(I-1
I5
tp1915
I2
s(I-15
I-19
tp1916
I2
s(I10
I18
tp1917
I0
s(I20
I-16
tp1918
I2
s(I14
I-19
tp1919
I3
s(I-11
I4
tp1920
I3
s(I-4
I18
tp1921
I4
s(I-16
I-12
tp1922
I5
s(I17
I-8
tp1923
I4
s(I-9
I-8
tp1924
I5
s(I-5
I3
tp1925
I2
s(I-1
I12
tp1926
I2
s(I-19
I-15
tp1927
I0
s(I-9
I-4
tp1928
I4
s(I-13
I-20
tp1929
I2
s(I5
I-15
tp1930
I1
s(I0
I9
tp1931
I2
s(I14
I-12
tp1932
I1
s(I-3
I-6
tp1933
I4
s(I-11
I13
tp1934
I2
s(I15
I-20
tp1935
I3
s(I-18
I14
tp1936
I4
s(I-1
I8
tp1937
I2
s(I2
I6
tp1938
I0
s(I-7
I-18
tp1939
I5
s(I-18
I-12
tp1940
I0
s(I20
I-14
tp1941
I2
s(I17
I-15
tp1942
I4
s(I-22
I-1
tp1943
I3
s(I9
I15
tp1944
I5
s(I5
I11
tp1945
I3
s(I-15
I0
tp1946
I4
s(I26
I-16
tp1947
I2
s(I10
I22
tp1948
I0
s(I-13
I-11
tp1949
I0
s(I0
I0
tp1950
I5
s(I-14
I3
tp1951
I4
s(I-3
I-13
tp1952
I5
s(I-18
I0
tp1953
I1
s(I7
I9
tp1954
I2
s(I20
I-7
tp1955
I4
s(I17
I-22
tp1956
I1
s(I22
I5
tp1957
I2
s(I-8
I4
tp1958
I3
s(I5
I-17
tp1959
I1
s(I-10
I-19
tp1960
I4
s(I-13
I-6
tp1961
I1
s(I1
I-5
tp1962
I1
s(I0
I7
tp1963
I2
s(I-10
I-16
tp1964
I4
s(I4
I-5
tp1965
I3
s(I2
I10
tp1966
I3
s(I-14
I12
tp1967
I4
s(I17
I-18
tp1968
I5
s(I7
I6
tp1969
I1
s(I-23
I3
tp1970
I1
s(I10
I0
tp1971
I0
s(I16
I22
tp1972
I5
s(I19
I3
tp1973
I2
s(I-8
I11
tp1974
I5
s(I9
I17
tp1975
I1
s(I4
I-9
tp1976
I3
s(I1
I-4
tp1977
I1
s(I12
I10
tp1978
I5
s(I-16
I-18
tp1979
I2
s(I-10
I9
tp1980
I3
s(I-15
I4
tp1981
I5
s(I-23
I4
tp1982
I1
s(I16
I13
tp1983
I4
s(I9
I-15
tp1984
I1
s(I-19
I-10
tp1985
I2
s(I-8
I18
tp1986
I1
s(I-2
I-20
tp1987
I1
s(I19
I-18
tp1988
I5
s(I16
I-5
tp1989
I3
s(I10
I3
tp1990
I5
s(I4
I-1
tp1991
I1
s(I1
I-11
tp1992
I3
s(I0
I-22
tp1993
I1
s(I1
I10
tp1994
I2
s(I-4
I-7
tp1995
I4
s(I10
I-4
tp1996
I4
s(I23
I-13
tp1997
I2
s(I-4
I-2
tp1998
I5
s(I16
I4
tp1999
I4
s(I-2
I-3
tp2000
I4
s(I-19
I9
tp2001
I0
s(I16
I-14
tp2002
I2
s(I23
I5
tp2003
I2
s(I-10
I-10
tp2004
I0
s(I-13
I-2
tp2005
I5
s(I17
I-3
tp2006
I2
s(I-16
I17
tp2007
I4
s(I1
I3
tp2008
I3
s(I4
I8
tp2009
I2
s(I6
I12
tp2010
I3
s(I-8
I-12
tp2011
I2
s(I-19
I2
tp2012
I1
s(I23
I2
tp2013
I2
s(I7
I-7
tp2014
I3
s(I-4
I20
tp2015
I4
s(I15
I-11
tp2016
I1
s(I0
I-8
tp2017
I4
s(I1
I4
tp2018
I3
s(I-13
I5
tp2019
I3
s(I-10
I18
tp2020
I2
s(I-1
I-3
tp2021
I4
s(I12
I-8
tp2022
I1
s(I-5
I-18
tp2023
I5
s(I-8
I-5
tp2024
I4
s(I-15
I15
tp2025
I4
s(I17
I21
tp2026
I5
s(I-20
I-2
tp2027
I3
s(I-7
I8
tp2028
I5
s(I-11
I-13
tp2029
I5
s(I-19
I4
tp2030
I1
s(I-4
I19
tp2031
I4
s(I-3
I12
tp2032
I2
s(I-14
I-10
tp2033
I5
s(I14
I0
tp2034
I3
s(I-16
I15
tp2035
I4
s(I-16
I5
tp2036
I4
s(I-13
I10
tp2037
I4
s(I-10
I21
tp2038
I1
s(I-9
I14
tp2039
I4
s(I7
I2
tp2040
I2
s(I-22
I1
tp2041
I1
s(I17
I14
tp2042
I3
s(I-20
I-11
tp2043
I2
s(I-7
I17
tp2044
I1
s(I8
I17
tp2045
I0
s(I11
I12
tp2046
I5
s(I3
I-5
tp2047
I1
s(I-14
I-9
tp2048
I0
s(I0
I-10
tp2049
I4
s(I-7
I-1
tp2050
I5
s(I1
I22
tp2051
I0
s(I13
I-19
tp2052
I4
s(I24
I-17
tp2053
I2
s(I-3
I-9
tp2054
I5
s(I-1
I-13
tp2055
I2
s(I5
I2
tp2056
I2
s(I-9
I7
tp2057
I3
s(I17
I7
tp2058
I2
s(I-12
I-7
tp2059
I0
s(I18
I-6
tp2060
I1
s(I-2
I0
tp2061
I0
s(I-1
I-14
tp2062
I2
s(I11
I5
tp2063
I5
s(I-14
I-18
tp2064
I2
s(I-5
I-3
tp2065
I4
s(I-15
I18
tp2066
I4
s(I-1
I-6
tp2067
I0
s(I-5
I-11
tp2068
I2
s(I-4
I12
tp2069
I4
s(I21
I-18
tp2070
I2
s(I-6
I2
tp2071
I4
s(I-17
I-1
tp2072
I1
s(I13
I-3
tp2073
I3
s(I-7
I-13
tp2074
I2
s(I-15
I11
tp2075
I4
s(I2
I1
tp2076
I5
s(I-12
I0
tp2077
I3
s(I-9
I21
tp2078
I1
s(I10
I4
tp2079
I5
s(I4
I-13
tp2080
I3
s(I21
I-9
tp2081
I2
s(I13
I0
tp2082
I3
s(I-18
I6
tp2083
I0
s(I18
I16
tp2084
I3
s(I21
I5
tp2085
I2
s(I8
I6
tp2086
I1
s(I-6
I13
tp2087
I4
s(I3
I-18
tp2088
I5
s(I-18
I2
tp2089
I1
s(I21
I1
tp2090
I2
s(I2
I-19
tp2091
I1
s(I15
I7
tp2092
I1
s(I-15
I12
tp2093
I4
s(I-6
I-5
tp2094
I4
s(I-12
I15
tp2095
I1
s(I-9
I18
tp2096
I1
s(I-2
I-22
tp2097
I2
s(I9
I12
tp2098
I5
s(I21
I-16
tp2099
I2
s(I-18
I9
tp2100
I0
s(I-18
I-9
tp2101
I2
s(I-15
I-7
tp2102
I0
s(I-1
I-16
tp2103
I1
s(I8
I13
tp2104
I5
s(I-6
I20
tp2105
I4
s(I10
I2
tp2106
I5
s(I9
I18
tp2107
I0
s(I-12
I-15
tp2108
I2
s(I15
I12
tp2109
I4
s(I15
I-5
tp2110
I3
s(I-2
I-17
tp2111
I1
s(I12
I-18
tp2112
I4
s(I9
I-20
tp2113
I3
s(I-3
I-18
tp2114
I1
s(I11
I2
tp2115
I5
s(I21
I-7
tp2116
I1
s(I18
I-20
tp2117
I5
s(I-18
I-2
tp2118
I1
s(I14
I13
tp2119
I5
s(I4
I6
tp2120
I0
s(I20
I4
tp2121
I2
s(I-12
I-8
tp2122
I0
s(I-1
I3
tp2123
I2
s(I15
I21
tp2124
I5
s(I14
I-21
tp2125
I4
s(I-13
I-10
tp2126
I0
s(I6
I6
tp2127
I2
s(I-16
I-13
tp2128
I5
s(I20
I-19
tp2129
I5
s(I5
I-13
tp2130
I3
s(I2
I-10
tp2131
I0
s(I-15
I-20
tp2132
I2
s(I19
I12
tp2133
I2
s(I11
I-19
tp2134
I3
s(I9
I3
tp2135
I5
s(I-5
I12
tp2136
I4
s(I14
I-14
tp2137
I1
s(I-11
I3
tp2138
I3
s(I15
I-19
tp2139
I3
s(I-8
I22
tp2140
I1
s(I18
I-11
tp2141
I2
s(I19
I-7
tp2142
I1
s(I2
I-9
tp2143
I0
s(I2
I9
tp2144
I3
s(I18
I11
tp2145
I2
s(I20
I-12
tp2146
I4
s(I-17
I1
tp2147
I4
s(I22
I8
tp2148
I2
s(I-9
I-5
tp2149
I4
s(I-5
I2
tp2150
I2
s(I5
I12
tp2151
I3
s(I2
I-15
tp2152
I2
s(I-19
I12
tp2153
I4
s(I13
I17
tp2154
I4
s(I1
I-24
tp2155
I1
s(I-16
I-6
tp2156
I1
s(I14
I-11
tp2157
I1
s(I-3
I-7
tp2158
I4
s(I8
I-17
tp2159
I1
s(I14
I2
tp2160
I0
s(I-16
I13
tp2161
I4
s(I7
I19
tp2162
I0
s(I20
I-13
tp2163
I2
s(I17
I-16
tp2164
I4
s(I13
I-10
tp2165
I1
s(I-9
I-16
tp2166
I4
s(I7
I10
tp2167
I3
s(I-6
I-8
tp2168
I2
s(I13
I10
tp2169
I5
s(I0
I1
tp2170
I5
s(I10
I15
tp2171
I5
s(I3
I12
tp2172
I2
s(I11
I-21
tp2173
I4
s(I-4
I2
tp2174
I2
s(I14
I-13
tp2175
I1
s(I17
I-17
tp2176
I5
s(I7
I8
tp2177
I2
s(I20
I-6
tp2178
I1
s(I16
I16
tp2179
I5
s(I17
I-23
tp2180
I5
s(I11
I-4
tp2181
I4
s(I-8
I5
tp2182
I3
s(I5
I-18
tp2183
I1
s(I-13
I-3
tp2184
I5
s(I2
I-2
tp2185
I1
s(I12
I9
tp2186
I0
s(I0
I24
tp2187
I0
s(I9
I-2
tp2188
I4
s(I25
I0
tp2189
I2
s(I-3
I-4
tp2190
I4
s(I7
I1
tp2191
I2
s(I16
I23
tp2192
I5
s(I19
I2
tp2193
I2
s(I-8
I12
tp2194
I4
s(I-1
I-17
tp2195
I1
s(I6
I-7
tp2196
I3
s(I4
I-16
tp2197
I1
s(I1
I-13
tp2198
I2
s(I-16
I-17
tp2199
I2
s(I0
I-18
tp2200
I1
s(I19
I0
tp2201
I1
s(I-17
I-10
tp2202
I2
s(I10
I-14
tp2203
I1
s(I23
I-11
tp2204
I2
s(I-29
I-13
tp2205
I0
s(I12
I-1
tp2206
I2
s(I16
I14
tp2207
I4
s(I-19
I-11
tp2208
I2
s(I-8
I19
tp2209
I1
s(I19
I-15
tp2210
I2
s(I16
I-4
tp2211
I3
s(I-10
I-4
tp2212
I2
s(I-4
I7
tp2213
I2
s(I1
I-12
tp2214
I3
s(I0
I-2
tp2215
I4
s(I17
I-1
tp2216
I1
s(I0
I-21
tp2217
I1
s(I1
I9
tp2218
I3
s(I-4
I-6
tp2219
I4
s(I10
I-3
tp2220
I4
s(I23
I-14
tp2221
I2
s(I16
I5
tp2222
I4
s(I-8
I-18
tp2223
I5
s(I-19
I8
tp2224
I0
s(I23
I4
tp2225
I2
s(I-10
I-9
tp2226
I4
s(I1
I2
tp2227
I3
s(I4
I9
tp2228
I3
s(I-1
I-4
tp2229
I4
s(I-18
I-1
tp2230
I1
s(I21
I3
tp2231
I2
s(I-8
I-11
tp2232
I2
s(I-19
I1
tp2233
I1
s(I-17
I-19
tp2234
I2
s(I7
I-8
tp2235
I3
s(I-11
I-12
tp2236
I5
s(I-4
I21
tp2237
I4
s(I2
I-7
tp2238
I0
s(I-11
I-17
tp2239
I4
s(I0
I-7
tp2240
I1
s(I13
I-6
tp2241
I3
s(I10
I-17
tp2242
I1
s(I-13
I17
tp2243
I4
s(I-8
I-4
tp2244
I0
s(I17
I20
tp2245
I5
s(I20
I7
tp2246
I2
s(I13
I16
tp2247
I4
s(I0
I11
tp2248
I2
s(I-3
I11
tp2249
I2
s(I14
I1
tp2250
I3
s(I-16
I0
tp2251
I4
s(I13
I-13
tp2252
I1
s(I3
I6
tp2253
I0
s(I-19
I-6
tp2254
I1
s(I-9
I9
tp2255
I3
s(I22
I-14
tp2256
I2
s(I-17
I-13
tp2257
I5
s(I-20
I-10
tp2258
I0
s(I-7
I16
tp2259
I4
s(I12
I0
tp2260
I5
s(I-2
I3
tp2261
I5
s(I8
I18
tp2262
I0
s(I11
I15
tp2263
I5
s(I3
I-6
tp2264
I0
s(I-14
I-12
tp2265
I5
s(I0
I-9
tp2266
I4
s(I-13
I18
tp2267
I4
s(I5
I4
tp2268
I2
s(I-9
I5
tp2269
I3
s(I2
I12
tp2270
I2
s(I5
I1
tp2271
I5
s(I-9
I6
tp2272
I3
s(I17
I6
tp2273
I4
s(I11
I4
tp2274
I5
s(I13
I-2
tp2275
I3
s(I-15
I17
tp2276
I4
s(I-2
I-5
tp2277
I4
s(I5
I10
tp2278
I3
s(I-10
I-5
tp2279
I2
s(I-4
I10
tp2280
I4
s(I21
I-19
tp2281
I2
s(I3
I-2
tp2282
I1
s(I17
I-9
tp2283
I2
s(I-6
I3
tp2284
I4
s(I9
I6
tp2285
I1
s(I12
I20
tp2286
I0
s(I-15
I10
tp2287
I0
s(I-6
I-6
tp2288
I2
s(I-12
I1
tp2289
I3
s(I-9
I20
tp2290
I1
s(I6
I18
tp2291
I1
s(I-9
I-13
tp2292
I0
s(I21
I-10
tp2293
I2
s(I-18
I7
tp2294
I4
s(I18
I17
tp2295
I3
s(I-15
I-6
tp2296
I1
s(I21
I4
tp2297
I2
s(I8
I7
tp2298
I1
s(I-6
I10
tp2299
I5
s(I-2
I22
tp2300
I4
s(I15
I6
tp2301
I1
s(I-15
I3
tp2302
I4
s(I-12
I8
tp2303
I3
s(I9
I-19
tp2304
I1
s(I-11
I-3
tp2305
I2
s(I-21
I1
tp2306
I1
s(I3
I-1
tp2307
I1
s(I18
I-14
tp2308
I2
s(I18
I8
tp2309
I2
s(I17
I16
tp2310
I3
s(I8
I14
tp2311
I3
s(I3
I0
tp2312
I0
s(I-9
I-17
tp2313
I4
s(I-12
I-14
tp2314
I5
s(I15
I-6
tp2315
I3
s(I-1
I-20
tp2316
I1
s(I12
I-17
tp2317
I1
s(I13
I9
tp2318
I0
s(I-6
I-16
tp2319
I4
s(I21
I-8
tp2320
I2
s(I18
I-19
tp2321
I5
s(I18
I3
tp2322
I2
s(I-14
I1
tp2323
I4
s(I12
I-4
tp2324
I3
s(I12
I1
tp2325
I2
s(I2
I-4
tp2326
I1
s(I15
I20
tp2327
I5
s(I-11
I20
tp2328
I1
s(I-14
I20
tp2329
I2
s(I6
I7
tp2330
I2
s(I-18
I8
tp2331
I4
s(I-2
I10
tp2332
I2
s(I-1
I-12
tp2333
I2
s(I20
I-18
tp2334
I2
s(I15
I18
tp2335
I3
s(I-9
I-3
tp2336
I4
s(I5
I-14
tp2337
I3
s(I-5
I-13
tp2338
I2
s(I-1
I11
tp2339
I2
s(I-9
I2
tp2340
I3
s(I5
I3
tp2341
I2
s(I-14
I15
tp2342
I1
s(I3
I1
tp2343
I5
s(I-11
I2
tp2344
I3
s(I16
I-1
tp2345
I3
s(I0
I-4
tp2346
I1
s(I7
I21
tp2347
I0
s(I20
I-11
tp2348
I2
s(I17
I-2
tp2349
I2
s(I-22
I-11
tp2350
I0
s(I-13
I9
tp2351
I4
s(I9
I4
tp2352
I5
s(I-7
I-11
tp2353
I2
s(I-13
I-18
tp2354
I2
s(I1
I-17
tp2355
I4
s(I-16
I-5
tp2356
I1
s(I14
I-6
tp2357
I3
s(I-3
I-8
tp2358
I5
s(I-11
I11
tp2359
I4
s(I4
I-7
tp2360
I3
s(I-14
I14
tp2361
I4
s(I2
I-5
tp2362
I1
s(I7
I18
tp2363
I0
s(I20
I-4
tp2364
I2
s(I-17
I9
tp2365
I0
s(I11
I-3
tp2366
I4
s(I9
I13
tp2367
I5
s(I10
I20
tp2368
I0
s(I-13
I-9
tp2369
I0
s(I0
I2
tp2370
I5
s(I14
I-3
tp2371
I3
s(I11
I-22
tp2372
I4
s(I-4
I-18
tp2373
I5
s(I7
I11
tp2374
I5
s(I5
I0
tp2375
I1
s(I16
I17
tp2376
I3
s(I17
I-24
tp2377
I5
s(I-8
I6
tp2378
I3
s(I-5
I19
tp2379
I4
s(I-12
I21
tp2380
I2
s(I6
I-8
tp2381
I3
s(I13
I2
tp2382
I0
s(I1
I-7
tp2383
I1
s(I-17
I-9
tp2384
I0
s(I7
I0
tp2385
I0
s(I19
I5
tp2386
I2
s(I4
I12
tp2387
I3
s(I-8
I13
tp2388
I4
s(I19
I-21
tp2389
I5
s(I10
I6
tp2390
I1
s(I-4
I9
tp2391
I5
s(I1
I-14
tp2392
I2
s(I-13
I-4
tp2393
I5
s(I4
I4
tp2394
I3
s(I19
I-1
tp2395
I2
s(I-19
I11
tp2396
I0
s(I16
I15
tp2397
I5
s(I-19
I-12
tp2398
I2
s(I-8
I20
tp2399
I1
s(I19
I-16
tp2400
I3
s(I16
I-3
tp2401
I3
s(I-10
I-3
tp2402
I2
s(I-4
I0
tp2403
I0
s(I0
I23
tp2404
I4
s(I0
I-20
tp2405
I1
s(I1
I8
tp2406
I3
s(I4
I3
tp2407
I2
s(I-10
I6
tp2408
I3
s(I-18
I-7
tp2409
I2
s(I-12
I6
tp2410
I3
s(I16
I6
tp2411
I4
s(I-9
I-1
tp2412
I4
s(I-8
I-17
tp2413
I4
s(I-19
I7
tp2414
I4
s(I21
I8
tp2415
I2
s(I16
I-12
tp2416
I1
s(I11
I11
tp2417
I5
s(I-10
I-12
tp2418
I5
s(I-6
I-4
tp2419
I4
s(I-14
I-8
tp2420
I0
s(I-16
I19
tp2421
I2
s(I1
I1
tp2422
I5
s(I-4
I-14
tp2423
I2
s(I-19
I-2
tp2424
I4
s(I-7
I-2
tp2425
I5
s(I-19
I0
tp2426
I3
s(I17
I18
tp2427
I3
s(I16
I-21
tp2428
I3
s(I7
I-3
tp2429
I3
s(I-7
I5
tp2430
I5
s(I4
I-18
tp2431
I3
s(I-10
I-11
tp2432
I2
s(I0
I10
tp2433
I2
s(I-11
I-18
tp2434
I4
s(I-16
I10
tp2435
I0
s(I-13
I7
tp2436
I3
s(I-10
I16
tp2437
I2
s(I3
I7
tp2438
I0
s(I-19
I-5
tp2439
I1
s(I-8
I-3
tp2440
I4
s(I-22
I4
tp2441
I1
s(I-17
I-11
tp2442
I2
s(I20
I0
tp2443
I1
s(I18
I-4
tp2444
I2
s(I2
I-1
tp2445
I1
s(I11
I9
tp2446
I5
s(I-3
I10
tp2447
I2
s(I14
I6
tp2448
I1
s(I0
I-15
tp2449
I2
s(I-13
I12
tp2450
I4
s(I21
I7
tp2451
I2
s(I5
I7
tp2452
I2
s(I-9
I8
tp2453
I3
s(I22
I-13
tp2454
I2
s(I-17
I-14
tp2455
I5
s(I8
I19
tp2456
I0
s(I3
I-3
tp2457
I1
s(I-3
I18
tp2458
I4
s(I-14
I-11
tp2459
I5
s(I-13
I21
tp2460
I1
s(I17
I2
tp2461
I2
s(I24
I-15
tp2462
I2
s(I-2
I-15
tp2463
I2
s(I-4
I-13
tp2464
I2
s(I-5
I-1
tp2465
I5
s(I-9
I1
tp2466
I4
s(I17
I5
tp2467
I4
s(I4
I-15
tp2468
I1
s(I-15
I5
tp2469
I5
s(I-7
I21
tp2470
I1
s(I-17
I14
tp2471
I4
s(I11
I7
tp2472
I5
s(I-14
I-20
tp2473
I2
s(I-15
I16
tp2474
I4
s(I-1
I-8
tp2475
I4
s(I5
I9
tp2476
I2
s(I-2
I19
tp2477
I4
s(I9
I14
tp2478
I5
s(I-15
I-5
tp2479
I1
s(I15
I-16
tp2480
I4
s(I3
I-21
tp2481
I1
s(I-2
I-11
tp2482
I4
s(I12
I21
tp2483
I0
s(I15
I-9
tp2484
I1
s(I-12
I2
tp2485
I3
s(I-9
I23
tp2486
I1
s(I9
I-18
tp2487
I1
s(I6
I19
tp2488
I0
s(I-11
I-2
tp2489
I2
s(I21
I-11
tp2490
I2
s(I18
I-8
tp2491
I4
s(I17
I17
tp2492
I3
s(I8
I8
tp2493
I1
s(I-6
I11
tp2494
I4
s(I-13
I13
tp2495
I4
s(I13
I-1
tp2496
I3
s(I-4
I-4
tp2497
I4
s(I-10
I15
tp2498
I2
s(I12
I12
tp2499
I5
s(I2
I-21
tp2500
I1
s(I15
I1
tp2501
I3
s(I15
I-4
tp2502
I3
s(I-1
I-22
tp2503
I2
s(I-12
I9
tp2504
I3
s(I7
I-6
tp2505
I3
s(I-13
I-12
tp2506
I0
s(I-6
I-10
tp2507
I2
s(I21
I-2
tp2508
I2
s(I-18
I15
tp2509
I4
s(I-18
I-11
tp2510
I2
s(I-21
I-14
tp2511
I0
s(I8
I15
tp2512
I5
s(I14
I-4
tp2513
I3
s(I9
I16
tp2514
I5
s(I12
I11
tp2515
I5
s(I-3
I-14
tp2516
I2
s(I15
I14
tp2517
I2
s(I-2
I-19
tp2518
I5
s(I-12
I16
tp2519
I1
s(I-16
I14
tp2520
I4
s(I3
I18
tp2521
I1
s(I6
I13
tp2522
I5
s(I-18
I11
tp2523
I0
s(I-2
I5
tp2524
I2
s(I2
I11
tp2525
I2
s(I-5
I-16
tp2526
I5
s(I2
I-3
tp2527
I1
s(I-21
I-2
tp2528
I3
s(I9
I-3
tp2529
I4
s(I-11
I-19
tp2530
I4
s(I-19
I14
tp2531
I4
s(I3
I27
tp2532
I0
s(I6
I4
tp2533
I1
s(I-16
I11
tp2534
I4
s(I20
I-17
tp2535
I3
s(I13
I-8
tp2536
I1
s(I9
I2
tp2537
I5
s(I-5
I15
tp2538
I1
s(I-2
I8
tp2539
I2
s(I20
I6
tp2540
I2
s(I10
I-19
tp2541
I1
s(I14
I-16
tp2542
I4
s(I-20
I2
tp2543
I1
s(I-3
I-1
tp2544
I4
s(I-11
I1
tp2545
I3
s(I4
I-8
tp2546
I3
s(I8
I-22
tp2547
I0
s(I-14
I17
tp2548
I4
s(I6
I2
tp2549
I2
s(I-7
I-22
tp2550
I4
s(I20
I-10
tp2551
I2
s(I-17
I3
tp2552
I1
s(I9
I11
tp2553
I5
s(I5
I-6
tp2554
I3
s(I2
I8
tp2555
I0
s(I13
I15
tp2556
I4
s(I1
I-18
tp2557
I1
s(I12
I15
tp2558
I4
s(I-16
I-4
tp2559
I1
s(I-14
I7
tp2560
I5
s(I3
I9
tp2561
I3
s(I-11
I10
tp2562
I4
s(I15
I2
tp2563
I0
s(I7
I13
tp2564
I5
s(I-17
I8
tp2565
I0
s(I22
I1
tp2566
I2
s(I-8
I0
tp2567
I4
s(I-9
I-14
tp2568
I2
s(I12
I-20
tp2569
I1
s(I-8
I-2
tp2570
I4
s(I10
I21
tp2571
I0
s(I13
I8
tp2572
I5
s(I0
I3
tp2573
I5
s(I-3
I-16
tp2574
I2
s(I-11
I19
tp2575
I1
s(I-17
I-12
tp2576
I2
s(I-4
I-17
tp2577
I5
s(I20
I-15
tp2578
I2
s(I-7
I-12
tp2579
I2
s(I16
I18
tp2580
I3
s(I-17
I17
tp2581
I4
s(I-4
I-5
tp2582
I4
s(I-8
I7
tp2583
I5
s(I10
I-6
tp2584
I4
s(I13
I1
tp2585
I3
s(I1
I-8
tp2586
I4
s(I13
I3
tp2587
I0
s(I-17
I6
tp2588
I0
s(I1
I-6
tp2589
I0
s(I-7
I-3
tp2590
I2
s(I-23
I0
tp2591
I1
s(I16
I9
tp2592
I2
s(I19
I4
tp2593
I2
s(I6
I9
tp2594
I2
s(I10
I7
tp2595
I5
s(I4
I-14
tp2596
I3
s(I1
I-15
tp2597
I2
s(I18
I-18
tp2598
I5
s(I2
I-16
tp2599
I1
s(I4
I5
tp2600
I0
s(I10
I-16
tp2601
I1
s(I-1
I-1
tp2602
I4
s(I23
I-9
tp2603
I2
s(I-18
I-8
tp2604
I2
s(I-12
I5
tp2605
I3
s(I16
I0
tp2606
I3
s(I7
I-2
tp2607
I4
s(I-19
I-13
tp2608
I0
s(I-8
I21
tp2609
I1
s(I19
I-13
tp2610
I2
s(I16
I-2
tp2611
I2
s(I-11
I-10
tp2612
I0
s(I10
I14
tp2613
I5
s(I-4
I1
tp2614
I0
s(I3
I-9
tp2615
I3
s(I25
I-15
tp2616
I2
s(I-14
I-5
tp2617
I1
s(I0
I-19
tp2618
I1
s(I0
I-14
tp2619
I2
s(I-4
I-12
tp2620
I5
s(I-10
I7
tp2621
I3
s(I16
I7
tp2622
I2
s(I-1
I-9
tp2623
I4
s(I13
I-15
tp2624
I1
s(I-8
I-16
tp2625
I4
s(I19
I-8
tp2626
I4
s(I16
I-11
tp2627
I1
s(I10
I1
tp2628
I0
s(I23
I6
tp2629
I2
s(I-7
I3
tp2630
I4
s(I10
I9
tp2631
I5
s(I10
I8
tp2632
I5
s(I-14
I8
tp2633
I5
s(I-18
I-4
tp2634
I1
s(I1
I0
tp2635
I5
s(I-13
I1
tp2636
I3
s(I4
I11
tp2637
I3
s(I7
I3
tp2638
I2
s(I3
I4
tp2639
I3
s(I11
I-13
tp2640
I1
s(I-8
I-9
tp2641
I4
s(I-17
I-17
tp2642
I2
s(I16
I-20
tp2643
I3
s(I15
I0
tp2644
I3
s(I-7
I4
tp2645
I4
s(I8
I-18
tp2646
I1
s(I4
I-17
tp2647
I3
s(I-12
I-2
tp2648
I2
s(I11
I19
tp2649
I5
s(I0
I-5
tp2650
I1
s(I-13
I6
tp2651
I3
s(I-10
I17
tp2652
I2
s(I-5
I-8
tp2653
I2
s(I9
I-11
tp2654
I1
s(I-8
I-1
tp2655
I5
s(I17
I10
tp2656
I2
s(I20
I1
tp2657
I2
s(I-7
I13
tp2658
I4
s(I17
I-10
tp2659
I2
s(I11
I8
tp2660
I5
s(I-3
I9
tp2661
I2
s(I-3
I19
tp2662
I4
s(I14
I7
tp2663
I1
s(I-16
I2
tp2664
I4
s(I-13
I15
tp2665
I1
s(I-17
I-3
tp2666
I1
s(I7
I16
tp2667
I1
s(I4
I10
tp2668
I3
s(I5
I6
tp2669
I0
s(I-9
I11
tp2670
I5
s(I17
I3
tp2671
I0
s(I20
I8
tp2672
I2
s(I-17
I15
tp2673
I4
s(I11
I1
tp2674
I2
s(I-3
I2
tp2675
I5
s(I14
I14
tp2676
I5
s(I-13
I20
tp2677
I1
s(I24
I-14
tp2678
I2
s(I-2
I-10
tp2679
I5
s(I-5
I-15
tp2680
I5
s(I-9
I0
tp2681
I4
s(I17
I4
tp2682
I4
s(I2
I-18
tp2683
I1
s(I-9
I-15
tp2684
I4
s(I-6
I6
tp2685
I3
s(I-11
I-8
tp2686
I0
s(I14
I17
tp2687
I3
s(I-14
I9
tp2688
I4
s(I-14
I-19
tp2689
I2
s(I-8
I-10
tp2690
I4
s(I-1
I-7
tp2691
I4
s(I8
I20
tp2692
I0
s(I5
I8
tp2693
I2
s(I-9
I17
tp2694
I1
s(I19
I-2
tp2695
I2
s(I21
I-21
tp2696
I5
s(I18
I-1
tp2697
I2
s(I18
I20
tp2698
I5
s(I-17
I-20
tp2699
I2
s(I8
I2
tp2700
I2
s(I-6
I1
tp2701
I0
s(I-3
I20
tp2702
I4
s(I-12
I-18
tp2703
I4
s(I-15
I8
tp2704
I0
s(I-12
I3
tp2705
I3
s(I13
I11
tp2706
I5
s(I21
I-12
tp2707
I2
s(I-18
I5
tp2708
I4
s(I18
I15
tp2709
I3
s(I21
I2
tp2710
I2
s(I8
I9
tp2711
I1
s(I-6
I8
tp2712
I5
s(I12
I13
tp2713
I5
s(I-2
I20
tp2714
I4
s(I-15
I-1
tp2715
I4
s(I-15
I1
tp2716
I4
s(I19
I11
tp2717
I2
s(I-2
I-21
tp2718
I2
s(I-12
I10
tp2719
I4
s(I5
I-11
tp2720
I4
s(I-6
I-9
tp2721
I5
s(I-18
I12
tp2722
I4
s(I18
I6
tp2723
I2
s(I2
I-8
tp2724
I4
s(I-1
I-10
tp2725
I2
s(I15
I16
tp2726
I4
s(I5
I15
tp2727
I1
s(I-15
I-9
tp2728
I5
s(I9
I-1
tp2729
I5
s(I-12
I17
tp2730
I2
s(I11
I16
tp2731
I5
s(I8
I10
tp2732
I3
s(I-6
I-2
tp2733
I5
s(I8
I-3
tp2734
I4
s(I18
I-21
tp2735
I5
s(I18
I1
tp2736
I2
s(I0
I-6
tp2737
I0
s(I-17
I-6
tp2738
I1
s(I13
I-7
tp2739
I3
s(I-7
I-9
tp2740
I2
s(I12
I3
tp2741
I5
s(I-2
I6
tp2742
I2
s(I15
I22
tp2743
I5
s(I-14
I18
tp2744
I4
s(I-21
I-1
tp2745
I3
s(I-20
I1
tp2746
I1
s(I-11
I7
tp2747
I3
s(I-6
I-7
tp2748
I2
s(I-24
I4
tp2749
I3
s(I-14
I16
tp2750
I4
s(I10
I-2
tp2751
I0
s(I-17
I5
tp2752
I4
s(I2
I-12
tp2753
I3
s(I9
I1
tp2754
I0
s(I5
I-16
tp2755
I1
s(I2
I-11
tp2756
I4
s(I2
I13
tp2757
I2
s(I-13
I-21
tp2758
I2
s(I-12
I-10
tp2759
I0
s(I14
I-15
tp2760
I1
s(I-3
I-3
tp2761
I4
s(I11
I-2
tp2762
I3
s(I-15
I-3
tp2763
I1
s(I15
I-1
tp2764
I3
s(I20
I-9
tp2765
I2
s(I-17
I2
tp2766
I4
s(I-22
I-13
tp2767
I0
s(I-9
I-12
tp2768
I2
s(I-12
I11
tp2769
I4
s(I22
I-8
tp2770
I2
s(I13
I14
tp2771
I5
s(I1
I-19
tp2772
I2
s(I-16
I-3
tp2773
I4
s(I14
I-8
tp2774
I1
s(I3
I8
tp2775
I0
s(I-11
I9
tp2776
I3
s(I-7
I-14
tp2777
I2
s(I20
I-2
tp2778
I2
s(I-17
I11
tp2779
I0
s(I22
I6
tp2780
I2
s(I-8
I1
tp2781
I4
s(I-10
I1
tp2782
I3
s(I-10
I-18
tp2783
I4
s(I13
I7
tp2784
I1
s(I0
I4
tp2785
I2
s(I-11
I18
tp2786
I1
s(I13
I4
tp2787
I1
s(I4
I16
tp2788
I1
s(I-7
I-5
tp2789
I0
s(I-16
I-9
tp2790
I5
s(I16
I19
tp2791
I5
s(I-17
I16
tp2792
I4
s(I6
I8
tp2793
I2
s(I-8
I8
tp2794
I5
s(I-19
I6
tp2795
I0
s(I4
I-12
tp2796
I3
s(I-13
I-1
tp2797
I3
s(I5
I-2
tp2798
I1
s(I-10
I10
tp2799
I3
s(I-2
I-7
tp2800
I4
s(I-7
I-4
tp2801
I4
s(I-18
I-5
tp2802
I1
s(I-12
I4
tp2803
I3
s(I16
I10
tp2804
I2
s(I19
I7
tp2805
I2
s(I-5
I-10
tp2806
I2
s(I19
I-19
tp2807
I5
s(I-9
I-11
tp2808
I2
s(I16
I-8
tp2809
I4
s(I-11
I-9
tp2810
I0
s(I-10
I-8
tp2811
I4
s(I-4
I11
tp2812
I4
s(I3
I-12
tp2813
I3
s(I1
I-16
tp2814
I5
s(I-16
I1
tp2815
I4
s(I-4
I-1
tp2816
I5
s(I16
I1
tp2817
I3
s(I-19
I-14
tp2818
I0
s(I13
I-14
tp2819
I1
s(I-7
I-8
tp2820
I5
s(I19
I-14
tp2821
I2
s(I-2
I1
tp2822
I5
s(I13
I19
tp2823
I3
s(I23
I8
tp2824
I2
s(I-10
I-13
tp2825
I0
s(I4
I-6
tp2826
I3
s(I10
I11
tp2827
I5
s(I0
I8
tp2828
I2
s(I14
I-9
tp2829
I1
s(I-22
I-12
tp2830
I0
s(I-4
I-11
tp2831
I5
s(I-10
I4
tp2832
I3
s(I-3
I-5
tp2833
I4
s(I-19
I-3
tp2834
I3
s(I-11
I14
tp2835
I2
s(I-8
I-15
tp2836
I4
s(I22
I-20
tp2837
I2
s(I-19
I5
tp2838
I4
s(I16
I-10
tp2839
I1
s(I23
I1
tp2840
I2
s(I-7
I2
tp2841
I4
s(I12
I5
tp2842
I1
s(I18
I-2
tp2843
I2
s(I-13
I0
tp2844
I3
s(I-15
I-10
tp2845
I5
s(I-5
I-7
tp2846
I2
s(I5
I19
tp2847
I1
s(I-8
I-8
tp2848
I4
s(I-17
I-18
tp2849
I2
s(I16
I-19
tp2850
I3
s(I-7
I11
tp2851
I4
s(I-2
I2
tp2852
I5
s(I11
I18
tp2853
I5
s(I3
I-15
tp2854
I5
s(I-16
I12
tp2855
I0
s(I-4
I6
tp2856
I2
s(I13
I-9
tp2857
I1
s(I17
I12
tp2858
I2
s(I7
I17
tp2859
I1
s(I-4
I-15
tp2860
I5
s(I-9
I13
tp2861
I4
s(I17
I9
tp2862
I2
s(I20
I2
tp2863
I2
s(I-7
I12
tp2864
I4
s(I2
I0
tp2865
I5
s(I-17
I12
tp2866
I4
s(I-5
I-2
tp2867
I5
s(I-11
I-11
tp2868
I5
s(I3
I-10
tp2869
I4
s(I14
I4
tp2870
I1
s(I-16
I3
tp2871
I4
s(I13
I-16
tp2872
I1
s(I-5
I-5
tp2873
I4
s(I-9
I10
tp2874
I5
s(I8
I-2
tp2875
I4
s(I22
I-15
tp2876
I2
s(I-17
I-4
tp2877
I4
s(I-20
I-15
tp2878
I0
s(I18
I2
tp2879
I2
s(I7
I-21
tp2880
I0
s(I-9
I-10
tp2881
I2
s(I8
I21
tp2882
I0
s(I15
I-10
tp2883
I1
s(I-11
I-1
tp2884
I2
s(I-3
I1
tp2885
I5
s(I14
I15
tp2886
I2
s(I18
I-24
tp2887
I5
s(I24
I-13
tp2888
I2
s(I-2
I-9
tp2889
I5
s(I-1
I10
tp2890
I2
s(I5
I14
tp2891
I1
s(I-9
I3
tp2892
I3
s(I-3
I3
tp2893
I5
s(I17
I19
tp2894
I5
s(I-6
I7
tp2895
I5
s(I14
I9
tp2896
I5
s(I14
I22
tp2897
I5
s(I10
I-11
tp2898
I2
s(I2
I2
tp2899
I5
s(I12
I-3
tp2900
I3
s(I23
I-6
tp2901
I2
s(I-7
I6
tp2902
I5
s(I-13
I-14
tp2903
I0
s(I-18
I3
tp2904
I1
s(I18
I21
tp2905
I5
s(I8
I3
tp2906
I5
s(I-6
I14
tp2907
I4
s(I3
I-19
tp2908
I2
s(I14
I-1
tp2909
I3
s(I-12
I-17
tp2910
I4
s(I-2
I18
tp2911
I4
s(I3
I10
tp2912
I3
s(I15
I-15
tp2913
I4
s(I19
I8
tp2914
I2
s(I-12
I12
tp2915
I4
s(I9
I-17
tp2916
I1
s(I6
I17
tp2917
I1
s(I8
I-16
tp2918
I1
s(I21
I-13
tp2919
I2
s(I0
I-13
tp2920
I2
s(I-18
I10
tp2921
I0
s(I18
I12
tp2922
I2
s(I-1
I7
tp2923
I2
s(I-1
I-15
tp2924
I2
s(I-6
I9
tp2925
I5
s(I-18
I-13
tp2926
I0
s(I12
I14
tp2927
I5
s(I-21
I-4
tp2928
I3
s(I15
I-2
tp2929
I3
s(I12
I-13
tp2930
I1
s(I19
I-10
tp2931
I4
s(I-6
I-12
tp2932
I2
s(I-21
I2
tp2933
I1
s(I18
I-15
tp2934
I2
s(I18
I7
tp2935
I2
s(I-16
I9
tp2936
I0
s(I-21
I-12
tp2937
I0
s(I-17
I-5
tp2938
I1
s(I-13
I4
tp2939
I5
s(I9
I22
tp2940
I0
s(I-7
I-16
tp2941
I5
s(I-12
I-3
tp2942
I5
s(I15
I8
tp2943
I2
s(I-12
I18
tp2944
I2
s(I24
I0
tp2945
I2
s(I-10
I19
tp2946
I1
s(I20
I-8
tp2947
I2
s(I4
I-2
tp2948
I1
s(I6
I3
tp2949
I2
s(I8
I-1
tp2950
I4
s(I14
I-17
tp2951
I4
s(I-14
I0
tp2952
I4
s(I5
I-10
tp2953
I4
s(I-2
I7
tp2954
I2
s(I15
I17
tp2955
I3
s(I-14
I-15
tp2956
I0
s(I-12
I-11
tp2957
I0
s(I-14
I19
tp2958
I2
s(I-11
I6
tp2959
I3
s(I-24
I5
tp2960
I3
ss.