(dp0
S'gyr_r'
p1
(dp2
I0
F0.31426968052735443
sI1
F0.31426968052735443
sI2
F0.8089010988089465
sI3
F1.511274500970605
sI4
F2.5251818171918914
ssS'gens'
p3
(lp4
(lp5
(lp6
I0
aI0
aI0
aaa(lp7
(lp8
I0
aI0
aI1
aaa(lp9
(lp10
I-1
aI0
aI2
aa(lp11
I0
aI1
aI2
aaa(lp12
(lp13
I1
aI0
aI3
aa(lp14
I-2
aI0
aI3
aa(lp15
I1
aI1
aI3
aaa(lp16
(lp17
I2
aI0
aI4
aa(lp18
I-3
aI0
aI4
aaasS'pop'
p19
(dp20
I0
I1
sI1
I2
sI2
I4
sI3
I7
sI4
I9
ssS'max_r'
p21
(dp22
I0
F0.31426968052735443
sI1
F0.31426968052735443
sI2
F0.8089010988089465
sI3
F1.7916128329552332
sI4
F2.7866524897743226
ssS'params'
p23
(F1.8
I5
tp24
sS'infected'
p25
(lp26
g6
ag8
ag10
ag11
ag13
ag14
ag15
ag17
ag18
asS'mean_r'
p27
(dp28
I0
F0.31426968052735443
sI1
F0.31426968052735443
sI2
F0.8089010988089465
sI3
F1.4941948220185683
sI4
F2.509979091678371
ss.