(dp0
S'gyr_r'
p1
(dp2
I0
F0.09300816647554057
sI1
F0.0
sI2
F1.0331863570735467
sI3
F0.9122389658394601
sI4
F1.5110130121718708
sI5
F1.4581829713224164
sI6
F2.2301023298010523
sI7
F3.9193866478700117
sI8
F5.429478681634661
sI9
F5.609587689700813
ssS'gens'
p3
(lp4
(lp5
(lp6
I0
aI0
aI0
aaa(lp7
a(lp8
(lp9
I-1
aI0
aI2
aaa(lp10
(lp11
I0
aI1
aI3
aaa(lp12
(lp13
I1
aI0
aI4
aa(lp14
I-2
aI0
aI4
aa(lp15
I1
aI1
aI4
aaa(lp16
(lp17
I1
aI-1
aI5
aaa(lp18
(lp19
I-1
aI-1
aI6
aa(lp20
I0
aI-1
aI6
aa(lp21
I2
aI0
aI6
aa(lp22
I-2
aI1
aI6
aa(lp23
I-2
aI3
aI6
aaa(lp24
(lp25
I-3
aI0
aI7
aa(lp26
I4
aI0
aI7
aa(lp27
I-4
aI1
aI7
aa(lp28
I-2
aI4
aI7
aaa(lp29
(lp30
I-4
aI0
aI8
aa(lp31
I2
aI2
aI8
aa(lp32
I3
aI-1
aI8
aa(lp33
I-1
aI-2
aI8
aa(lp34
I-2
aI2
aI8
aa(lp35
I8
aI-9
aI8
aa(lp36
I4
aI1
aI8
aa(lp37
I-5
aI1
aI8
aaa(lp38
(lp39
I-1
aI1
aI9
aa(lp40
I2
aI1
aI9
aa(lp41
I-1
aI-4
aI9
aa(lp42
I2
aI-1
aI9
aa(lp43
I-1
aI4
aI9
aa(lp44
I-3
aI1
aI9
aa(lp45
I-2
aI6
aI9
aa(lp46
I8
aI-10
aI9
aa(lp47
I5
aI1
aI9
aa(lp48
I-5
aI2
aI9
aaasS'pop'
p49
(dp50
I0
I1
sI1
I1
sI2
I2
sI3
I3
sI4
I6
sI5
I7
sI6
I12
sI7
I16
sI8
I24
sI9
I34
ssS'max_r'
p51
(dp52
I0
F0.09300816647554057
sI1
I0
sI2
F1.0331863570735467
sI3
F0.9122389658394601
sI4
F2.0313290176272947
sI5
F1.4581829713224164
sI6
F3.5492091813738997
sI7
F4.406860018756381
sI8
F12.088271074800344
sI9
F12.857012412146531
ssS'params'
p53
(F1.8
I10
tp54
sS'infected'
p55
(lp56
g6
ag9
ag11
ag13
ag14
ag15
ag17
ag19
ag20
ag21
ag22
ag23
ag25
ag26
ag27
ag28
ag30
ag31
ag32
ag33
ag34
ag35
ag36
ag37
ag39
ag40
ag41
ag42
ag43
ag44
ag45
ag46
ag47
ag48
asS'mean_r'
p57
(dp58
I0
F0.09300816647554057
sI1
I0
sI2
F1.0331863570735467
sI3
F0.9122389658394601
sI4
F1.445864660211538
sI5
F1.4581829713224164
sI6
F2.066641074535777
sI7
F3.8851012375786325
sI8
F4.541177021431502
sI9
F4.676341209593809
ss.