(dp0
S'gyr_r'
p1
(dp2
I0
F9.074825317943759
sI1
F8.95608415074568
sI2
F8.05278823584836
sI3
F7.764964239420264
sI4
F7.720656752732576
sI5
F7.598251662979093
sI6
F7.645298025062005
sI7
F7.796015381930835
sI8
F7.751997535290378
sI9
F7.800908652450847
sI10
F7.928208869001347
sI11
F7.9242282754723306
sI12
F8.055658237836683
sI13
F8.22796177539641
sI14
F8.466605823025528
sI15
F8.679623176900432
sI16
F8.80493518476402
sI17
F9.067477732470367
sI18
F9.41565121083044
sI19
F9.719088590914252
sI20
F10.132225852957774
sI21
F10.479142659112533
sI22
F10.885656556936883
sI23
F11.240736919889345
sI24
F11.643712029606966
sI25
F12.076744334687971
sI26
F12.50159175080335
sI27
F13.009031573335475
sI28
F13.614981716004605
sI29
F14.041976608010376
sI30
F14.487237170532902
sI31
F14.962532499360064
sI32
F15.380291778144937
sI33
F15.933154693716823
sI34
F16.4111580064035
sI35
F16.879390822161024
sI36
F17.459197549648643
sI37
F18.023908073443152
sI38
F18.52756163602503
sI39
F19.10667620256566
sI40
F19.669692231841903
sI41
F20.251356784623397
sI42
F20.79704960969987
sI43
F21.40358621693505
sI44
F21.958171305868564
sI45
F22.479761371029156
sI46
F23.0644522279702
sI47
F23.68012009839058
sI48
F24.172399870333283
sI49
F24.774382280067393
ssS'gens'
p3
(lp4
(lp5
(lp6
I0
aI0
aI0
aaa(lp7
(lp8
I1
aI0
aI1
aaa(lp9
(lp10
I0
aI2
aI2
aa(lp11
I1
aI2
aI2
aaa(lp12
(lp13
I0
aI1
aI3
aa(lp14
I1
aI1
aI3
aa(lp15
I1
aI3
aI3
aaa(lp16
(lp17
I0
aI-1
aI4
aa(lp18
I2
aI0
aI4
aa(lp19
I0
aI3
aI4
aa(lp20
I3
aI2
aI4
aa(lp21
I2
aI3
aI4
aaa(lp22
(lp23
I3
aI1
aI5
aa(lp24
I4
aI2
aI5
aa(lp25
I2
aI2
aI5
aaa(lp26
(lp27
I-1
aI-1
aI6
aa(lp28
I0
aI4
aI6
aa(lp29
I5
aI2
aI6
aaa(lp30
(lp31
I1
aI-1
aI7
aa(lp32
I-1
aI1
aI7
aa(lp33
I3
aI0
aI7
aa(lp34
I3
aI3
aI7
aa(lp35
I0
aI-2
aI7
aa(lp36
I-2
aI3
aI7
aa(lp37
I2
aI4
aI7
aa(lp38
I-2
aI-1
aI7
aa(lp39
I1
aI4
aI7
aa(lp40
I8
aI6
aI7
aaa(lp41
(lp42
I-1
aI2
aI8
aa(lp43
I2
aI1
aI8
aa(lp44
I2
aI-1
aI8
aa(lp45
I-1
aI4
aI8
aa(lp46
I5
aI3
aI8
aa(lp47
I-2
aI2
aI8
aa(lp48
I2
aI5
aI8
aa(lp49
I-2
aI0
aI8
aaa(lp50
(lp51
I3
aI-1
aI9
aa(lp52
I4
aI1
aI9
aa(lp53
I5
aI1
aI9
aa(lp54
I-1
aI3
aI9
aa(lp55
I4
aI4
aI9
aa(lp56
I-2
aI1
aI9
aa(lp57
I-3
aI-1
aI9
aa(lp58
I-5
aI10
aI9
aa(lp59
I4
aI3
aI9
aa(lp60
I3
aI8
aI9
aa(lp61
I-3
aI0
aI9
aaa(lp62
(lp63
I-1
aI0
aI10
aa(lp64
I1
aI-2
aI10
aa(lp65
I-1
aI-2
aI10
aa(lp66
I6
aI2
aI10
aa(lp67
I3
aI4
aI10
aa(lp68
I5
aI6
aI10
aa(lp69
I9
aI6
aI10
aa(lp70
I2
aI-3
aI10
aa(lp71
I3
aI5
aI10
aa(lp72
I3
aI-2
aI10
aa(lp73
I4
aI0
aI10
aa(lp74
I5
aI4
aI10
aa(lp75
I-3
aI-2
aI10
aa(lp76
I-4
aI11
aI10
aa(lp77
I2
aI8
aI10
aaa(lp78
(lp79
I0
aI5
aI11
aa(lp80
I0
aI-3
aI11
aa(lp81
I-3
aI3
aI11
aa(lp82
I2
aI-2
aI11
aa(lp83
I-3
aI2
aI11
aa(lp84
I1
aI5
aI11
aa(lp85
I7
aI4
aI11
aa(lp86
I-4
aI10
aI11
aa(lp87
I-3
aI1
aI11
aa(lp88
I-2
aI-2
aI11
aa(lp89
I4
aI6
aI11
aa(lp90
I14
aI6
aI11
aa(lp91
I4
aI5
aI11
aa(lp92
I6
aI4
aI11
aa(lp93
I-4
aI12
aI11
aa(lp94
I2
aI7
aI11
aaa(lp95
(lp96
I5
aI0
aI12
aa(lp97
I-2
aI4
aI12
aa(lp98
I-1
aI5
aI12
aa(lp99
I7
aI3
aI12
aa(lp100
I8
aI4
aI12
aa(lp101
I4
aI9
aI12
aa(lp102
I-4
aI0
aI12
aa(lp103
I11
aI0
aI12
aa(lp104
I5
aI5
aI12
aa(lp105
I11
aI6
aI12
aa(lp106
I3
aI-3
aI12
aa(lp107
I-5
aI11
aI12
aa(lp108
I-1
aI6
aI12
aa(lp109
I0
aI-4
aI12
aa(lp110
I-3
aI4
aI12
aa(lp111
I-4
aI9
aI12
aa(lp112
I15
aI6
aI12
aa(lp113
I-5
aI12
aI12
aaa(lp114
(lp115
I6
aI5
aI13
aa(lp116
I-7
aI12
aI13
aa(lp117
I3
aI9
aI13
aa(lp118
I6
aI6
aI13
aa(lp119
I2
aI-4
aI13
aa(lp120
I-3
aI-3
aI13
aa(lp121
I1
aI8
aI13
aa(lp122
I0
aI6
aI13
aa(lp123
I-1
aI-3
aI13
aa(lp124
I7
aI6
aI13
aa(lp125
I-2
aI-3
aI13
aa(lp126
I7
aI5
aI13
aa(lp127
I4
aI10
aI13
aa(lp128
I-5
aI0
aI13
aa(lp129
I11
aI1
aI13
aa(lp130
I11
aI7
aI13
aa(lp131
I-6
aI11
aI13
aa(lp132
I-1
aI-5
aI13
aa(lp133
I-4
aI4
aI13
aa(lp134
I-5
aI13
aI13
aaa(lp135
(lp136
I8
aI5
aI14
aa(lp137
I2
aI6
aI14
aa(lp138
I-5
aI2
aI14
aa(lp139
I-3
aI10
aI14
aa(lp140
I1
aI-3
aI14
aa(lp141
I6
aI1
aI14
aa(lp142
I7
aI8
aI14
aa(lp143
I-4
aI14
aI14
aa(lp144
I-4
aI3
aI14
aa(lp145
I6
aI7
aI14
aa(lp146
I3
aI7
aI14
aa(lp147
I7
aI2
aI14
aa(lp148
I9
aI3
aI14
aa(lp149
I-4
aI1
aI14
aa(lp150
I10
aI0
aI14
aa(lp151
I10
aI6
aI14
aa(lp152
I3
aI-4
aI14
aa(lp153
I-2
aI6
aI14
aa(lp154
I-1
aI-4
aI14
aa(lp155
I-5
aI9
aI14
aa(lp156
I15
aI7
aI14
aa(lp157
I-6
aI12
aI14
aa(lp158
I2
aI10
aI14
aa(lp159
I1
aI-4
aI14
aa(lp160
I-3
aI-4
aI14
aa(lp161
I0
aI7
aI14
aa(lp162
I-5
aI-4
aI14
aa(lp163
I-2
aI-4
aI14
aa(lp164
I4
aI11
aI14
aa(lp165
I-5
aI1
aI14
aa(lp166
I-7
aI11
aI14
aa(lp167
I-6
aI5
aI14
aaa(lp168
(lp169
I7
aI7
aI15
aa(lp170
I6
aI3
aI15
aa(lp171
I3
aI6
aI15
aa(lp172
I-3
aI11
aI15
aa(lp173
I14
aI5
aI15
aa(lp174
I-1
aI7
aI15
aa(lp175
I6
aI0
aI15
aa(lp176
I8
aI3
aI15
aa(lp177
I5
aI9
aI15
aa(lp178
I-4
aI-1
aI15
aa(lp179
I11
aI2
aI15
aa(lp180
I-6
aI10
aI15
aa(lp181
I0
aI-6
aI15
aa(lp182
I-3
aI5
aI15
aa(lp183
I16
aI6
aI15
aa(lp184
I1
aI6
aI15
aa(lp185
I5
aI10
aI15
aa(lp186
I-7
aI2
aI15
aa(lp187
I10
aI7
aI15
aa(lp188
I-10
aI11
aI15
aa(lp189
I-2
aI-5
aI15
aa(lp190
I-5
aI4
aI15
aa(lp191
I-6
aI13
aI15
aa(lp192
I-4
aI2
aI15
aa(lp193
I-3
aI14
aI15
aa(lp194
I9
aI0
aI15
aa(lp195
I-5
aI8
aI15
aa(lp196
I15
aI9
aI15
aa(lp197
I3
aI11
aI15
aa(lp198
I5
aI-4
aI15
aa(lp199
I-4
aI-4
aI15
aa(lp200
I0
aI8
aI15
aa(lp201
I-5
aI-5
aI15
aa(lp202
I4
aI12
aI15
aa(lp203
I-7
aI10
aI15
aaa(lp204
(lp205
I-2
aI10
aI16
aa(lp206
I4
aI8
aI16
aa(lp207
I7
aI1
aI16
aa(lp208
I9
aI5
aI16
aa(lp209
I4
aI-3
aI16
aa(lp210
I4
aI-1
aI16
aa(lp211
I-7
aI13
aI16
aa(lp212
I1
aI7
aI16
aa(lp213
I5
aI-1
aI16
aa(lp214
I8
aI2
aI16
aa(lp215
I-4
aI8
aI16
aa(lp216
I-8
aI12
aI16
aa(lp217
I2
aI9
aI16
aa(lp218
I-5
aI-1
aI16
aa(lp219
I-3
aI9
aI16
aa(lp220
I6
aI8
aI16
aa(lp221
I-4
aI13
aI16
aa(lp222
I-5
aI3
aI16
aa(lp223
I9
aI2
aI16
aa(lp224
I3
aI-5
aI16
aa(lp225
I-2
aI7
aI16
aa(lp226
I3
aI12
aI16
aa(lp227
I15
aI5
aI16
aa(lp228
I12
aI2
aI16
aa(lp229
I-1
aI-7
aI16
aa(lp230
I5
aI11
aI16
aa(lp231
I-8
aI2
aI16
aa(lp232
I-10
aI10
aI16
aa(lp233
I8
aI-2
aI16
aa(lp234
I15
aI10
aI16
aa(lp235
I6
aI-4
aI16
aa(lp236
I5
aI12
aI16
aaa(lp237
(lp238
I10
aI5
aI17
aa(lp239
I5
aI7
aI17
aa(lp240
I14
aI7
aI17
aa(lp241
I16
aI7
aI17
aa(lp242
I1
aI9
aI17
aa(lp243
I11
aI8
aI17
aa(lp244
I-2
aI-7
aI17
aa(lp245
I-4
aI5
aI17
aa(lp246
I-6
aI14
aI17
aa(lp247
I6
aI10
aI17
aa(lp248
I10
aI1
aI17
aa(lp249
I-3
aI6
aI17
aa(lp250
I-11
aI12
aI17
aa(lp251
I3
aI10
aI17
aa(lp252
I-6
aI-4
aI17
aa(lp253
I-9
aI3
aI17
aa(lp254
I13
aI5
aI17
aa(lp255
I-1
aI12
aI17
aa(lp256
I7
aI0
aI17
aa(lp257
I-7
aI9
aI17
aa(lp258
I-11
aI11
aI17
aa(lp259
I-6
aI4
aI17
aa(lp260
I-3
aI13
aI17
aa(lp261
I8
aI0
aI17
aa(lp262
I14
aI9
aI17
aa(lp263
I-4
aI-3
aI17
aa(lp264
I5
aI-2
aI17
aa(lp265
I-3
aI7
aI17
aa(lp266
I-3
aI12
aI17
aa(lp267
I2
aI-5
aI17
aa(lp268
I2
aI11
aI17
aa(lp269
I12
aI1
aI17
aa(lp270
I-1
aI-6
aI17
aa(lp271
I6
aI11
aI17
aa(lp272
I-9
aI2
aI17
aa(lp273
I8
aI-3
aI17
aa(lp274
I16
aI10
aI17
aaa(lp275
(lp276
I4
aI-2
aI18
aa(lp277
I-6
aI-2
aI18
aa(lp278
I13
aI6
aI18
aa(lp279
I9
aI4
aI18
aa(lp280
I12
aI0
aI18
aa(lp281
I0
aI-5
aI18
aa(lp282
I-1
aI9
aI18
aa(lp283
I-6
aI1
aI18
aa(lp284
I11
aI-1
aI18
aa(lp285
I-6
aI9
aI18
aa(lp286
I1
aI18
aI18
aa(lp287
I-3
aI-5
aI18
aa(lp288
I-8
aI11
aI18
aa(lp289
I-6
aI6
aI18
aa(lp290
I0
aI-7
aI18
aa(lp291
I-2
aI5
aI18
aa(lp292
I17
aI6
aI18
aa(lp293
I-9
aI11
aI18
aa(lp294
I-2
aI14
aI18
aa(lp295
I5
aI-5
aI18
aa(lp296
I4
aI7
aI18
aa(lp297
I-10
aI0
aI18
aa(lp298
I-2
aI9
aI18
aa(lp299
I7
aI-3
aI18
aa(lp300
I16
aI5
aI18
aa(lp301
I13
aI0
aI18
aa(lp302
I-8
aI1
aI18
aa(lp303
I8
aI-1
aI18
aa(lp304
I11
aI5
aI18
aa(lp305
I0
aI9
aI18
aa(lp306
I-4
aI6
aI18
aa(lp307
I-11
aI13
aI18
aa(lp308
I-6
aI-5
aI18
aa(lp309
I-1
aI11
aI18
aa(lp310
I13
aI9
aI18
aa(lp311
I-4
aI-2
aI18
aa(lp312
I6
aI-2
aI18
aa(lp313
I-3
aI8
aI18
aa(lp314
I2
aI12
aI18
aa(lp315
I13
aI1
aI18
aa(lp316
I1
aI-6
aI18
aa(lp317
I-9
aI1
aI18
aaa(lp318
(lp319
I14
aI4
aI19
aa(lp320
I12
aI6
aI19
aa(lp321
I4
aI-5
aI19
aa(lp322
I8
aI7
aI19
aa(lp323
I4
aI-4
aI19
aa(lp324
I15
aI8
aI19
aa(lp325
I-7
aI5
aI19
aa(lp326
I-1
aI8
aI19
aa(lp327
I-7
aI3
aI19
aa(lp328
I-8
aI14
aI19
aa(lp329
I16
aI9
aI19
aa(lp330
I12
aI30
aI19
aa(lp331
I-4
aI-8
aI19
aa(lp332
I4
aI13
aI19
aa(lp333
I-1
aI10
aI19
aa(lp334
I5
aI8
aI19
aa(lp335
I-8
aI13
aI19
aa(lp336
I1
aI15
aI19
aa(lp337
I7
aI-2
aI19
aa(lp338
I13
aI7
aI19
aa(lp339
I12
aI8
aI19
aa(lp340
I-7
aI14
aI19
aa(lp341
I7
aI10
aI19
aa(lp342
I-9
aI6
aI19
aa(lp343
I-7
aI8
aI19
aa(lp344
I-11
aI10
aI19
aa(lp345
I8
aI1
aI19
aa(lp346
I-2
aI12
aI19
aa(lp347
I6
aI12
aI19
aa(lp348
I8
aI-7
aI19
aa(lp349
I17
aI8
aI19
aa(lp350
I-6
aI-1
aI19
aa(lp351
I13
aI-1
aI19
aa(lp352
I-6
aI2
aI19
aa(lp353
I18
aI6
aI19
aa(lp354
I4
aI-8
aI19
aa(lp355
I6
aI-3
aI19
aa(lp356
I-4
aI7
aI19
aa(lp357
I11
aI12
aI19
aa(lp358
I1
aI-7
aI19
aaa(lp359
(lp360
I-7
aI1
aI20
aa(lp361
I-4
aI15
aI20
aa(lp362
I10
aI3
aI20
aa(lp363
I16
aI4
aI20
aa(lp364
I-5
aI5
aI20
aa(lp365
I-7
aI17
aI20
aa(lp366
I-4
aI-5
aI20
aa(lp367
I6
aI-1
aI20
aa(lp368
I3
aI-6
aI20
aa(lp369
I15
aI3
aI20
aa(lp370
I13
aI2
aI20
aa(lp371
I0
aI-9
aI20
aa(lp372
I-10
aI5
aI20
aa(lp373
I9
aI-2
aI20
aa(lp374
I8
aI12
aI20
aa(lp375
I0
aI10
aI20
aa(lp376
I-3
aI-7
aI20
aa(lp377
I-6
aI15
aI20
aa(lp378
I-12
aI12
aI20
aa(lp379
I-5
aI-3
aI20
aa(lp380
I-10
aI3
aI20
aa(lp381
I-1
aI13
aI20
aa(lp382
I-8
aI9
aI20
aa(lp383
I8
aI11
aI20
aa(lp384
I-6
aI-3
aI20
aa(lp385
I2
aI16
aI20
aa(lp386
I-8
aI10
aI20
aa(lp387
I-6
aI7
aI20
aa(lp388
I17
aI5
aI20
aa(lp389
I6
aI-5
aI20
aa(lp390
I-11
aI1
aI20
aa(lp391
I12
aI5
aI20
aa(lp392
I-11
aI14
aI20
aa(lp393
I12
aI9
aI20
aa(lp394
I0
aI14
aI20
aa(lp395
I2
aI-6
aI20
aa(lp396
I-10
aI1
aI20
aa(lp397
I16
aI8
aI20
aa(lp398
I13
aI30
aI20
aa(lp399
I-4
aI-7
aI20
aa(lp400
I4
aI14
aI20
aa(lp401
I7
aI-1
aI20
aa(lp402
I7
aI9
aI20
aa(lp403
I-8
aI7
aI20
aa(lp404
I-8
aI8
aI20
aa(lp405
I9
aI1
aI20
aa(lp406
I6
aI13
aI20
aa(lp407
I-6
aI0
aI20
aa(lp408
I14
aI-1
aI20
aa(lp409
I18
aI5
aI20
aa(lp410
I1
aI-8
aI20
aaa(lp411
(lp412
I9
aI7
aI21
aa(lp413
I10
aI-1
aI21
aa(lp414
I11
aI9
aI21
aa(lp415
I12
aI7
aI21
aa(lp416
I-5
aI14
aI21
aa(lp417
I7
aI11
aI21
aa(lp418
I-4
aI16
aI21
aa(lp419
I1
aI10
aI21
aa(lp420
I-2
aI8
aI21
aa(lp421
I19
aI6
aI21
aa(lp422
I-10
aI12
aI21
aa(lp423
I9
aI-1
aI21
aa(lp424
I-5
aI-6
aI21
aa(lp425
I-6
aI3
aI21
aa(lp426
I-12
aI10
aI21
aa(lp427
I18
aI8
aI21
aa(lp428
I-2
aI-6
aI21
aa(lp429
I6
aI9
aI21
aa(lp430
I-8
aI3
aI21
aa(lp431
I0
aI12
aI21
aa(lp432
I-10
aI2
aI21
aa(lp433
I12
aI-1
aI21
aa(lp434
I3
aI16
aI21
aa(lp435
I-3
aI-6
aI21
aa(lp436
I-2
aI13
aI21
aa(lp437
I-10
aI-2
aI21
aa(lp438
I14
aI3
aI21
aa(lp439
I-12
aI13
aI21
aa(lp440
I0
aI11
aI21
aa(lp441
I5
aI-7
aI21
aa(lp442
I8
aI9
aI21
aa(lp443
I-8
aI15
aI21
aa(lp444
I-4
aI-9
aI21
aa(lp445
I3
aI13
aI21
aa(lp446
I2
aI15
aI21
aa(lp447
I13
aI8
aI21
aa(lp448
I-8
aI6
aI21
aa(lp449
I-2
aI11
aI21
aa(lp450
I9
aI-6
aI21
aa(lp451
I17
aI7
aI21
aa(lp452
I8
aI-6
aI21
aa(lp453
I5
aI-8
aI21
aa(lp454
I5
aI-3
aI21
aa(lp455
I12
aI12
aI21
aa(lp456
I-8
aI17
aI21
aa(lp457
I7
aI-4
aI21
aa(lp458
I15
aI4
aI21
aa(lp459
I9
aI11
aI21
aa(lp460
I8
aI10
aI21
aa(lp461
I-7
aI-3
aI21
aa(lp462
I5
aI17
aI21
aa(lp463
I-12
aI14
aI21
aa(lp464
I0
aI15
aI21
aa(lp465
I13
aI31
aI21
aa(lp466
I-5
aI-7
aI21
aa(lp467
I-9
aI7
aI21
aa(lp468
I-9
aI8
aI21
aa(lp469
I6
aI14
aI21
aa(lp470
I15
aI-2
aI21
aa(lp471
I19
aI5
aI21
aa(lp472
I1
aI-9
aI21
aaa(lp473
(lp474
I10
aI2
aI22
aa(lp475
I11
aI3
aI22
aa(lp476
I-14
aI-6
aI22
aa(lp477
I-2
aI-8
aI22
aa(lp478
I1
aI-5
aI22
aa(lp479
I5
aI13
aI22
aa(lp480
I9
aI-4
aI22
aa(lp481
I14
aI0
aI22
aa(lp482
I-5
aI6
aI22
aa(lp483
I-6
aI-6
aI22
aa(lp484
I-1
aI-8
aI22
aa(lp485
I12
aI4
aI22
aa(lp486
I14
aI12
aI22
aa(lp487
I13
aI29
aI22
aa(lp488
I-3
aI-8
aI22
aa(lp489
I1
aI14
aI22
aa(lp490
I-9
aI14
aI22
aa(lp491
I-6
aI8
aI22
aa(lp492
I-11
aI9
aI22
aa(lp493
I7
aI12
aI22
aa(lp494
I13
aI-2
aI22
aa(lp495
I2
aI-7
aI22
aa(lp496
I-5
aI15
aI22
aa(lp497
I10
aI4
aI22
aa(lp498
I16
aI3
aI22
aa(lp499
I14
aI2
aI22
aa(lp500
I-10
aI4
aI22
aa(lp501
I9
aI-3
aI22
aa(lp502
I-7
aI15
aI22
aa(lp503
I-9
aI10
aI22
aa(lp504
I-7
aI6
aI22
aa(lp505
I3
aI14
aI22
aa(lp506
I-9
aI9
aI22
aa(lp507
I18
aI4
aI22
aa(lp508
I-12
aI9
aI22
aa(lp509
I12
aI-2
aI22
aa(lp510
I2
aI-11
aI22
aa(lp511
I-2
aI-9
aI22
aa(lp512
I8
aI-5
aI22
aa(lp513
I-9
aI17
aI22
aa(lp514
I-7
aI-2
aI22
aa(lp515
I5
aI18
aI22
aa(lp516
I-10
aI14
aI22
aa(lp517
I14
aI31
aI22
aa(lp518
I-10
aI7
aI22
aa(lp519
I-11
aI8
aI22
aa(lp520
I6
aI15
aI22
aa(lp521
I19
aI4
aI22
aa(lp522
I2
aI-9
aI22
aaa(lp523
(lp524
I-11
aI2
aI23
aa(lp525
I-12
aI11
aI23
aa(lp526
I14
aI10
aI23
aa(lp527
I10
aI8
aI23
aa(lp528
I-7
aI-4
aI23
aa(lp529
I-7
aI4
aI23
aa(lp530
I5
aI14
aI23
aa(lp531
I-5
aI-2
aI23
aa(lp532
I11
aI-2
aI23
aa(lp533
I1
aI19
aI23
aa(lp534
I-1
aI14
aI23
aa(lp535
I-10
aI-1
aI23
aa(lp536
I8
aI8
aI23
aa(lp537
I-5
aI-8
aI23
aa(lp538
I1
aI16
aI23
aa(lp539
I-10
aI6
aI23
aa(lp540
I8
aI-9
aI23
aa(lp541
I4
aI-7
aI23
aa(lp542
I3
aI-7
aI23
aa(lp543
I15
aI2
aI23
aa(lp544
I13
aI3
aI23
aa(lp545
I2
aI18
aI23
aa(lp546
I-7
aI7
aI23
aa(lp547
I-5
aI16
aI23
aa(lp548
I-3
aI16
aI23
aa(lp549
I-9
aI4
aI23
aa(lp550
I4
aI16
aI23
aa(lp551
I-10
aI-3
aI23
aa(lp552
I1
aI11
aI23
aa(lp553
I-9
aI15
aI23
aa(lp554
I-4
aI-10
aI23
aa(lp555
I9
aI-8
aI23
aa(lp556
I20
aI6
aI23
aa(lp557
I-7
aI18
aI23
aa(lp558
I7
aI-5
aI23
aa(lp559
I9
aI12
aI23
aa(lp560
I-9
aI-3
aI23
aa(lp561
I4
aI17
aI23
aa(lp562
I0
aI16
aI23
aa(lp563
I13
aI32
aI23
aa(lp564
I-14
aI-7
aI23
aa(lp565
I14
aI11
aI23
aa(lp566
I12
aI29
aI23
aa(lp567
I-10
aI13
aI23
aa(lp568
I-14
aI7
aI23
aa(lp569
I14
aI-2
aI23
aa(lp570
I11
aI4
aI23
aa(lp571
I17
aI3
aI23
aa(lp572
I-11
aI5
aI23
aa(lp573
I3
aI-11
aI23
aa(lp574
I4
aI18
aI23
aa(lp575
I-9
aI13
aI23
aa(lp576
I7
aI13
aI23
aa(lp577
I20
aI4
aI23
aa(lp578
I3
aI-9
aI23
aaa(lp579
(lp580
I4
aI-6
aI24
aa(lp581
I0
aI18
aI24
aa(lp582
I-2
aI15
aI24
aa(lp583
I-9
aI0
aI24
aa(lp584
I13
aI4
aI24
aa(lp585
I14
aI8
aI24
aa(lp586
I4
aI-9
aI24
aa(lp587
I11
aI13
aI24
aa(lp588
I-3
aI15
aI24
aa(lp589
I0
aI-10
aI24
aa(lp590
I-9
aI5
aI24
aa(lp591
I-8
aI-4
aI24
aa(lp592
I0
aI17
aI24
aa(lp593
I-5
aI7
aI24
aa(lp594
I-11
aI15
aI24
aa(lp595
I0
aI13
aI24
aa(lp596
I-12
aI1
aI24
aa(lp597
I-4
aI-6
aI24
aa(lp598
I19
aI8
aI24
aa(lp599
I1
aI12
aI24
aa(lp600
I-13
aI13
aI24
aa(lp601
I3
aI-8
aI24
aa(lp602
I3
aI15
aI24
aa(lp603
I6
aI-9
aI24
aa(lp604
I-8
aI18
aI24
aa(lp605
I5
aI16
aI24
aa(lp606
I-12
aI15
aI24
aa(lp607
I-6
aI-7
aI24
aa(lp608
I-13
aI-7
aI24
aa(lp609
I15
aI0
aI24
aa(lp610
I-7
aI-6
aI24
aa(lp611
I-1
aI-9
aI24
aa(lp612
I1
aI13
aI24
aa(lp613
I-4
aI17
aI24
aa(lp614
I-8
aI16
aI24
aa(lp615
I-13
aI8
aI24
aa(lp616
I4
aI-11
aI24
aa(lp617
I-3
aI-9
aI24
aa(lp618
I-10
aI17
aI24
aa(lp619
I5
aI19
aI24
aa(lp620
I14
aI30
aI24
aa(lp621
I-10
aI8
aI24
aa(lp622
I10
aI9
aI24
aa(lp623
I5
aI15
aI24
aa(lp624
I-1
aI18
aI24
aa(lp625
I1
aI17
aI24
aa(lp626
I7
aI-9
aI24
aa(lp627
I15
aI1
aI24
aa(lp628
I2
aI17
aI24
aa(lp629
I-8
aI4
aI24
aa(lp630
I-9
aI16
aI24
aa(lp631
I9
aI-9
aI24
aa(lp632
I-9
aI-4
aI24
aa(lp633
I13
aI33
aI24
aa(lp634
I-15
aI-7
aI24
aa(lp635
I15
aI11
aI24
aa(lp636
I-15
aI7
aI24
aa(lp637
I-11
aI4
aI24
aa(lp638
I3
aI-12
aI24
aa(lp639
I7
aI14
aI24
aa(lp640
I20
aI5
aI24
aaa(lp641
(lp642
I14
aI1
aI25
aa(lp643
I-8
aI5
aI25
aa(lp644
I-11
aI7
aI25
aa(lp645
I12
aI11
aI25
aa(lp646
I-2
aI-11
aI25
aa(lp647
I-13
aI12
aI25
aa(lp648
I15
aI-1
aI25
aa(lp649
I-9
aI12
aI25
aa(lp650
I18
aI9
aI25
aa(lp651
I-8
aI-2
aI25
aa(lp652
I5
aI-6
aI25
aa(lp653
I9
aI9
aI25
aa(lp654
I10
aI-6
aI25
aa(lp655
I10
aI-10
aI25
aa(lp656
I12
aI10
aI25
aa(lp657
I16
aI-3
aI25
aa(lp658
I-15
aI-6
aI25
aa(lp659
I14
aI29
aI25
aa(lp660
I-12
aI8
aI25
aa(lp661
I13
aI-3
aI25
aa(lp662
I2
aI14
aI25
aa(lp663
I19
aI3
aI25
aa(lp664
I2
aI-12
aI25
aa(lp665
I14
aI32
aI25
aa(lp666
I-10
aI9
aI25
aa(lp667
I0
aI20
aI25
aa(lp668
I2
aI19
aI25
aa(lp669
I4
aI15
aI25
aa(lp670
I-4
aI-11
aI25
aa(lp671
I21
aI6
aI25
aa(lp672
I-7
aI19
aI25
aa(lp673
I-9
aI-2
aI25
aa(lp674
I-1
aI16
aI25
aa(lp675
I12
aI31
aI25
aa(lp676
I-16
aI-7
aI25
aa(lp677
I13
aI11
aI25
aa(lp678
I-13
aI7
aI25
aa(lp679
I17
aI4
aI25
aa(lp680
I0
aI19
aI25
aa(lp681
I-2
aI16
aI25
aa(lp682
I4
aI-10
aI25
aa(lp683
I-13
aI1
aI25
aa(lp684
I-9
aI18
aI25
aa(lp685
I-7
aI-5
aI25
aa(lp686
I-3
aI18
aI25
aa(lp687
I-6
aI16
aI25
aa(lp688
I5
aI-11
aI25
aa(lp689
I-11
aI17
aI25
aa(lp690
I-2
aI17
aI25
aa(lp691
I7
aI-8
aI25
aa(lp692
I14
aI33
aI25
aa(lp693
I-15
aI8
aI25
aa(lp694
I4
aI-12
aI25
aaa(lp695
(lp696
I12
aI3
aI26
aa(lp697
I10
aI-2
aI26
aa(lp698
I0
aI-8
aI26
aa(lp699
I-11
aI3
aI26
aa(lp700
I17
aI10
aI26
aa(lp701
I9
aI32
aI26
aa(lp702
I7
aI-7
aI26
aa(lp703
I-7
aI0
aI26
aa(lp704
I-6
aI17
aI26
aa(lp705
I8
aI13
aI26
aa(lp706
I15
aI30
aI26
aa(lp707
I10
aI-4
aI26
aa(lp708
I5
aI-9
aI26
aa(lp709
I11
aI10
aI26
aa(lp710
I-1
aI15
aI26
aa(lp711
I14
aI-3
aI26
aa(lp712
I14
aI13
aI26
aa(lp713
I13
aI28
aI26
aa(lp714
I-7
aI16
aI26
aa(lp715
I-13
aI10
aI26
aa(lp716
I-10
aI15
aI26
aa(lp717
I7
aI15
aI26
aa(lp718
I-13
aI11
aI26
aa(lp719
I-8
aI-8
aI26
aa(lp720
I16
aI1
aI26
aa(lp721
I-10
aI-4
aI26
aa(lp722
I9
aI-7
aI26
aa(lp723
I9
aI13
aI26
aa(lp724
I-8
aI-3
aI26
aa(lp725
I-13
aI-6
aI26
aa(lp726
I18
aI3
aI26
aa(lp727
I-11
aI6
aI26
aa(lp728
I3
aI-10
aI26
aa(lp729
I4
aI19
aI26
aa(lp730
I-9
aI-1
aI26
aa(lp731
I1
aI-11
aI26
aa(lp732
I-8
aI-6
aI26
aa(lp733
I-11
aI16
aI26
aa(lp734
I20
aI8
aI26
aa(lp735
I-13
aI15
aI26
aa(lp736
I-13
aI-8
aI26
aa(lp737
I-5
aI17
aI26
aa(lp738
I-12
aI7
aI26
aa(lp739
I5
aI20
aI26
aa(lp740
I16
aI31
aI26
aa(lp741
I8
aI-8
aI26
aa(lp742
I-9
aI-6
aI26
aa(lp743
I13
aI34
aI26
aa(lp744
I-12
aI4
aI26
aa(lp745
I-7
aI-1
aI26
aa(lp746
I10
aI-9
aI26
aa(lp747
I13
aI10
aI26
aa(lp748
I2
aI13
aI26
aa(lp749
I0
aI-12
aI26
aa(lp750
I3
aI17
aI26
aa(lp751
I-7
aI20
aI26
aa(lp752
I12
aI32
aI26
aa(lp753
I-8
aI0
aI26
aa(lp754
I-2
aI18
aI26
aa(lp755
I7
aI-11
aI26
aa(lp756
I-12
aI17
aI26
aa(lp757
I-15
aI9
aI26
aaa(lp758
(lp759
I17
aI9
aI27
aa(lp760
I11
aI30
aI27
aa(lp761
I18
aI7
aI27
aa(lp762
I7
aI16
aI27
aa(lp763
I17
aI11
aI27
aa(lp764
I10
aI12
aI27
aa(lp765
I8
aI-4
aI27
aa(lp766
I6
aI17
aI27
aa(lp767
I15
aI-3
aI27
aa(lp768
I-5
aI-12
aI27
aa(lp769
I15
aI32
aI27
aa(lp770
I-12
aI-7
aI27
aa(lp771
I-5
aI-9
aI27
aa(lp772
I16
aI2
aI27
aa(lp773
I2
aI20
aI27
aa(lp774
I-5
aI-10
aI27
aa(lp775
I20
aI7
aI27
aa(lp776
I-15
aI-8
aI27
aa(lp777
I-1
aI-11
aI27
aa(lp778
I-12
aI2
aI27
aa(lp779
I-13
aI16
aI27
aa(lp780
I-6
aI-8
aI27
aa(lp781
I16
aI0
aI27
aa(lp782
I-4
aI18
aI27
aa(lp783
I-3
aI-10
aI27
aa(lp784
I-10
aI16
aI27
aa(lp785
I10
aI10
aI27
aa(lp786
I8
aI-10
aI27
aa(lp787
I-12
aI6
aI27
aa(lp788
I9
aI-10
aI27
aa(lp789
I-16
aI-6
aI27
aa(lp790
I3
aI-13
aI27
aa(lp791
I8
aI14
aI27
aa(lp792
I10
aI-11
aI27
aa(lp793
I14
aI28
aI27
aa(lp794
I12
aI-3
aI27
aa(lp795
I19
aI2
aI27
aa(lp796
I1
aI20
aI27
aa(lp797
I-4
aI-13
aI27
aa(lp798
I-1
aI17
aI27
aa(lp799
I-8
aI21
aI27
aa(lp800
I6
aI-11
aI27
aa(lp801
I-16
aI8
aI27
aa(lp802
I0
aI-13
aI27
aa(lp803
I10
aI-3
aI27
aa(lp804
I9
aI31
aI27
aa(lp805
I7
aI-6
aI27
aa(lp806
I12
aI28
aI27
aa(lp807
I18
aI2
aI27
aa(lp808
I0
aI-11
aI27
aa(lp809
I-8
aI-7
aI27
aa(lp810
I-12
aI-8
aI27
aa(lp811
I4
aI20
aI27
aa(lp812
I16
aI30
aI27
aa(lp813
I-9
aI-7
aI27
aa(lp814
I-12
aI3
aI27
aa(lp815
I-8
aI-1
aI27
aa(lp816
I11
aI-9
aI27
aa(lp817
I-6
aI20
aI27
aa(lp818
I15
aI34
aI27
aa(lp819
I-2
aI19
aI27
aaa(lp820
(lp821
I16
aI11
aI28
aa(lp822
I9
aI27
aI28
aa(lp823
I4
aI-14
aI28
aa(lp824
I11
aI11
aI28
aa(lp825
I-17
aI3
aI28
aa(lp826
I-11
aI0
aI28
aa(lp827
I13
aI12
aI28
aa(lp828
I9
aI10
aI28
aa(lp829
I11
aI-4
aI28
aa(lp830
I-13
aI9
aI28
aa(lp831
I2
aI-10
aI28
aa(lp832
I15
aI31
aI28
aa(lp833
I2
aI-8
aI28
aa(lp834
I6
aI-7
aI28
aa(lp835
I3
aI19
aI28
aa(lp836
I-15
aI6
aI28
aa(lp837
I-1
aI-10
aI28
aa(lp838
I-8
aI-5
aI28
aa(lp839
I-16
aI12
aI28
aa(lp840
I-8
aI19
aI28
aa(lp841
I-13
aI17
aI28
aa(lp842
I7
aI-10
aI28
aa(lp843
I-14
aI10
aI28
aa(lp844
I-2
aI-10
aI28
aa(lp845
I16
aI-1
aI28
aa(lp846
I19
aI9
aI28
aa(lp847
I6
aI-6
aI28
aa(lp848
I11
aI-11
aI28
aa(lp849
I16
aI-2
aI28
aa(lp850
I-15
aI-4
aI28
aa(lp851
I15
aI29
aI28
aa(lp852
I13
aI-4
aI28
aa(lp853
I2
aI-13
aI28
aa(lp854
I-6
aI-11
aI28
aa(lp855
I-17
aI-7
aI28
aa(lp856
I-13
aI-1
aI28
aa(lp857
I-9
aI19
aI28
aa(lp858
I-11
aI18
aI28
aa(lp859
I15
aI33
aI28
aa(lp860
I10
aI32
aI28
aa(lp861
I15
aI28
aI28
aa(lp862
I8
aI15
aI28
aa(lp863
I-11
aI-4
aI28
aa(lp864
I-13
aI-5
aI28
aa(lp865
I20
aI9
aI28
aa(lp866
I-14
aI-8
aI28
aa(lp867
I-5
aI18
aI28
aa(lp868
I17
aI31
aI28
aa(lp869
I14
aI35
aI28
aa(lp870
I1
aI-12
aI28
aa(lp871
I-7
aI21
aI28
aa(lp872
I7
aI-12
aI28
aa(lp873
I11
aI31
aI28
aa(lp874
I8
aI16
aI28
aa(lp875
I17
aI12
aI28
aa(lp876
I7
aI17
aI28
aa(lp877
I-5
aI-11
aI28
aa(lp878
I-14
aI16
aI28
aa(lp879
I-3
aI-11
aI28
aa(lp880
I-12
aI5
aI28
aa(lp881
I4
aI-13
aI28
aa(lp882
I10
aI-8
aI28
aa(lp883
I13
aI27
aI28
aa(lp884
I12
aI-5
aI28
aa(lp885
I20
aI3
aI28
aa(lp886
I3
aI21
aI28
aa(lp887
I-7
aI-14
aI28
aa(lp888
I-8
aI20
aI28
aa(lp889
I-17
aI8
aI28
aa(lp890
I11
aI-3
aI28
aa(lp891
I-8
aI-9
aI28
aa(lp892
I-11
aI-8
aI28
aa(lp893
I3
aI20
aI28
aa(lp894
I11
aI-10
aI28
aa(lp895
I-5
aI21
aI28
aa(lp896
I14
aI34
aI28
aa(lp897
I-1
aI19
aI28
aaa(lp898
(lp899
I9
aI-5
aI29
aa(lp900
I-14
aI1
aI29
aa(lp901
I6
aI20
aI29
aa(lp902
I15
aI12
aI29
aa(lp903
I21
aI13
aI29
aa(lp904
I-14
aI12
aI29
aa(lp905
I-3
aI17
aI29
aa(lp906
I-14
aI8
aI29
aa(lp907
I9
aI14
aI29
aa(lp908
I12
aI13
aI29
aa(lp909
I-14
aI13
aI29
aa(lp910
I-6
aI18
aI29
aa(lp911
I-14
aI14
aI29
aa(lp912
I19
aI-1
aI29
aa(lp913
I-15
aI-5
aI29
aa(lp914
I-11
aI19
aI29
aa(lp915
I14
aI-4
aI29
aa(lp916
I15
aI13
aI29
aa(lp917
I-7
aI-8
aI29
aa(lp918
I17
aI1
aI29
aa(lp919
I10
aI-7
aI29
aa(lp920
I-14
aI-5
aI29
aa(lp921
I16
aI32
aI29
aa(lp922
I12
aI34
aI29
aa(lp923
I-13
aI4
aI29
aa(lp924
I10
aI30
aI29
aa(lp925
I10
aI11
aI29
aa(lp926
I15
aI-7
aI29
aa(lp927
I-6
aI-12
aI29
aa(lp928
I-6
aI-9
aI29
aa(lp929
I-15
aI3
aI29
aa(lp930
I-12
aI16
aI29
aa(lp931
I8
aI-11
aI29
aa(lp932
I-16
aI-5
aI29
aa(lp933
I-3
aI-13
aI29
aa(lp934
I-7
aI22
aI29
aa(lp935
I-16
aI7
aI29
aa(lp936
I1
aI-14
aI29
aa(lp937
I10
aI31
aI29
aa(lp938
I-7
aI-7
aI29
aa(lp939
I-12
aI-9
aI29
aa(lp940
I11
aI-8
aI29
aa(lp941
I-6
aI19
aI29
aa(lp942
I-19
aI3
aI29
aa(lp943
I-12
aI0
aI29
aa(lp944
I-14
aI9
aI29
aa(lp945
I-16
aI13
aI29
aa(lp946
I-15
aI10
aI29
aa(lp947
I-14
aI-4
aI29
aa(lp948
I13
aI-5
aI29
aa(lp949
I3
aI-14
aI29
aa(lp950
I-6
aI-10
aI29
aa(lp951
I-18
aI-7
aI29
aa(lp952
I-12
aI-1
aI29
aa(lp953
I14
aI27
aI29
aa(lp954
I-12
aI-6
aI29
aa(lp955
I18
aI12
aI29
aa(lp956
I8
aI17
aI29
aa(lp957
I-15
aI16
aI29
aa(lp958
I5
aI-13
aI29
aa(lp959
I-7
aI-16
aI29
aa(lp960
I-9
aI21
aI29
aa(lp961
I-13
aI-9
aI29
aa(lp962
I-5
aI22
aI29
aaa(lp963
(lp964
I12
aI25
aI30
aa(lp965
I-13
aI5
aI30
aa(lp966
I11
aI-6
aI30
aa(lp967
I9
aI8
aI30
aa(lp968
I-14
aI-11
aI30
aa(lp969
I11
aI29
aI30
aa(lp970
I10
aI18
aI30
aa(lp971
I11
aI14
aI30
aa(lp972
I6
aI-8
aI30
aa(lp973
I6
aI16
aI30
aa(lp974
I-10
aI18
aI30
aa(lp975
I-9
aI-5
aI30
aa(lp976
I-1
aI20
aI30
aa(lp977
I21
aI7
aI30
aa(lp978
I5
aI-10
aI30
aa(lp979
I18
aI10
aI30
aa(lp980
I7
aI35
aI30
aa(lp981
I-14
aI11
aI30
aa(lp982
I-3
aI21
aI30
aa(lp983
I-10
aI-6
aI30
aa(lp984
I16
aI12
aI30
aa(lp985
I1
aI21
aI30
aa(lp986
I-1
aI-12
aI30
aa(lp987
I-7
aI-9
aI30
aa(lp988
I-4
aI19
aI30
aa(lp989
I-4
aI-12
aI30
aa(lp990
I6
aI-12
aI30
aa(lp991
I18
aI1
aI30
aa(lp992
I17
aI29
aI30
aa(lp993
I-10
aI-7
aI30
aa(lp994
I12
aI-10
aI30
aa(lp995
I-17
aI2
aI30
aa(lp996
I-16
aI6
aI30
aa(lp997
I-17
aI11
aI30
aa(lp998
I-13
aI18
aI30
aa(lp999
I-2
aI-12
aI30
aa(lp1000
I18
aI0
aI30
aa(lp1001
I12
aI-11
aI30
aa(lp1002
I17
aI-2
aI30
aa(lp1003
I-6
aI-13
aI30
aa(lp1004
I-14
aI0
aI30
aa(lp1005
I-9
aI20
aI30
aa(lp1006
I16
aI33
aI30
aa(lp1007
I7
aI31
aI30
aa(lp1008
I16
aI28
aI30
aa(lp1009
I-12
aI-5
aI30
aa(lp1010
I-15
aI-9
aI30
aa(lp1011
I14
aI36
aI30
aa(lp1012
I-6
aI21
aI30
aa(lp1013
I9
aI16
aI30
aa(lp1014
I11
aI-5
aI30
aa(lp1015
I2
aI21
aI30
aa(lp1016
I-7
aI-11
aI30
aa(lp1017
I-8
aI-10
aI30
aa(lp1018
I-9
aI-9
aI30
aa(lp1019
I-15
aI1
aI30
aa(lp1020
I7
aI19
aI30
aa(lp1021
I20
aI13
aI30
aa(lp1022
I10
aI13
aI30
aa(lp1023
I15
aI-4
aI30
aa(lp1024
I17
aI0
aI30
aa(lp1025
I-16
aI3
aI30
aa(lp1026
I-2
aI-13
aI30
aa(lp1027
I-6
aI22
aI30
aa(lp1028
I0
aI-14
aI30
aa(lp1029
I-11
aI-9
aI30
aa(lp1030
I11
aI-7
aI30
aa(lp1031
I-19
aI4
aI30
aa(lp1032
I-13
aI0
aI30
aa(lp1033
I-16
aI14
aI30
aa(lp1034
I-13
aI-4
aI30
aa(lp1035
I2
aI-14
aI30
aa(lp1036
I18
aI13
aI30
aa(lp1037
I5
aI-12
aI30
aa(lp1038
I-8
aI-16
aI30
aa(lp1039
I-9
aI22
aI30
aaa(lp1040
(lp1041
I-13
aI-2
aI31
aa(lp1042
I-18
aI14
aI31
aa(lp1043
I13
aI-8
aI31
aa(lp1044
I3
aI18
aI31
aa(lp1045
I-13
aI19
aI31
aa(lp1046
I-11
aI-3
aI31
aa(lp1047
I21
aI5
aI31
aa(lp1048
I6
aI18
aI31
aa(lp1049
I15
aI35
aI31
aa(lp1050
I19
aI34
aI31
aa(lp1051
I13
aI13
aI31
aa(lp1052
I14
aI14
aI31
aa(lp1053
I1
aI-13
aI31
aa(lp1054
I-13
aI14
aI31
aa(lp1055
I17
aI32
aI31
aa(lp1056
I11
aI32
aI31
aa(lp1057
I19
aI7
aI31
aa(lp1058
I-13
aI6
aI31
aa(lp1059
I3
aI-15
aI31
aa(lp1060
I10
aI-12
aI31
aa(lp1061
I-3
aI-15
aI31
aa(lp1062
I-8
aI22
aI31
aa(lp1063
I6
aI-10
aI31
aa(lp1064
I8
aI31
aI31
aa(lp1065
I17
aI2
aI31
aa(lp1066
I8
aI27
aI31
aa(lp1067
I-15
aI5
aI31
aa(lp1068
I-7
aI-10
aI31
aa(lp1069
I-17
aI-8
aI31
aa(lp1070
I-10
aI19
aI31
aa(lp1071
I17
aI28
aI31
aa(lp1072
I7
aI-13
aI31
aa(lp1073
I17
aI13
aI31
aa(lp1074
I-3
aI-12
aI31
aa(lp1075
I14
aI26
aI31
aa(lp1076
I4
aI21
aI31
aa(lp1077
I-8
aI-14
aI31
aa(lp1078
I-14
aI2
aI31
aa(lp1079
I4
aI24
aI31
aa(lp1080
I22
aI13
aI31
aa(lp1081
I10
aI14
aI31
aa(lp1082
I20
aI-1
aI31
aa(lp1083
I-11
aI20
aI31
aa(lp1084
I16
aI-8
aI31
aa(lp1085
I-8
aI-13
aI31
aa(lp1086
I-18
aI3
aI31
aa(lp1087
I-16
aI10
aI31
aa(lp1088
I-12
aI-2
aI31
aa(lp1089
I-15
aI17
aI31
aa(lp1090
I-14
aI-9
aI31
aa(lp1091
I12
aI24
aI31
aa(lp1092
I-14
aI5
aI31
aa(lp1093
I-13
aI-11
aI31
aa(lp1094
I10
aI19
aI31
aa(lp1095
I-11
aI-5
aI31
aa(lp1096
I21
aI8
aI31
aa(lp1097
I19
aI10
aI31
aa(lp1098
I6
aI36
aI31
aa(lp1099
I-16
aI11
aI31
aa(lp1100
I-5
aI19
aI31
aa(lp1101
I17
aI30
aI31
aa(lp1102
I-16
aI5
aI31
aa(lp1103
I-16
aI0
aI31
aa(lp1104
I8
aI32
aI31
aa(lp1105
I13
aI36
aI31
aa(lp1106
I-7
aI-12
aI31
aa(lp1107
I-9
aI-10
aI31
aa(lp1108
I-16
aI1
aI31
aa(lp1109
I8
aI19
aI31
aa(lp1110
I17
aI-1
aI31
aa(lp1111
I-1
aI-13
aI31
aa(lp1112
I-12
aI-10
aI31
aa(lp1113
I-11
aI-6
aI31
aa(lp1114
I16
aI15
aI31
aa(lp1115
I-9
aI-16
aI31
aaa(lp1116
(lp1117
I17
aI-5
aI32
aa(lp1118
I10
aI-5
aI32
aa(lp1119
I9
aI33
aI32
aa(lp1120
I-12
aI-3
aI32
aa(lp1121
I7
aI20
aI32
aa(lp1122
I-12
aI18
aI32
aa(lp1123
I22
aI8
aI32
aa(lp1124
I12
aI-4
aI32
aa(lp1125
I-16
aI9
aI32
aa(lp1126
I6
aI19
aI32
aa(lp1127
I16
aI29
aI32
aa(lp1128
I-3
aI19
aI32
aa(lp1129
I1
aI-10
aI32
aa(lp1130
I-14
aI-1
aI32
aa(lp1131
I-14
aI15
aI32
aa(lp1132
I-17
aI7
aI32
aa(lp1133
I-11
aI-10
aI32
aa(lp1134
I6
aI21
aI32
aa(lp1135
I-15
aI12
aI32
aa(lp1136
I9
aI15
aI32
aa(lp1137
I19
aI0
aI32
aa(lp1138
I14
aI-7
aI32
aa(lp1139
I-15
aI2
aI32
aa(lp1140
I-3
aI-14
aI32
aa(lp1141
I-20
aI3
aI32
aa(lp1142
I3
aI-16
aI32
aa(lp1143
I-18
aI-6
aI32
aa(lp1144
I-11
aI-1
aI32
aa(lp1145
I23
aI10
aI32
aa(lp1146
I12
aI-6
aI32
aa(lp1147
I-12
aI-4
aI32
aa(lp1148
I-2
aI20
aI32
aa(lp1149
I-3
aI25
aI32
aa(lp1150
I0
aI21
aI32
aa(lp1151
I13
aI-13
aI32
aa(lp1152
I13
aI-10
aI32
aa(lp1153
I-17
aI1
aI32
aa(lp1154
I12
aI-12
aI32
aa(lp1155
I5
aI32
aI32
aa(lp1156
I13
aI35
aI32
aa(lp1157
I-9
aI-8
aI32
aa(lp1158
I20
aI14
aI32
aa(lp1159
I0
aI-15
aI32
aa(lp1160
I-20
aI4
aI32
aa(lp1161
I-8
aI-17
aI32
aa(lp1162
I-19
aI14
aI32
aa(lp1163
I12
aI-8
aI32
aa(lp1164
I-13
aI20
aI32
aa(lp1165
I7
aI18
aI32
aa(lp1166
I19
aI33
aI32
aa(lp1167
I18
aI32
aI32
aa(lp1168
I-14
aI6
aI32
aa(lp1169
I2
aI-16
aI32
aa(lp1170
I9
aI-12
aI32
aa(lp1171
I-8
aI23
aI32
aa(lp1172
I9
aI30
aI32
aa(lp1173
I7
aI27
aI32
aa(lp1174
I7
aI-14
aI32
aa(lp1175
I17
aI14
aI32
aa(lp1176
I14
aI25
aI32
aa(lp1177
I4
aI22
aI32
aa(lp1178
I-9
aI-14
aI32
aa(lp1179
I-13
aI2
aI32
aa(lp1180
I22
aI14
aI32
aa(lp1181
I-11
aI21
aI32
aa(lp1182
I-9
aI-13
aI32
aa(lp1183
I-17
aI10
aI32
aa(lp1184
I-13
aI-12
aI32
aa(lp1185
I11
aI19
aI32
aa(lp1186
I7
aI36
aI32
aa(lp1187
I-5
aI20
aI32
aa(lp1188
I-16
aI-1
aI32
aa(lp1189
I-10
aI-10
aI32
aa(lp1190
I8
aI20
aI32
aa(lp1191
I18
aI-1
aI32
aa(lp1192
I-13
aI-10
aI32
aa(lp1193
I16
aI14
aI32
aa(lp1194
I-9
aI-17
aI32
aaa(lp1195
(lp1196
I18
aI-2
aI33
aa(lp1197
I17
aI-3
aI33
aa(lp1198
I20
aI2
aI33
aa(lp1199
I12
aI33
aI33
aa(lp1200
I12
aI-9
aI33
aa(lp1201
I-5
aI-13
aI33
aa(lp1202
I15
aI26
aI33
aa(lp1203
I-5
aI-15
aI33
aa(lp1204
I12
aI27
aI33
aa(lp1205
I8
aI26
aI33
aa(lp1206
I5
aI22
aI33
aa(lp1207
I22
aI9
aI33
aa(lp1208
I-19
aI-8
aI33
aa(lp1209
I20
aI10
aI33
aa(lp1210
I-7
aI-13
aI33
aa(lp1211
I-18
aI8
aI33
aa(lp1212
I17
aI33
aI33
aa(lp1213
I-12
aI20
aI33
aa(lp1214
I12
aI35
aI33
aa(lp1215
I-17
aI13
aI33
aa(lp1216
I5
aI-15
aI33
aa(lp1217
I-19
aI-7
aI33
aa(lp1218
I9
aI17
aI33
aa(lp1219
I5
aI-14
aI33
aa(lp1220
I-4
aI22
aI33
aa(lp1221
I-14
aI-10
aI33
aa(lp1222
I10
aI17
aI33
aa(lp1223
I-1
aI21
aI33
aa(lp1224
I6
aI35
aI33
aa(lp1225
I-3
aI20
aI33
aa(lp1226
I-17
aI4
aI33
aa(lp1227
I-14
aI18
aI33
aa(lp1228
I-6
aI-14
aI33
aa(lp1229
I16
aI34
aI33
aa(lp1230
I6
aI31
aI33
aa(lp1231
I-10
aI-5
aI33
aa(lp1232
I14
aI37
aI33
aa(lp1233
I-16
aI2
aI33
aa(lp1234
I-10
aI-8
aI33
aa(lp1235
I18
aI-11
aI33
aa(lp1236
I-18
aI4
aI33
aa(lp1237
I-16
aI15
aI33
aa(lp1238
I-13
aI-3
aI33
aa(lp1239
I-17
aI14
aI33
aa(lp1240
I13
aI-7
aI33
aa(lp1241
I-12
aI19
aI33
aa(lp1242
I23
aI5
aI33
aa(lp1243
I8
aI18
aI33
aa(lp1244
I16
aI35
aI33
aa(lp1245
I4
aI-15
aI33
aa(lp1246
I8
aI30
aI33
aa(lp1247
I-10
aI20
aI33
aa(lp1248
I6
aI-13
aI33
aa(lp1249
I16
aI13
aI33
aa(lp1250
I3
aI25
aI33
aa(lp1251
I20
aI-2
aI33
aa(lp1252
I17
aI-8
aI33
aa(lp1253
I12
aI23
aI33
aa(lp1254
I-14
aI4
aI33
aa(lp1255
I6
aI37
aI33
aa(lp1256
I-15
aI11
aI33
aa(lp1257
I-16
aI4
aI33
aa(lp1258
I7
aI32
aI33
aa(lp1259
I-8
aI-12
aI33
aa(lp1260
I-9
aI-11
aI33
aa(lp1261
I-9
aI-15
aI33
aa(lp1262
I18
aI-4
aI33
aa(lp1263
I9
aI34
aI33
aa(lp1264
I24
aI7
aI33
aa(lp1265
I-14
aI17
aI33
aa(lp1266
I7
aI21
aI33
aa(lp1267
I14
aI-6
aI33
aa(lp1268
I3
aI-18
aI33
aa(lp1269
I24
aI10
aI33
aa(lp1270
I-4
aI25
aI33
aa(lp1271
I-1
aI22
aI33
aa(lp1272
I13
aI-14
aI33
aa(lp1273
I15
aI-9
aI33
aa(lp1274
I6
aI32
aI33
aa(lp1275
I19
aI14
aI33
aa(lp1276
I1
aI-15
aI33
aa(lp1277
I-13
aI21
aI33
aa(lp1278
I18
aI34
aI33
aa(lp1279
I18
aI33
aI33
aa(lp1280
I1
aI-16
aI33
aa(lp1281
I9
aI-13
aI33
aa(lp1282
I-9
aI23
aI33
aa(lp1283
I14
aI24
aI33
aa(lp1284
I-8
aI-15
aI33
aa(lp1285
I-10
aI21
aI33
aa(lp1286
I-17
aI9
aI33
aa(lp1287
I11
aI18
aI33
aa(lp1288
I-10
aI-11
aI33
aa(lp1289
I18
aI-3
aI33
aa(lp1290
I-12
aI-11
aI33
aa(lp1291
I-10
aI-17
aI33
aaa(lp1292
(lp1293
I18
aI16
aI34
aa(lp1294
I-11
aI-2
aI34
aa(lp1295
I-8
aI38
aI34
aa(lp1296
I-17
aI-5
aI34
aa(lp1297
I10
aI28
aI34
aa(lp1298
I16
aI27
aI34
aa(lp1299
I9
aI25
aI34
aa(lp1300
I-15
aI-3
aI34
aa(lp1301
I2
aI-15
aI34
aa(lp1302
I-14
aI-2
aI34
aa(lp1303
I18
aI31
aI34
aa(lp1304
I-11
aI23
aI34
aa(lp1305
I-15
aI14
aI34
aa(lp1306
I14
aI-5
aI34
aa(lp1307
I15
aI-8
aI34
aa(lp1308
I-7
aI23
aI34
aa(lp1309
I-9
aI-12
aI34
aa(lp1310
I-19
aI2
aI34
aa(lp1311
I20
aI12
aI34
aa(lp1312
I-1
aI24
aI34
aa(lp1313
I13
aI17
aI34
aa(lp1314
I11
aI15
aI34
aa(lp1315
I18
aI11
aI34
aa(lp1316
I-4
aI20
aI34
aa(lp1317
I18
aI28
aI34
aa(lp1318
I17
aI35
aI34
aa(lp1319
I-15
aI-10
aI34
aa(lp1320
I-6
aI23
aI34
aa(lp1321
I-19
aI5
aI34
aa(lp1322
I21
aI4
aI34
aa(lp1323
I20
aI34
aI34
aa(lp1324
I14
aI15
aI34
aa(lp1325
I-15
aI4
aI34
aa(lp1326
I-19
aI-13
aI34
aa(lp1327
I4
aI23
aI34
aa(lp1328
I22
aI12
aI34
aa(lp1329
I12
aI14
aI34
aa(lp1330
I-17
aI21
aI34
aa(lp1331
I-10
aI-13
aI34
aa(lp1332
I-18
aI2
aI34
aa(lp1333
I-14
aI3
aI34
aa(lp1334
I5
aI36
aI34
aa(lp1335
I15
aI15
aI34
aa(lp1336
I-10
aI-15
aI34
aa(lp1337
I17
aI-4
aI34
aa(lp1338
I10
aI33
aI34
aa(lp1339
I9
aI22
aI34
aa(lp1340
I-20
aI2
aI34
aa(lp1341
I4
aI-16
aI34
aa(lp1342
I-2
aI21
aI34
aa(lp1343
I-2
aI25
aI34
aa(lp1344
I14
aI-10
aI34
aa(lp1345
I4
aI32
aI34
aa(lp1346
I19
aI13
aI34
aa(lp1347
I0
aI-16
aI34
aa(lp1348
I-20
aI14
aI34
aa(lp1349
I7
aI-15
aI34
aa(lp1350
I15
aI25
aI34
aa(lp1351
I-10
aI-14
aI34
aa(lp1352
I22
aI15
aI34
aa(lp1353
I-12
aI-12
aI34
aa(lp1354
I7
aI37
aI34
aa(lp1355
I15
aI27
aI34
aa(lp1356
I-4
aI-15
aI34
aa(lp1357
I8
aI25
aI34
aa(lp1358
I5
aI23
aI34
aa(lp1359
I21
aI9
aI34
aa(lp1360
I-22
aI-6
aI34
aa(lp1361
I20
aI11
aI34
aa(lp1362
I-18
aI9
aI34
aa(lp1363
I17
aI34
aI34
aa(lp1364
I-17
aI15
aI34
aa(lp1365
I6
aI-15
aI34
aa(lp1366
I-20
aI-7
aI34
aa(lp1367
I9
aI18
aI34
aa(lp1368
I-3
aI22
aI34
aa(lp1369
I10
aI15
aI34
aa(lp1370
I0
aI22
aI34
aa(lp1371
I7
aI34
aI34
aa(lp1372
I15
aI37
aI34
aa(lp1373
I19
aI-11
aI34
aa(lp1374
I18
aI38
aI34
aa(lp1375
I7
aI30
aI34
aa(lp1376
I21
aI-1
aI34
aa(lp1377
I18
aI-8
aI34
aa(lp1378
I-8
aI-11
aI34
aa(lp1379
I18
aI-5
aI34
aa(lp1380
I8
aI34
aI34
aa(lp1381
I25
aI7
aI34
aa(lp1382
I7
aI22
aI34
aa(lp1383
I4
aI-19
aI34
aa(lp1384
I12
aI-14
aI34
aa(lp1385
I-14
aI21
aI34
aa(lp1386
I1
aI-17
aI34
aa(lp1387
I13
aI24
aI34
aa(lp1388
I11
aI17
aI34
aaa(lp1389
(lp1390
I-4
aI-14
aI35
aa(lp1391
I11
aI28
aI35
aa(lp1392
I-21
aI-1
aI35
aa(lp1393
I10
aI16
aI35
aa(lp1394
I13
aI26
aI35
aa(lp1395
I13
aI-6
aI35
aa(lp1396
I-7
aI-15
aI35
aa(lp1397
I-16
aI-3
aI35
aa(lp1398
I11
aI34
aI35
aa(lp1399
I16
aI-7
aI35
aa(lp1400
I10
aI34
aI35
aa(lp1401
I-15
aI13
aI35
aa(lp1402
I-18
aI-8
aI35
aa(lp1403
I-5
aI23
aI35
aa(lp1404
I8
aI-13
aI35
aa(lp1405
I-20
aI1
aI35
aa(lp1406
I22
aI5
aI35
aa(lp1407
I20
aI35
aI35
aa(lp1408
I15
aI14
aI35
aa(lp1409
I10
aI-13
aI35
aa(lp1410
I8
aI28
aI35
aa(lp1411
I-17
aI-3
aI35
aa(lp1412
I19
aI1
aI35
aa(lp1413
I-15
aI18
aI35
aa(lp1414
I13
aI37
aI35
aa(lp1415
I-11
aI-7
aI35
aa(lp1416
I13
aI14
aI35
aa(lp1417
I17
aI-6
aI35
aa(lp1418
I10
aI22
aI35
aa(lp1419
I14
aI-8
aI35
aa(lp1420
I-21
aI3
aI35
aa(lp1421
I23
aI9
aI35
aa(lp1422
I12
aI-7
aI35
aa(lp1423
I11
aI-13
aI35
aa(lp1424
I14
aI-9
aI35
aa(lp1425
I12
aI-13
aI35
aa(lp1426
I-20
aI13
aI35
aa(lp1427
I-14
aI20
aI35
aa(lp1428
I9
aI29
aI35
aa(lp1429
I17
aI15
aI35
aa(lp1430
I-13
aI-13
aI35
aa(lp1431
I8
aI21
aI35
aa(lp1432
I-9
aI-18
aI35
aa(lp1433
I-5
aI-14
aI35
aa(lp1434
I3
aI23
aI35
aa(lp1435
I11
aI35
aI35
aa(lp1436
I6
aI-14
aI35
aa(lp1437
I6
aI34
aI35
aa(lp1438
I18
aI-10
aI35
aa(lp1439
I24
aI5
aI35
aa(lp1440
I16
aI36
aI35
aa(lp1441
I6
aI-16
aI35
aa(lp1442
I6
aI38
aI35
aa(lp1443
I19
aI-3
aI35
aa(lp1444
I9
aI35
aI35
aa(lp1445
I23
aI7
aI35
aa(lp1446
I25
aI11
aI35
aa(lp1447
I-2
aI22
aI35
aa(lp1448
I14
aI-14
aI35
aa(lp1449
I16
aI-9
aI35
aa(lp1450
I18
aI14
aI35
aa(lp1451
I22
aI32
aI35
aa(lp1452
I12
aI18
aI35
aa(lp1453
I18
aI15
aI35
aa(lp1454
I-9
aI38
aI35
aa(lp1455
I10
aI27
aI35
aa(lp1456
I-14
aI-3
aI35
aa(lp1457
I-12
aI23
aI35
aa(lp1458
I-15
aI15
aI35
aa(lp1459
I15
aI-5
aI35
aa(lp1460
I-1
aI23
aI35
aa(lp1461
I12
aI17
aI35
aa(lp1462
I12
aI16
aI35
aa(lp1463
I18
aI26
aI35
aa(lp1464
I17
aI36
aI35
aa(lp1465
I-6
aI24
aI35
aa(lp1466
I-22
aI5
aI35
aa(lp1467
I22
aI4
aI35
aa(lp1468
I13
aI15
aI35
aa(lp1469
I3
aI24
aI35
aa(lp1470
I19
aI12
aI35
aa(lp1471
I-18
aI21
aI35
aa(lp1472
I-18
aI1
aI35
aa(lp1473
I4
aI35
aI35
aa(lp1474
I16
aI-4
aI35
aa(lp1475
I9
aI23
aI35
aa(lp1476
I4
aI-17
aI35
aa(lp1477
I-2
aI26
aI35
aa(lp1478
I3
aI33
aI35
aa(lp1479
I-1
aI-16
aI35
aa(lp1480
I16
aI25
aI35
aa(lp1481
I22
aI16
aI35
aa(lp1482
I5
aI25
aI35
aa(lp1483
I-18
aI10
aI35
aa(lp1484
I-17
aI16
aI35
aa(lp1485
I-20
aI-6
aI35
aa(lp1486
I-3
aI23
aI35
aa(lp1487
I1
aI22
aI35
aa(lp1488
I20
aI-11
aI35
aa(lp1489
I18
aI40
aI35
aa(lp1490
I7
aI29
aI35
aa(lp1491
I22
aI-1
aI35
aa(lp1492
I-11
aI-16
aI35
aa(lp1493
I8
aI22
aI35
aa(lp1494
I-15
aI21
aI35
aa(lp1495
I-2
aI-19
aI35
aaa(lp1496
(lp1497
I31
aI16
aI36
aa(lp1498
I21
aI3
aI36
aa(lp1499
I-16
aI-8
aI36
aa(lp1500
I5
aI21
aI36
aa(lp1501
I8
aI-12
aI36
aa(lp1502
I-19
aI9
aI36
aa(lp1503
I19
aI-2
aI36
aa(lp1504
I-5
aI24
aI36
aa(lp1505
I-14
aI-12
aI36
aa(lp1506
I-16
aI-10
aI36
aa(lp1507
I-18
aI15
aI36
aa(lp1508
I19
aI28
aI36
aa(lp1509
I5
aI24
aI36
aa(lp1510
I22
aI7
aI36
aa(lp1511
I21
aI10
aI36
aa(lp1512
I8
aI33
aI36
aa(lp1513
I9
aI19
aI36
aa(lp1514
I16
aI-5
aI36
aa(lp1515
I26
aI7
aI36
aa(lp1516
I30
aI-15
aI36
aa(lp1517
I-19
aI-6
aI36
aa(lp1518
I-1
aI-15
aI36
aa(lp1519
I20
aI33
aI36
aa(lp1520
I-8
aI25
aI36
aa(lp1521
I21
aI14
aI36
aa(lp1522
I-12
aI21
aI36
aa(lp1523
I8
aI36
aI36
aa(lp1524
I-16
aI-2
aI36
aa(lp1525
I-19
aI-9
aI36
aa(lp1526
I-19
aI8
aI36
aa(lp1527
I-17
aI5
aI36
aa(lp1528
I-6
aI-15
aI36
aa(lp1529
I23
aI4
aI36
aa(lp1530
I18
aI36
aI36
aa(lp1531
I3
aI26
aI36
aa(lp1532
I12
aI22
aI36
aa(lp1533
I26
aI4
aI36
aa(lp1534
I3
aI-19
aI36
aa(lp1535
I24
aI11
aI36
aa(lp1536
I13
aI-15
aI36
aa(lp1537
I-13
aI22
aI36
aa(lp1538
I9
aI-14
aI36
aa(lp1539
I-11
aI-11
aI36
aa(lp1540
I17
aI16
aI36
aa(lp1541
I-17
aI-6
aI36
aa(lp1542
I9
aI28
aI36
aa(lp1543
I9
aI24
aI36
aa(lp1544
I-2
aI24
aI36
aa(lp1545
I12
aI15
aI36
aa(lp1546
I18
aI35
aI36
aa(lp1547
I-15
aI-11
aI36
aa(lp1548
I-20
aI5
aI36
aa(lp1549
I-20
aI-12
aI36
aa(lp1550
I-17
aI22
aI36
aa(lp1551
I4
aI36
aI36
aa(lp1552
I15
aI21
aI36
aa(lp1553
I11
aI33
aI36
aa(lp1554
I-22
aI2
aI36
aa(lp1555
I3
aI32
aI36
aa(lp1556
I-11
aI-12
aI36
aa(lp1557
I6
aI33
aI36
aa(lp1558
I-4
aI-16
aI36
aa(lp1559
I7
aI25
aI36
aa(lp1560
I-26
aI-8
aI36
aa(lp1561
I21
aI11
aI36
aa(lp1562
I19
aI-10
aI36
aa(lp1563
I18
aI39
aI36
aa(lp1564
I5
aI30
aI36
aa(lp1565
I-14
aI22
aI36
aa(lp1566
I-1
aI-17
aI36
aa(lp1567
I11
aI16
aI36
aa(lp1568
I-20
aI-1
aI36
aa(lp1569
I-4
aI23
aI36
aa(lp1570
I-21
aI1
aI36
aa(lp1571
I19
aI35
aI36
aa(lp1572
I-17
aI-2
aI36
aa(lp1573
I13
aI38
aI36
aa(lp1574
I14
aI-13
aI36
aa(lp1575
I-19
aI13
aI36
aa(lp1576
I-14
aI-13
aI36
aa(lp1577
I-8
aI-18
aI36
aa(lp1578
I11
aI36
aI36
aa(lp1579
I1
aI28
aI36
aa(lp1580
I17
aI-10
aI36
aa(lp1581
I15
aI36
aI36
aa(lp1582
I9
aI-18
aI36
aa(lp1583
I7
aI38
aI36
aa(lp1584
I8
aI35
aI36
aa(lp1585
I14
aI-15
aI36
aa(lp1586
I17
aI-9
aI36
aa(lp1587
I-9
aI37
aI36
aa(lp1588
I10
aI26
aI36
aa(lp1589
I-12
aI22
aI36
aa(lp1590
I13
aI16
aI36
aa(lp1591
I18
aI25
aI36
aa(lp1592
I-7
aI24
aI36
aa(lp1593
I23
aI3
aI36
aa(lp1594
I-19
aI21
aI36
aa(lp1595
I-4
aI35
aI36
aa(lp1596
I10
aI23
aI36
aa(lp1597
I-1
aI25
aI36
aa(lp1598
I4
aI33
aI36
aa(lp1599
I16
aI24
aI36
aa(lp1600
I21
aI18
aI36
aa(lp1601
I-22
aI-7
aI36
aa(lp1602
I-2
aI23
aI36
aa(lp1603
I2
aI22
aI36
aa(lp1604
I20
aI-9
aI36
aa(lp1605
I20
aI40
aI36
aa(lp1606
I8
aI29
aI36
aa(lp1607
I23
aI-1
aI36
aa(lp1608
I-11
aI-15
aI36
aa(lp1609
I-16
aI21
aI36
aa(lp1610
I-2
aI-18
aI36
aaa(lp1611
(lp1612
I19
aI11
aI37
aa(lp1613
I22
aI6
aI37
aa(lp1614
I-1
aI-14
aI37
aa(lp1615
I30
aI-6
aI37
aa(lp1616
I-16
aI-4
aI37
aa(lp1617
I20
aI32
aI37
aa(lp1618
I21
aI12
aI37
aa(lp1619
I-16
aI17
aI37
aa(lp1620
I-16
aI-12
aI37
aa(lp1621
I-17
aI12
aI37
aa(lp1622
I-16
aI-9
aI37
aa(lp1623
I1
aI-19
aI37
aa(lp1624
I-6
aI-16
aI37
aa(lp1625
I-2
aI-14
aI37
aa(lp1626
I13
aI23
aI37
aa(lp1627
I-19
aI-2
aI37
aa(lp1628
I14
aI16
aI37
aa(lp1629
I-18
aI7
aI37
aa(lp1630
I22
aI10
aI37
aa(lp1631
I24
aI14
aI37
aa(lp1632
I-21
aI4
aI37
aa(lp1633
I18
aI30
aI37
aa(lp1634
I-17
aI-1
aI37
aa(lp1635
I21
aI0
aI37
aa(lp1636
I11
aI27
aI37
aa(lp1637
I7
aI26
aI37
aa(lp1638
I5
aI35
aI37
aa(lp1639
I14
aI38
aI37
aa(lp1640
I-10
aI-9
aI37
aa(lp1641
I13
aI-9
aI37
aa(lp1642
I2
aI36
aI37
aa(lp1643
I7
aI33
aI37
aa(lp1644
I24
aI8
aI37
aa(lp1645
I2
aI-18
aI37
aa(lp1646
I15
aI-10
aI37
aa(lp1647
I-10
aI-18
aI37
aa(lp1648
I18
aI17
aI37
aa(lp1649
I-7
aI38
aI37
aa(lp1650
I10
aI25
aI37
aa(lp1651
I-15
aI-2
aI37
aa(lp1652
I-6
aI25
aI37
aa(lp1653
I-19
aI6
aI37
aa(lp1654
I23
aI35
aI37
aa(lp1655
I-17
aI-12
aI37
aa(lp1656
I4
aI25
aI37
aa(lp1657
I22
aI11
aI37
aa(lp1658
I-13
aI3
aI37
aa(lp1659
I5
aI-16
aI37
aa(lp1660
I14
aI-11
aI37
aa(lp1661
I21
aI15
aI37
aa(lp1662
I8
aI24
aI37
aa(lp1663
I-22
aI-5
aI37
aa(lp1664
I-20
aI-8
aI37
aa(lp1665
I15
aI38
aI37
aa(lp1666
I5
aI-19
aI37
aa(lp1667
I12
aI-16
aI37
aa(lp1668
I12
aI36
aI37
aa(lp1669
I20
aI36
aI37
aa(lp1670
I10
aI-14
aI37
aa(lp1671
I11
aI22
aI37
aa(lp1672
I23
aI8
aI37
aa(lp1673
I-23
aI14
aI37
aa(lp1674
I-12
aI-13
aI37
aa(lp1675
I11
aI37
aI37
aa(lp1676
I25
aI5
aI37
aa(lp1677
I10
aI35
aI37
aa(lp1678
I25
aI13
aI37
aa(lp1679
I0
aI25
aI37
aa(lp1680
I16
aI-16
aI37
aa(lp1681
I-9
aI39
aI37
aa(lp1682
I-13
aI23
aI37
aa(lp1683
I18
aI27
aI37
aa(lp1684
I17
aI37
aI37
aa(lp1685
I-23
aI4
aI37
aa(lp1686
I-18
aI22
aI37
aa(lp1687
I-19
aI0
aI37
aa(lp1688
I8
aI23
aI37
aa(lp1689
I-3
aI26
aI37
aa(lp1690
I2
aI33
aI37
aa(lp1691
I15
aI23
aI37
aa(lp1692
I21
aI16
aI37
aa(lp1693
I5
aI26
aI37
aa(lp1694
I-18
aI18
aI37
aa(lp1695
I3
aI22
aI37
aa(lp1696
I17
aI40
aI37
aa(lp1697
I32
aI16
aI37
aa(lp1698
I22
aI3
aI37
aa(lp1699
I-4
aI24
aI37
aa(lp1700
I-16
aI-11
aI37
aa(lp1701
I-19
aI15
aI37
aa(lp1702
I19
aI27
aI37
aa(lp1703
I16
aI-6
aI37
aa(lp1704
I8
aI37
aI37
aa(lp1705
I21
aI34
aI37
aa(lp1706
I4
aI26
aI37
aa(lp1707
I13
aI22
aI37
aa(lp1708
I26
aI3
aI37
aa(lp1709
I23
aI13
aI37
aa(lp1710
I8
aI-14
aI37
aa(lp1711
I-20
aI-13
aI37
aa(lp1712
I15
aI22
aI37
aa(lp1713
I-22
aI3
aI37
aa(lp1714
I-26
aI-9
aI37
aa(lp1715
I6
aI30
aI37
aa(lp1716
I-18
aI-2
aI37
aa(lp1717
I-21
aI2
aI37
aa(lp1718
I-11
aI-13
aI37
aa(lp1719
I1
aI29
aI37
aa(lp1720
I24
aI-9
aI37
aa(lp1721
I10
aI-18
aI37
aa(lp1722
I8
aI38
aI37
aa(lp1723
I11
aI25
aI37
aa(lp1724
I19
aI24
aI37
aa(lp1725
I-8
aI24
aI37
aa(lp1726
I23
aI2
aI37
aa(lp1727
I-20
aI22
aI37
aa(lp1728
I-5
aI35
aI37
aa(lp1729
I10
aI24
aI37
aa(lp1730
I4
aI31
aI37
aa(lp1731
I21
aI17
aI37
aa(lp1732
I2
aI23
aI37
aa(lp1733
I21
aI40
aI37
aa(lp1734
I23
aI-2
aI37
aa(lp1735
I-12
aI-14
aI37
aa(lp1736
I-15
aI22
aI37
aaa(lp1737
(lp1738
I9
aI-11
aI38
aa(lp1739
I19
aI15
aI38
aa(lp1740
I-18
aI-5
aI38
aa(lp1741
I-17
aI6
aI38
aa(lp1742
I17
aI27
aI38
aa(lp1743
I-17
aI0
aI38
aa(lp1744
I-15
aI-1
aI38
aa(lp1745
I5
aI31
aI38
aa(lp1746
I-7
aI-17
aI38
aa(lp1747
I23
aI33
aI38
aa(lp1748
I7
aI28
aI38
aa(lp1749
I11
aI21
aI38
aa(lp1750
I16
aI26
aI38
aa(lp1751
I-4
aI21
aI38
aa(lp1752
I17
aI-11
aI38
aa(lp1753
I-10
aI23
aI38
aa(lp1754
I2
aI25
aI38
aa(lp1755
I21
aI-2
aI38
aa(lp1756
I19
aI-8
aI38
aa(lp1757
I25
aI10
aI38
aa(lp1758
I-4
aI26
aI38
aa(lp1759
I-15
aI19
aI38
aa(lp1760
I-9
aI24
aI38
aa(lp1761
I14
aI23
aI38
aa(lp1762
I-8
aI39
aI38
aa(lp1763
I13
aI18
aI38
aa(lp1764
I21
aI30
aI38
aa(lp1765
I-15
aI-12
aI38
aa(lp1766
I18
aI19
aI38
aa(lp1767
I-11
aI-14
aI38
aa(lp1768
I15
aI24
aI38
aa(lp1769
I-13
aI-15
aI38
aa(lp1770
I9
aI37
aI38
aa(lp1771
I-23
aI-6
aI38
aa(lp1772
I16
aI37
aI38
aa(lp1773
I16
aI-11
aI38
aa(lp1774
I4
aI-20
aI38
aa(lp1775
I11
aI-14
aI38
aa(lp1776
I-24
aI-6
aI38
aa(lp1777
I17
aI-7
aI38
aa(lp1778
I10
aI38
aI38
aa(lp1779
I-18
aI-9
aI38
aa(lp1780
I6
aI22
aI38
aa(lp1781
I-21
aI13
aI38
aa(lp1782
I-13
aI-14
aI38
aa(lp1783
I24
aI4
aI38
aa(lp1784
I17
aI-14
aI38
aa(lp1785
I22
aI33
aI38
aa(lp1786
I15
aI-6
aI38
aa(lp1787
I17
aI26
aI38
aa(lp1788
I-19
aI1
aI38
aa(lp1789
I-2
aI-17
aI38
aa(lp1790
I17
aI25
aI38
aa(lp1791
I-16
aI16
aI38
aa(lp1792
I21
aI-11
aI38
aa(lp1793
I20
aI0
aI38
aa(lp1794
I-10
aI-16
aI38
aa(lp1795
I-20
aI9
aI38
aa(lp1796
I6
aI24
aI38
aa(lp1797
I9
aI20
aI38
aa(lp1798
I27
aI7
aI38
aa(lp1799
I29
aI-17
aI38
aa(lp1800
I-19
aI-5
aI38
aa(lp1801
I8
aI40
aI38
aa(lp1802
I-21
aI8
aI38
aa(lp1803
I2
aI26
aI38
aa(lp1804
I11
aI24
aI38
aa(lp1805
I27
aI4
aI38
aa(lp1806
I24
aI12
aI38
aa(lp1807
I-3
aI24
aI38
aa(lp1808
I-20
aI-10
aI38
aa(lp1809
I14
aI21
aI38
aa(lp1810
I-22
aI1
aI38
aa(lp1811
I-10
aI-12
aI38
aa(lp1812
I19
aI-9
aI38
aa(lp1813
I-16
aI24
aI38
aa(lp1814
I-1
aI-18
aI38
aa(lp1815
I14
aI-12
aI38
aa(lp1816
I2
aI28
aI38
aa(lp1817
I9
aI-17
aI38
aa(lp1818
I6
aI39
aI38
aa(lp1819
I-10
aI37
aI38
aa(lp1820
I18
aI24
aI38
aa(lp1821
I-7
aI25
aI38
aa(lp1822
I24
aI3
aI38
aa(lp1823
I-3
aI35
aI38
aa(lp1824
I11
aI23
aI38
aa(lp1825
I-1
aI26
aI38
aa(lp1826
I21
aI19
aI38
aa(lp1827
I20
aI-10
aI38
aa(lp1828
I-16
aI20
aI38
aa(lp1829
I-17
aI-9
aI38
aa(lp1830
I1
aI-18
aI38
aa(lp1831
I-2
aI-15
aI38
aa(lp1832
I23
aI14
aI38
aa(lp1833
I-21
aI5
aI38
aa(lp1834
I21
aI1
aI38
aa(lp1835
I2
aI35
aI38
aa(lp1836
I15
aI-11
aI38
aa(lp1837
I-8
aI40
aI38
aa(lp1838
I-18
aI-12
aI38
aa(lp1839
I23
aI11
aI38
aa(lp1840
I5
aI-17
aI38
aa(lp1841
I16
aI38
aI38
aa(lp1842
I11
aI-17
aI38
aa(lp1843
I19
aI36
aI38
aa(lp1844
I-24
aI16
aI38
aa(lp1845
I11
aI38
aI38
aa(lp1846
I25
aI14
aI38
aa(lp1847
I-9
aI40
aI38
aa(lp1848
I-24
aI4
aI38
aa(lp1849
I-17
aI20
aI38
aa(lp1850
I-17
aI18
aI38
aa(lp1851
I22
aI34
aI38
aa(lp1852
I4
aI27
aI38
aa(lp1853
I13
aI20
aI38
aa(lp1854
I26
aI2
aI38
aa(lp1855
I-23
aI3
aI38
aa(lp1856
I23
aI-9
aI38
aa(lp1857
I10
aI-19
aI38
aa(lp1858
I-20
aI23
aI38
aa(lp1859
I-5
aI36
aI38
aa(lp1860
I4
aI30
aI38
aa(lp1861
I25
aI15
aI38
aa(lp1862
I22
aI-2
aI38
aaa(lp1863
(lp1864
I-11
aI25
aI39
aa(lp1865
I12
aI26
aI39
aa(lp1866
I10
aI29
aI39
aa(lp1867
I-3
aI-17
aI39
aa(lp1868
I15
aI16
aI39
aa(lp1869
I13
aI-11
aI39
aa(lp1870
I-1
aI32
aI39
aa(lp1871
I-18
aI11
aI39
aa(lp1872
I21
aI2
aI39
aa(lp1873
I6
aI23
aI39
aa(lp1874
I18
aI-9
aI39
aa(lp1875
I-18
aI13
aI39
aa(lp1876
I24
aI6
aI39
aa(lp1877
I-8
aI37
aI39
aa(lp1878
I9
aI26
aI39
aa(lp1879
I-18
aI5
aI39
aa(lp1880
I23
aI12
aI39
aa(lp1881
I-14
aI-16
aI39
aa(lp1882
I-22
aI14
aI39
aa(lp1883
I23
aI15
aI39
aa(lp1884
I-7
aI-24
aI39
aa(lp1885
I-21
aI-6
aI39
aa(lp1886
I-21
aI11
aI39
aa(lp1887
I25
aI8
aI39
aa(lp1888
I4
aI-18
aI39
aa(lp1889
I-20
aI0
aI39
aa(lp1890
I14
aI39
aI39
aa(lp1891
I19
aI-5
aI39
aa(lp1892
I15
aI-14
aI39
aa(lp1893
I-10
aI38
aI39
aa(lp1894
I-12
aI24
aI39
aa(lp1895
I2
aI24
aI39
aa(lp1896
I14
aI22
aI39
aa(lp1897
I16
aI23
aI39
aa(lp1898
I23
aI16
aI39
aa(lp1899
I6
aI25
aI39
aa(lp1900
I-17
aI17
aI39
aa(lp1901
I1
aI24
aI39
aa(lp1902
I-12
aI-16
aI39
aa(lp1903
I-15
aI20
aI39
aa(lp1904
I-2
aI-20
aI39
aa(lp1905
I30
aI16
aI39
aa(lp1906
I-20
aI11
aI39
aa(lp1907
I23
aI6
aI39
aa(lp1908
I26
aI8
aI39
aa(lp1909
I29
aI-15
aI39
aa(lp1910
I-8
aI26
aI39
aa(lp1911
I18
aI37
aI39
aa(lp1912
I12
aI21
aI39
aa(lp1913
I29
aI3
aI39
aa(lp1914
I8
aI-17
aI39
aa(lp1915
I19
aI37
aI39
aa(lp1916
I-17
aI-14
aI39
aa(lp1917
I-16
aI22
aI39
aa(lp1918
I-22
aI-1
aI39
aa(lp1919
I15
aI-13
aI39
aa(lp1920
I22
aI-11
aI39
aa(lp1921
I9
aI-19
aI39
aa(lp1922
I14
aI-17
aI39
aa(lp1923
I-20
aI20
aI39
aa(lp1924
I-4
aI34
aI39
aa(lp1925
I20
aI18
aI39
aa(lp1926
I19
aI41
aI39
aa(lp1927
I-12
aI-15
aI39
aa(lp1928
I20
aI31
aI39
aa(lp1929
I-16
aI18
aI39
aa(lp1930
I-18
aI12
aI39
aa(lp1931
I-19
aI-3
aI39
aa(lp1932
I24
aI13
aI39
aa(lp1933
I2
aI37
aI39
aa(lp1934
I2
aI-17
aI39
aa(lp1935
I-10
aI-19
aI39
aa(lp1936
I17
aI17
aI39
aa(lp1937
I-5
aI25
aI39
aa(lp1938
I-20
aI6
aI39
aa(lp1939
I24
aI35
aI39
aa(lp1940
I7
aI-17
aI39
aa(lp1941
I-21
aI-5
aI39
aa(lp1942
I-21
aI-8
aI39
aa(lp1943
I5
aI-18
aI39
aa(lp1944
I10
aI-15
aI39
aa(lp1945
I-23
aI12
aI39
aa(lp1946
I26
aI5
aI39
aa(lp1947
I-10
aI39
aI39
aa(lp1948
I-14
aI23
aI39
aa(lp1949
I-18
aI0
aI39
aa(lp1950
I17
aI41
aI39
aa(lp1951
I33
aI16
aI39
aa(lp1952
I23
aI-4
aI39
aa(lp1953
I6
aI26
aI39
aa(lp1954
I27
aI2
aI39
aa(lp1955
I-19
aI-14
aI39
aa(lp1956
I-25
aI-9
aI39
aa(lp1957
I8
aI39
aI39
aa(lp1958
I17
aI24
aI39
aa(lp1959
I24
aI2
aI39
aa(lp1960
I22
aI17
aI39
aa(lp1961
I1
aI23
aI39
aa(lp1962
I22
aI40
aI39
aa(lp1963
I19
aI16
aI39
aa(lp1964
I-18
aI-4
aI39
aa(lp1965
I5
aI33
aI39
aa(lp1966
I17
aI-12
aI39
aa(lp1967
I26
aI10
aI39
aa(lp1968
I-16
aI19
aI39
aa(lp1969
I21
aI31
aI39
aa(lp1970
I17
aI19
aI39
aa(lp1971
I-13
aI-16
aI39
aa(lp1972
I10
aI37
aI39
aa(lp1973
I5
aI-20
aI39
aa(lp1974
I11
aI-15
aI39
aa(lp1975
I-24
aI-5
aI39
aa(lp1976
I10
aI39
aI39
aa(lp1977
I-22
aI12
aI39
aa(lp1978
I18
aI-14
aI39
aa(lp1979
I20
aI1
aI39
aa(lp1980
I-19
aI10
aI39
aa(lp1981
I10
aI20
aI39
aa(lp1982
I27
aI8
aI39
aa(lp1983
I28
aI-18
aI39
aa(lp1984
I8
aI41
aI39
aa(lp1985
I28
aI4
aI39
aa(lp1986
I-17
aI25
aI39
aa(lp1987
I13
aI-12
aI39
aa(lp1988
I9
aI-16
aI39
aa(lp1989
I-10
aI35
aI39
aa(lp1990
I25
aI3
aI39
aa(lp1991
I21
aI21
aI39
aa(lp1992
I-8
aI41
aI39
aa(lp1993
I11
aI-18
aI39
aa(lp1994
I-23
aI16
aI39
aa(lp1995
I-10
aI40
aI39
aa(lp1996
I-19
aI16
aI39
aa(lp1997
I23
aI34
aI39
aa(lp1998
I4
aI28
aI39
aa(lp1999
I12
aI20
aI39
aa(lp2000
I26
aI1
aI39
aa(lp2001
I-22
aI4
aI39
aa(lp2002
I22
aI-9
aI39
aa(lp2003
I-20
aI24
aI39
aa(lp2004
I22
aI-3
aI39
aaa(lp2005
(lp2006
I-23
aI10
aI40
aa(lp2007
I-4
aI-17
aI40
aa(lp2008
I-15
aI0
aI40
aa(lp2009
I24
aI9
aI40
aa(lp2010
I16
aI16
aI40
aa(lp2011
I-5
aI-16
aI40
aa(lp2012
I6
aI29
aI40
aa(lp2013
I18
aI-12
aI40
aa(lp2014
I5
aI38
aI40
aa(lp2015
I-9
aI-20
aI40
aa(lp2016
I18
aI18
aI40
aa(lp2017
I19
aI31
aI40
aa(lp2018
I0
aI23
aI40
aa(lp2019
I19
aI-12
aI40
aa(lp2020
I19
aI39
aI40
aa(lp2021
I7
aI23
aI40
aa(lp2022
I22
aI35
aI40
aa(lp2023
I-14
aI19
aI40
aa(lp2024
I20
aI-4
aI40
aa(lp2025
I-9
aI36
aI40
aa(lp2026
I3
aI35
aI40
aa(lp2027
I-8
aI31
aI40
aa(lp2028
I20
aI28
aI40
aa(lp2029
I26
aI6
aI40
aa(lp2030
I25
aI4
aI40
aa(lp2031
I9
aI-15
aI40
aa(lp2032
I-23
aI6
aI40
aa(lp2033
I-19
aI-12
aI40
aa(lp2034
I-17
aI23
aI40
aa(lp2035
I2
aI32
aI40
aa(lp2036
I-28
aI-8
aI40
aa(lp2037
I-20
aI-3
aI40
aa(lp2038
I-21
aI0
aI40
aa(lp2039
I-19
aI12
aI40
aa(lp2040
I-15
aI-13
aI40
aa(lp2041
I3
aI28
aI40
aa(lp2042
I7
aI39
aI40
aa(lp2043
I12
aI-15
aI40
aa(lp2044
I11
aI26
aI40
aa(lp2045
I-20
aI21
aI40
aa(lp2046
I22
aI19
aI40
aa(lp2047
I-21
aI-7
aI40
aa(lp2048
I23
aI0
aI40
aa(lp2049
I-17
aI-4
aI40
aa(lp2050
I21
aI32
aI40
aa(lp2051
I1
aI-20
aI40
aa(lp2052
I14
aI17
aI40
aa(lp2053
I-19
aI7
aI40
aa(lp2054
I24
aI15
aI40
aa(lp2055
I18
aI29
aI40
aa(lp2056
I20
aI15
aI40
aa(lp2057
I7
aI24
aI40
aa(lp2058
I-20
aI-9
aI40
aa(lp2059
I6
aI-19
aI40
aa(lp2060
I-23
aI13
aI40
aa(lp2061
I1
aI25
aI40
aa(lp2062
I15
aI-18
aI40
aa(lp2063
I20
aI16
aI40
aa(lp2064
I-18
aI19
aI40
aa(lp2065
I17
aI39
aI40
aa(lp2066
I-17
aI-11
aI40
aa(lp2067
I20
aI27
aI40
aa(lp2068
I-18
aI-3
aI40
aa(lp2069
I0
aI29
aI40
aa(lp2070
I10
aI-17
aI40
aa(lp2071
I19
aI25
aI40
aa(lp2072
I23
aI1
aI40
aa(lp2073
I20
aI17
aI40
aa(lp2074
I24
aI-2
aI40
aa(lp2075
I-6
aI-17
aI40
aa(lp2076
I10
aI21
aI40
aa(lp2077
I21
aI-10
aI40
aa(lp2078
I-5
aI26
aI40
aa(lp2079
I21
aI29
aI40
aa(lp2080
I9
aI39
aI40
aa(lp2081
I16
aI-10
aI40
aa(lp2082
I4
aI-22
aI40
aa(lp2083
I-26
aI-3
aI40
aa(lp2084
I11
aI42
aI40
aa(lp2085
I-22
aI13
aI40
aa(lp2086
I17
aI-13
aI40
aa(lp2087
I-3
aI-18
aI40
aa(lp2088
I-22
aI9
aI40
aa(lp2089
I27
aI6
aI40
aa(lp2090
I27
aI-17
aI40
aa(lp2091
I-21
aI7
aI40
aa(lp2092
I29
aI5
aI40
aa(lp2093
I-21
aI-10
aI40
aa(lp2094
I-24
aI-1
aI40
aa(lp2095
I-17
aI24
aI40
aa(lp2096
I20
aI-8
aI40
aa(lp2097
I14
aI-16
aI40
aa(lp2098
I-23
aI17
aI40
aa(lp2099
I12
aI38
aI40
aa(lp2100
I-18
aI17
aI40
aa(lp2101
I21
aI33
aI40
aa(lp2102
I23
aI-5
aI40
aa(lp2103
I23
aI-8
aI40
aa(lp2104
I-7
aI35
aI40
aa(lp2105
I3
aI29
aI40
aa(lp2106
I-3
aI-16
aI40
aa(lp2107
I-1
aI33
aI40
aa(lp2108
I-14
aI-17
aI40
aa(lp2109
I-7
aI-23
aI40
aa(lp2110
I19
aI-6
aI40
aa(lp2111
I15
aI-15
aI40
aa(lp2112
I-12
aI-17
aI40
aa(lp2113
I-2
aI-21
aI40
aa(lp2114
I28
aI-14
aI40
aa(lp2115
I-8
aI27
aI40
aa(lp2116
I30
aI3
aI40
aa(lp2117
I15
aI42
aI40
aa(lp2118
I-16
aI-14
aI40
aa(lp2119
I-23
aI-1
aI40
aa(lp2120
I-20
aI19
aI40
aa(lp2121
I-3
aI34
aI40
aa(lp2122
I19
aI40
aI40
aa(lp2123
I20
aI30
aI40
aa(lp2124
I-20
aI12
aI40
aa(lp2125
I-19
aI-1
aI40
aa(lp2126
I-20
aI7
aI40
aa(lp2127
I24
aI34
aI40
aa(lp2128
I-22
aI-8
aI40
aa(lp2129
I-23
aI11
aI40
aa(lp2130
I-6
aI39
aI40
aa(lp2131
I17
aI42
aI40
aa(lp2132
I3
aI27
aI40
aa(lp2133
I-21
aI-12
aI40
aa(lp2134
I-24
aI-9
aI40
aa(lp2135
I17
aI23
aI40
aa(lp2136
I24
aI40
aI40
aa(lp2137
I26
aI11
aI40
aa(lp2138
I16
aI19
aI40
aa(lp2139
I11
aI-16
aI40
aa(lp2140
I27
aI10
aI40
aa(lp2141
I29
aI-19
aI40
aa(lp2142
I28
aI3
aI40
aa(lp2143
I-10
aI33
aI40
aa(lp2144
I25
aI1
aI40
aa(lp2145
I21
aI20
aI40
aa(lp2146
I-7
aI41
aI40
aa(lp2147
I11
aI20
aI40
aa(lp2148
I26
aI-1
aI40
aaa(lp2149
(lp2150
I13
aI25
aI41
aa(lp2151
I-5
aI-17
aI41
aa(lp2152
I5
aI37
aI41
aa(lp2153
I-18
aI-13
aI41
aa(lp2154
I-21
aI14
aI41
aa(lp2155
I18
aI-7
aI41
aa(lp2156
I18
aI-6
aI41
aa(lp2157
I9
aI21
aI41
aa(lp2158
I4
aI34
aI41
aa(lp2159
I20
aI-3
aI41
aa(lp2160
I28
aI11
aI41
aa(lp2161
I14
aI40
aI41
aa(lp2162
I31
aI15
aI41
aa(lp2163
I30
aI-16
aI41
aa(lp2164
I9
aI36
aI41
aa(lp2165
I-19
aI-10
aI41
aa(lp2166
I25
aI6
aI41
aa(lp2167
I3
aI-20
aI41
aa(lp2168
I2
aI31
aI41
aa(lp2169
I-8
aI-19
aI41
aa(lp2170
I12
aI37
aI41
aa(lp2171
I-1
aI27
aI41
aa(lp2172
I-11
aI35
aI41
aa(lp2173
I-11
aI22
aI41
aa(lp2174
I30
aI-5
aI41
aa(lp2175
I2
aI-19
aI41
aa(lp2176
I19
aI30
aI41
aa(lp2177
I3
aI36
aI41
aa(lp2178
I-7
aI37
aI41
aa(lp2179
I20
aI37
aI41
aa(lp2180
I-24
aI14
aI41
aa(lp2181
I26
aI13
aI41
aa(lp2182
I15
aI-16
aI41
aa(lp2183
I-22
aI6
aI41
aa(lp2184
I29
aI12
aI41
aa(lp2185
I22
aI2
aI41
aa(lp2186
I-17
aI-10
aI41
aa(lp2187
I21
aI38
aI41
aa(lp2188
I5
aI27
aI41
aa(lp2189
I-18
aI20
aI41
aa(lp2190
I3
aI31
aI41
aa(lp2191
I22
aI42
aI41
aa(lp2192
I-10
aI24
aI41
aa(lp2193
I17
aI18
aI41
aa(lp2194
I-23
aI-7
aI41
aa(lp2195
I15
aI39
aI41
aa(lp2196
I-2
aI-16
aI41
aa(lp2197
I-21
aI10
aI41
aa(lp2198
I1
aI26
aI41
aa(lp2199
I15
aI20
aI41
aa(lp2200
I-22
aI0
aI41
aa(lp2201
I-15
aI24
aI41
aa(lp2202
I0
aI-18
aI41
aa(lp2203
I-11
aI37
aI41
aa(lp2204
I18
aI23
aI41
aa(lp2205
I20
aI19
aI41
aa(lp2206
I16
aI39
aI41
aa(lp2207
I20
aI39
aI41
aa(lp2208
I-24
aI17
aI41
aa(lp2209
I-24
aI3
aI41
aa(lp2210
I14
aI20
aI41
aa(lp2211
I24
aI-1
aI41
aa(lp2212
I-19
aI23
aI41
aa(lp2213
I-4
aI37
aI41
aa(lp2214
I4
aI29
aI41
aa(lp2215
I-13
aI25
aI41
aa(lp2216
I-7
aI-25
aI41
aa(lp2217
I-13
aI24
aI41
aa(lp2218
I28
aI17
aI41
aa(lp2219
I29
aI-13
aI41
aa(lp2220
I19
aI38
aI41
aa(lp2221
I-16
aI23
aI41
aa(lp2222
I22
aI-10
aI41
aa(lp2223
I13
aI-17
aI41
aa(lp2224
I-21
aI20
aI41
aa(lp2225
I-10
aI-20
aI41
aa(lp2226
I24
aI36
aI41
aa(lp2227
I7
aI-18
aI41
aa(lp2228
I-20
aI-5
aI41
aa(lp2229
I-24
aI12
aI41
aa(lp2230
I-15
aI23
aI41
aa(lp2231
I18
aI41
aI41
aa(lp2232
I34
aI16
aI41
aa(lp2233
I22
aI-4
aI41
aa(lp2234
I-21
aI-13
aI41
aa(lp2235
I-25
aI-10
aI41
aa(lp2236
I25
aI2
aI41
aa(lp2237
I26
aI12
aI41
aa(lp2238
I-24
aI-4
aI41
aa(lp2239
I11
aI39
aI41
aa(lp2240
I-22
aI11
aI41
aa(lp2241
I18
aI-15
aI41
aa(lp2242
I30
aI-17
aI41
aa(lp2243
I29
aI4
aI41
aa(lp2244
I-17
aI26
aI41
aa(lp2245
I22
aI-8
aI41
aa(lp2246
I21
aI-3
aI41
aa(lp2247
I6
aI28
aI41
aa(lp2248
I5
aI39
aI41
aa(lp2249
I-9
aI-23
aI41
aa(lp2250
I21
aI37
aI41
aa(lp2251
I19
aI-4
aI41
aa(lp2252
I20
aI29
aI41
aa(lp2253
I8
aI-15
aI41
aa(lp2254
I-24
aI6
aI41
aa(lp2255
I-18
aI23
aI41
aa(lp2256
I-28
aI-10
aI41
aa(lp2257
I-14
aI-14
aI41
aa(lp2258
I2
aI-20
aI41
aa(lp2259
I-24
aI13
aI41
aa(lp2260
I14
aI-18
aI41
aa(lp2261
I-18
aI16
aI41
aa(lp2262
I20
aI26
aI41
aa(lp2263
I0
aI30
aI41
aa(lp2264
I-26
aI-2
aI41
aa(lp2265
I11
aI41
aI41
aa(lp2266
I18
aI-13
aI41
aa(lp2267
I-24
aI9
aI41
aa(lp2268
I26
aI-16
aI41
aa(lp2269
I-22
aI8
aI41
aa(lp2270
I-22
aI17
aI41
aa(lp2271
I23
aI-7
aI41
aa(lp2272
I-7
aI34
aI41
aa(lp2273
I-14
aI-18
aI41
aa(lp2274
I-3
aI-21
aI41
aa(lp2275
I27
aI-14
aI41
aa(lp2276
I30
aI4
aI41
aa(lp2277
I16
aI41
aI41
aa(lp2278
I-17
aI-13
aI41
aa(lp2279
I-22
aI-2
aI41
aa(lp2280
I24
aI33
aI41
aa(lp2281
I-23
aI-9
aI41
aa(lp2282
I-5
aI39
aI41
aa(lp2283
I2
aI27
aI41
aa(lp2284
I-24
aI-10
aI41
aa(lp2285
I24
aI41
aI41
aa(lp2286
I29
aI-20
aI41
aa(lp2287
I20
aI20
aI41
aaa(lp2288
(lp2289
I-11
aI24
aI42
aa(lp2290
I-10
aI22
aI42
aa(lp2291
I17
aI38
aI42
aa(lp2292
I13
aI-16
aI42
aa(lp2293
I27
aI11
aI42
aa(lp2294
I22
aI31
aI42
aa(lp2295
I14
aI18
aI42
aa(lp2296
I19
aI26
aI42
aa(lp2297
I3
aI34
aI42
aa(lp2298
I22
aI0
aI42
aa(lp2299
I-23
aI1
aI42
aa(lp2300
I-25
aI-8
aI42
aa(lp2301
I13
aI39
aI42
aa(lp2302
I-7
aI-18
aI42
aa(lp2303
I-19
aI19
aI42
aa(lp2304
I30
aI-7
aI42
aa(lp2305
I-16
aI-13
aI42
aa(lp2306
I-23
aI15
aI42
aa(lp2307
I1
aI33
aI42
aa(lp2308
I16
aI40
aI42
aa(lp2309
I32
aI17
aI42
aa(lp2310
I21
aI35
aI42
aa(lp2311
I27
aI3
aI42
aa(lp2312
I-20
aI-11
aI42
aa(lp2313
I-18
aI-1
aI42
aa(lp2314
I24
aI-8
aI42
aa(lp2315
I-7
aI39
aI42
aa(lp2316
I10
aI36
aI42
aa(lp2317
I-18
aI-10
aI42
aa(lp2318
I29
aI9
aI42
aa(lp2319
I9
aI40
aI42
aa(lp2320
I-14
aI24
aI42
aa(lp2321
I2
aI29
aI42
aa(lp2322
I-15
aI42
aI42
aa(lp2323
I-2
aI35
aI42
aa(lp2324
I-21
aI6
aI42
aa(lp2325
I-4
aI36
aI42
aa(lp2326
I25
aI17
aI42
aa(lp2327
I21
aI-6
aI42
aa(lp2328
I-11
aI26
aI42
aa(lp2329
I0
aI32
aI42
aa(lp2330
I-19
aI11
aI42
aa(lp2331
I-7
aI36
aI42
aa(lp2332
I-6
aI-24
aI42
aa(lp2333
I-22
aI10
aI42
aa(lp2334
I16
aI-14
aI42
aa(lp2335
I-11
aI38
aI42
aa(lp2336
I-1
aI-20
aI42
aa(lp2337
I29
aI16
aI42
aa(lp2338
I-17
aI-18
aI42
aa(lp2339
I23
aI-11
aI42
aa(lp2340
I19
aI42
aI42
aa(lp2341
I3
aI-17
aI42
aa(lp2342
I-11
aI-17
aI42
aa(lp2343
I16
aI17
aI42
aa(lp2344
I33
aI14
aI42
aa(lp2345
I27
aI1
aI42
aa(lp2346
I-20
aI-14
aI42
aa(lp2347
I-19
aI-4
aI42
aa(lp2348
I26
aI9
aI42
aa(lp2349
I17
aI20
aI42
aa(lp2350
I5
aI-21
aI42
aa(lp2351
I28
aI-19
aI42
aa(lp2352
I28
aI5
aI42
aa(lp2353
I-16
aI25
aI42
aa(lp2354
I8
aI-16
aI42
aa(lp2355
I22
aI20
aI42
aa(lp2356
I12
aI-21
aI42
aa(lp2357
I-22
aI16
aI42
aa(lp2358
I12
aI19
aI42
aa(lp2359
I-21
aI24
aI42
aa(lp2360
I-24
aI10
aI42
aa(lp2361
I-4
aI-18
aI42
aa(lp2362
I0
aI24
aI42
aa(lp2363
I19
aI-13
aI42
aa(lp2364
I-8
aI35
aI42
aa(lp2365
I24
aI0
aI42
aa(lp2366
I15
aI17
aI42
aa(lp2367
I0
aI28
aI42
aa(lp2368
I24
aI-3
aI42
aa(lp2369
I21
aI-8
aI42
aa(lp2370
I3
aI-22
aI42
aa(lp2371
I-25
aI-3
aI42
aa(lp2372
I12
aI42
aI42
aa(lp2373
I-23
aI9
aI42
aa(lp2374
I27
aI5
aI42
aa(lp2375
I-22
aI7
aI42
aa(lp2376
I-24
aI0
aI42
aa(lp2377
I12
aI39
aI42
aa(lp2378
I21
aI36
aI42
aa(lp2379
I23
aI-6
aI42
aa(lp2380
I-8
aI34
aI42
aa(lp2381
I-8
aI-23
aI42
aa(lp2382
I28
aI-15
aI42
aa(lp2383
I15
aI43
aI42
aa(lp2384
I-23
aI-2
aI42
aa(lp2385
I-4
aI33
aI42
aa(lp2386
I-21
aI12
aI42
aa(lp2387
I25
aI34
aI42
aa(lp2388
I17
aI43
aI42
aa(lp2389
I-21
aI-11
aI42
aa(lp2390
I24
aI42
aI42
aa(lp2391
I16
aI20
aI42
aa(lp2392
I29
aI-18
aI42
aa(lp2393
I-9
aI33
aI42
aa(lp2394
I25
aI-1
aI42
aa(lp2395
I32
aI15
aI42
aa(lp2396
I0
aI27
aI42
aa(lp2397
I31
aI-5
aI42
aa(lp2398
I20
aI38
aI42
aa(lp2399
I28
aI12
aI42
aa(lp2400
I-10
aI25
aI42
aa(lp2401
I16
aI18
aI42
aa(lp2402
I-23
aI-8
aI42
aa(lp2403
I-20
aI10
aI42
aa(lp2404
I-23
aI0
aI42
aa(lp2405
I0
aI-17
aI42
aa(lp2406
I18
aI22
aI42
aa(lp2407
I-25
aI17
aI42
aa(lp2408
I-24
aI2
aI42
aa(lp2409
I-3
aI37
aI42
aa(lp2410
I29
aI-11
aI42
aa(lp2411
I-21
aI21
aI42
aa(lp2412
I-10
aI-21
aI42
aa(lp2413
I23
aI36
aI42
aa(lp2414
I8
aI-18
aI42
aa(lp2415
I-21
aI-14
aI42
aa(lp2416
I-25
aI-11
aI42
aa(lp2417
I-23
aI-4
aI42
aa(lp2418
I-10
aI-23
aI42
aa(lp2419
I-25
aI6
aI42
aa(lp2420
I-27
aI-2
aI42
aa(lp2421
I11
aI40
aI42
aa(lp2422
I26
aI-17
aI42
aa(lp2423
I-7
aI33
aI42
aa(lp2424
I-4
aI-21
aI42
aa(lp2425
I30
aI5
aI42
aa(lp2426
I25
aI33
aI42
aa(lp2427
I-7
aI40
aI42
aa(lp2428
I25
aI41
aI42
aaa(lp2429
(lp2430
I11
aI-12
aI43
aa(lp2431
I9
aI38
aI43
aa(lp2432
I19
aI32
aI43
aa(lp2433
I15
aI-12
aI43
aa(lp2434
I26
aI15
aI43
aa(lp2435
I21
aI-12
aI43
aa(lp2436
I-21
aI-2
aI43
aa(lp2437
I-9
aI-19
aI43
aa(lp2438
I6
aI-17
aI43
aa(lp2439
I25
aI12
aI43
aa(lp2440
I-23
aI5
aI43
aa(lp2441
I20
aI-12
aI43
aa(lp2442
I-1
aI-19
aI43
aa(lp2443
I31
aI17
aI43
aa(lp2444
I19
aI29
aI43
aa(lp2445
I13
aI21
aI43
aa(lp2446
I-20
aI-2
aI43
aa(lp2447
I1
aI27
aI43
aa(lp2448
I31
aI-7
aI43
aa(lp2449
I-18
aI6
aI43
aa(lp2450
I3
aI37
aI43
aa(lp2451
I-23
aI-5
aI43
aa(lp2452
I1
aI34
aI43
aa(lp2453
I1
aI31
aI43
aa(lp2454
I26
aI-9
aI43
aa(lp2455
I11
aI-19
aI43
aa(lp2456
I21
aI39
aI43
aa(lp2457
I-4
aI29
aI43
aa(lp2458
I-9
aI25
aI43
aa(lp2459
I-24
aI-7
aI43
aa(lp2460
I24
aI-10
aI43
aa(lp2461
I-20
aI8
aI43
aa(lp2462
I28
aI-17
aI43
aa(lp2463
I28
aI7
aI43
aa(lp2464
I-3
aI36
aI43
aa(lp2465
I22
aI1
aI43
aa(lp2466
I-8
aI42
aI43
aa(lp2467
I12
aI-18
aI43
aa(lp2468
I-24
aI15
aI43
aa(lp2469
I10
aI-20
aI43
aa(lp2470
I-21
aI23
aI43
aa(lp2471
I20
aI21
aI43
aa(lp2472
I29
aI-16
aI43
aa(lp2473
I29
aI2
aI43
aa(lp2474
I13
aI-18
aI43
aa(lp2475
I19
aI18
aI43
aa(lp2476
I23
aI31
aI43
aa(lp2477
I16
aI42
aI43
aa(lp2478
I23
aI40
aI43
aa(lp2479
I31
aI-2
aI43
aa(lp2480
I10
aI-16
aI43
aa(lp2481
I21
aI22
aI43
aa(lp2482
I-12
aI45
aI43
aa(lp2483
I-19
aI17
aI43
aa(lp2484
I25
aI9
aI43
aa(lp2485
I22
aI36
aI43
aa(lp2486
I-10
aI36
aI43
aa(lp2487
I-7
aI32
aI43
aa(lp2488
I-23
aI8
aI43
aa(lp2489
I-28
aI-9
aI43
aa(lp2490
I15
aI-19
aI43
aa(lp2491
I-18
aI-11
aI43
aa(lp2492
I0
aI31
aI43
aa(lp2493
I21
aI-9
aI43
aa(lp2494
I1
aI-22
aI43
aa(lp2495
I10
aI42
aI43
aa(lp2496
I28
aI6
aI43
aa(lp2497
I-23
aI18
aI43
aa(lp2498
I-2
aI33
aI43
aa(lp2499
I-13
aI-17
aI43
aa(lp2500
I26
aI-15
aI43
aa(lp2501
I-9
aI26
aI43
aa(lp2502
I30
aI2
aI43
aa(lp2503
I15
aI41
aI43
aa(lp2504
I-16
aI-15
aI43
aa(lp2505
I-3
aI33
aI43
aa(lp2506
I-6
aI38
aI43
aa(lp2507
I-22
aI-9
aI43
aa(lp2508
I24
aI39
aI43
aa(lp2509
I-10
aI34
aI43
aa(lp2510
I23
aI20
aI43
aa(lp2511
I-6
aI42
aI43
aa(lp2512
I22
aI-14
aI43
aa(lp2513
I28
aI10
aI43
aa(lp2514
I13
aI40
aI43
aa(lp2515
I30
aI15
aI43
aa(lp2516
I-2
aI27
aI43
aa(lp2517
I-12
aI35
aI43
aa(lp2518
I32
aI-5
aI43
aa(lp2519
I30
aI12
aI43
aa(lp2520
I5
aI28
aI43
aa(lp2521
I0
aI-20
aI43
aa(lp2522
I19
aI23
aI43
aa(lp2523
I-19
aI24
aI43
aa(lp2524
I5
aI29
aI43
aa(lp2525
I-8
aI-25
aI43
aa(lp2526
I29
aI17
aI43
aa(lp2527
I29
aI-12
aI43
aa(lp2528
I-21
aI19
aI43
aa(lp2529
I-11
aI-20
aI43
aa(lp2530
I-24
aI11
aI43
aa(lp2531
I21
aI-4
aI43
aa(lp2532
I-19
aI-11
aI43
aa(lp2533
I-24
aI-3
aI43
aa(lp2534
I18
aI-16
aI43
aa(lp2535
I22
aI-7
aI43
aa(lp2536
I-27
aI-10
aI43
aa(lp2537
I-15
aI-14
aI43
aa(lp2538
I-25
aI9
aI43
aa(lp2539
I21
aI27
aI43
aa(lp2540
I10
aI41
aI43
aa(lp2541
I23
aI-16
aI43
aa(lp2542
I-28
aI9
aI43
aa(lp2543
I-22
aI19
aI43
aa(lp2544
I-13
aI-18
aI43
aa(lp2545
I27
aI-13
aI43
aa(lp2546
I31
aI4
aI43
aa(lp2547
I-23
aI-10
aI43
aa(lp2548
I-11
aI27
aI43
aa(lp2549
I-23
aI2
aI43
aa(lp2550
I-26
aI-5
aI43
aa(lp2551
I-19
aI20
aI43
aa(lp2552
I-22
aI15
aI43
aa(lp2553
I-22
aI-11
aI43
aa(lp2554
I25
aI-8
aI43
aa(lp2555
I28
aI9
aI43
aa(lp2556
I-1
aI36
aI43
aa(lp2557
I21
aI-5
aI43
aa(lp2558
I-13
aI26
aI43
aa(lp2559
I-6
aI-25
aI43
aa(lp2560
I29
aI15
aI43
aa(lp2561
I-18
aI-18
aI43
aa(lp2562
I23
aI-10
aI43
aa(lp2563
I20
aI41
aI43
aa(lp2564
I15
aI18
aI43
aa(lp2565
I33
aI13
aI43
aa(lp2566
I28
aI1
aI43
aa(lp2567
I4
aI-21
aI43
aa(lp2568
I-21
aI25
aI43
aa(lp2569
I-25
aI10
aI43
aa(lp2570
I20
aI-13
aI43
aa(lp2571
I13
aI42
aI43
aa(lp2572
I-8
aI-21
aI43
aa(lp2573
I14
aI43
aI43
aa(lp2574
I-4
aI32
aI43
aa(lp2575
I23
aI42
aI43
aa(lp2576
I30
aI-18
aI43
aa(lp2577
I-11
aI33
aI43
aa(lp2578
I25
aI0
aI43
aa(lp2579
I19
aI22
aI43
aa(lp2580
I-26
aI17
aI43
aa(lp2581
I-17
aI49
aI43
aa(lp2582
I29
aI-10
aI43
aa(lp2583
I-21
aI22
aI43
aa(lp2584
I-12
aI-21
aI43
aa(lp2585
I23
aI37
aI43
aa(lp2586
I-23
aI-14
aI43
aa(lp2587
I-24
aI-11
aI43
aa(lp2588
I-23
aI-3
aI43
aa(lp2589
I-25
aI5
aI43
aa(lp2590
I27
aI-18
aI43
aa(lp2591
I25
aI40
aI43
aaa(lp2592
(lp2593
I5
aI34
aI44
aa(lp2594
I7
aI-16
aI44
aa(lp2595
I-5
aI28
aI44
aa(lp2596
I-7
aI29
aI44
aa(lp2597
I-5
aI-18
aI44
aa(lp2598
I-19
aI22
aI44
aa(lp2599
I2
aI34
aI44
aa(lp2600
I24
aI1
aI44
aa(lp2601
I-21
aI-3
aI44
aa(lp2602
I16
aI-15
aI44
aa(lp2603
I22
aI30
aI44
aa(lp2604
I-4
aI-19
aI44
aa(lp2605
I-11
aI36
aI44
aa(lp2606
I1
aI35
aI44
aa(lp2607
I-24
aI5
aI44
aa(lp2608
I-10
aI28
aI44
aa(lp2609
I-8
aI36
aI44
aa(lp2610
I20
aI-5
aI44
aa(lp2611
I1
aI37
aI44
aa(lp2612
I-11
aI-19
aI44
aa(lp2613
I-18
aI-14
aI44
aa(lp2614
I19
aI17
aI44
aa(lp2615
I19
aI-14
aI44
aa(lp2616
I-18
aI25
aI44
aa(lp2617
I-10
aI42
aI44
aa(lp2618
I-20
aI16
aI44
aa(lp2619
I-20
aI25
aI44
aa(lp2620
I4
aI38
aI44
aa(lp2621
I-24
aI7
aI44
aa(lp2622
I-27
aI-8
aI44
aa(lp2623
I23
aI32
aI44
aa(lp2624
I6
aI-20
aI44
aa(lp2625
I-1
aI29
aI44
aa(lp2626
I5
aI-22
aI44
aa(lp2627
I-26
aI-4
aI44
aa(lp2628
I12
aI43
aI44
aa(lp2629
I27
aI-16
aI44
aa(lp2630
I29
aI6
aI44
aa(lp2631
I-28
aI-26
aI44
aa(lp2632
I-24
aI-2
aI44
aa(lp2633
I-6
aI34
aI44
aa(lp2634
I-1
aI34
aI44
aa(lp2635
I-7
aI-22
aI44
aa(lp2636
I-9
aI27
aI44
aa(lp2637
I18
aI42
aI44
aa(lp2638
I-24
aI-8
aI44
aa(lp2639
I17
aI21
aI44
aa(lp2640
I15
aI19
aI44
aa(lp2641
I12
aI-17
aI44
aa(lp2642
I-10
aI32
aI44
aa(lp2643
I-7
aI42
aI44
aa(lp2644
I-7
aI-19
aI44
aa(lp2645
I26
aI14
aI44
aa(lp2646
I-25
aI23
aI44
aa(lp2647
I22
aI41
aI44
aa(lp2648
I-12
aI37
aI44
aa(lp2649
I-7
aI-26
aI44
aa(lp2650
I28
aI-13
aI44
aa(lp2651
I-22
aI20
aI44
aa(lp2652
I24
aI37
aI44
aa(lp2653
I7
aI-19
aI44
aa(lp2654
I-27
aI13
aI44
aa(lp2655
I34
aI15
aI44
aa(lp2656
I17
aI-16
aI44
aa(lp2657
I-18
aI26
aI44
aa(lp2658
I-9
aI-22
aI44
aa(lp2659
I2
aI-21
aI44
aa(lp2660
I-1
aI30
aI44
aa(lp2661
I-22
aI18
aI44
aa(lp2662
I-3
aI-22
aI44
aa(lp2663
I26
aI-14
aI44
aa(lp2664
I18
aI21
aI44
aa(lp2665
I33
aI18
aI44
aa(lp2666
I29
aI10
aI44
aa(lp2667
I7
aI40
aI44
aa(lp2668
I-14
aI43
aI44
aa(lp2669
I26
aI17
aI44
aa(lp2670
I-18
aI-19
aI44
aa(lp2671
I18
aI43
aI44
aa(lp2672
I-11
aI-18
aI44
aa(lp2673
I-21
aI-4
aI44
aa(lp2674
I22
aI21
aI44
aa(lp2675
I12
aI-23
aI44
aa(lp2676
I2
aI-22
aI44
aa(lp2677
I12
aI41
aI44
aa(lp2678
I-31
aI4
aI44
aa(lp2679
I-3
aI31
aI44
aa(lp2680
I25
aI35
aI44
aa(lp2681
I16
aI45
aI44
aa(lp2682
I-9
aI32
aI44
aa(lp2683
I25
aI-2
aI44
aa(lp2684
I31
aI-6
aI44
aa(lp2685
I-10
aI29
aI44
aa(lp2686
I-25
aI16
aI44
aa(lp2687
I-24
aI1
aI44
aa(lp2688
I-3
aI38
aI44
aa(lp2689
I-26
aI-11
aI44
aa(lp2690
I-11
aI-23
aI44
aa(lp2691
I-25
aI7
aI44
aa(lp2692
I31
aI5
aI44
aa(lp2693
I25
aI32
aI44
aa(lp2694
I27
aI14
aI44
aa(lp2695
I0
aI-19
aI44
aa(lp2696
I32
aI18
aI44
aa(lp2697
I26
aI-7
aI44
aa(lp2698
I24
aI-11
aI44
aa(lp2699
I10
aI-21
aI44
aa(lp2700
I26
aI41
aI44
aa(lp2701
I31
aI-3
aI44
aa(lp2702
I22
aI22
aI44
aa(lp2703
I1
aI-23
aI44
aa(lp2704
I27
aI-15
aI44
aa(lp2705
I-10
aI26
aI44
aa(lp2706
I30
aI1
aI44
aa(lp2707
I15
aI40
aI44
aa(lp2708
I-16
aI-16
aI44
aa(lp2709
I23
aI21
aI44
aa(lp2710
I-6
aI41
aI44
aa(lp2711
I23
aI-14
aI44
aa(lp2712
I-13
aI35
aI44
aa(lp2713
I30
aI11
aI44
aa(lp2714
I30
aI19
aI44
aa(lp2715
I30
aI-12
aI44
aa(lp2716
I19
aI-16
aI44
aa(lp2717
I21
aI25
aI44
aa(lp2718
I10
aI40
aI44
aa(lp2719
I24
aI-16
aI44
aa(lp2720
I-22
aI-10
aI44
aa(lp2721
I-11
aI29
aI44
aa(lp2722
I-1
aI35
aI44
aa(lp2723
I-14
aI26
aI44
aa(lp2724
I21
aI41
aI44
aa(lp2725
I34
aI13
aI44
aa(lp2726
I29
aI1
aI44
aa(lp2727
I11
aI44
aI44
aa(lp2728
I-7
aI-21
aI44
aa(lp2729
I13
aI43
aI44
aa(lp2730
I23
aI41
aI44
aa(lp2731
I26
aI0
aI44
aa(lp2732
I-18
aI49
aI44
aa(lp2733
I-22
aI22
aI44
aa(lp2734
I-12
aI-22
aI44
aa(lp2735
I-23
aI-13
aI44
aa(lp2736
I-24
aI-12
aI44
aa(lp2737
I-22
aI-3
aI44
aa(lp2738
I27
aI-19
aI44
aa(lp2739
I25
aI39
aI44
aaa(lp2740
(lp2741
I-21
aI15
aI45
aa(lp2742
I-25
aI13
aI45
aa(lp2743
I4
aI37
aI45
aa(lp2744
I31
aI1
aI45
aa(lp2745
I29
aI-6
aI45
aa(lp2746
I2
aI-23
aI45
aa(lp2747
I16
aI-17
aI45
aa(lp2748
I-3
aI27
aI45
aa(lp2749
I13
aI19
aI45
aa(lp2750
I23
aI26
aI45
aa(lp2751
I1
aI30
aI45
aa(lp2752
I20
aI24
aI45
aa(lp2753
I-4
aI27
aI45
aa(lp2754
I20
aI-14
aI45
aa(lp2755
I22
aI-12
aI45
aa(lp2756
I16
aI-12
aI45
aa(lp2757
I6
aI40
aI45
aa(lp2758
I-24
aI18
aI45
aa(lp2759
I-14
aI-15
aI45
aa(lp2760
I24
aI16
aI45
aa(lp2761
I29
aI-14
aI45
aa(lp2762
I-9
aI28
aI45
aa(lp2763
I2
aI38
aI45
aa(lp2764
I-11
aI39
aI45
aa(lp2765
I32
aI14
aI45
aa(lp2766
I15
aI-21
aI45
aa(lp2767
I-9
aI42
aI45
aa(lp2768
I-10
aI41
aI45
aa(lp2769
I5
aI40
aI45
aa(lp2770
I-8
aI30
aI45
aa(lp2771
I-22
aI-4
aI45
aa(lp2772
I24
aI18
aI45
aa(lp2773
I15
aI-17
aI45
aa(lp2774
I-6
aI26
aI45
aa(lp2775
I-23
aI7
aI45
aa(lp2776
I26
aI-8
aI45
aa(lp2777
I0
aI33
aI45
aa(lp2778
I-8
aI-22
aI45
aa(lp2779
I-8
aI28
aI45
aa(lp2780
I-20
aI18
aI45
aa(lp2781
I26
aI-2
aI45
aa(lp2782
I19
aI-7
aI45
aa(lp2783
I31
aI14
aI45
aa(lp2784
I-9
aI35
aI45
aa(lp2785
I29
aI13
aI45
aa(lp2786
I3
aI30
aI45
aa(lp2787
I21
aI42
aI45
aa(lp2788
I-21
aI9
aI45
aa(lp2789
I19
aI19
aI45
aa(lp2790
I-4
aI38
aI45
aa(lp2791
I-15
aI27
aI45
aa(lp2792
I26
aI20
aI45
aa(lp2793
I-25
aI12
aI45
aa(lp2794
I34
aI17
aI45
aa(lp2795
I-25
aI-4
aI45
aa(lp2796
I6
aI27
aI45
aa(lp2797
I-28
aI-1
aI45
aa(lp2798
I-5
aI38
aI45
aa(lp2799
I24
aI44
aI45
aa(lp2800
I-19
aI18
aI45
aa(lp2801
I24
aI-7
aI45
aa(lp2802
I9
aI41
aI45
aa(lp2803
I-14
aI25
aI45
aa(lp2804
I2
aI30
aI45
aa(lp2805
I-15
aI41
aI45
aa(lp2806
I1
aI32
aI45
aa(lp2807
I-6
aI37
aI45
aa(lp2808
I-5
aI-24
aI45
aa(lp2809
I28
aI16
aI45
aa(lp2810
I-18
aI-17
aI45
aa(lp2811
I12
aI-22
aI45
aa(lp2812
I-22
aI23
aI45
aa(lp2813
I24
aI-4
aI45
aa(lp2814
I-25
aI-2
aI45
aa(lp2815
I16
aI43
aI45
aa(lp2816
I-8
aI33
aI45
aa(lp2817
I17
aI22
aI45
aa(lp2818
I-25
aI18
aI45
aa(lp2819
I-2
aI38
aI45
aa(lp2820
I-21
aI-15
aI45
aa(lp2821
I-26
aI6
aI45
aa(lp2822
I-6
aI33
aI45
aa(lp2823
I-5
aI-21
aI45
aa(lp2824
I30
aI6
aI45
aa(lp2825
I33
aI-7
aI45
aa(lp2826
I27
aI-9
aI45
aa(lp2827
I11
aI-20
aI45
aa(lp2828
I22
aI39
aI45
aa(lp2829
I-4
aI28
aI45
aa(lp2830
I25
aI-10
aI45
aa(lp2831
I28
aI8
aI45
aa(lp2832
I-2
aI36
aI45
aa(lp2833
I-8
aI43
aI45
aa(lp2834
I12
aI-20
aI45
aa(lp2835
I32
aI-2
aI45
aa(lp2836
I-13
aI45
aI45
aa(lp2837
I22
aI37
aI45
aa(lp2838
I-6
aI32
aI45
aa(lp2839
I-29
aI-9
aI45
aa(lp2840
I-2
aI32
aI45
aa(lp2841
I14
aI41
aI45
aa(lp2842
I-15
aI-15
aI45
aa(lp2843
I23
aI19
aI45
aa(lp2844
I23
aI-12
aI45
aa(lp2845
I13
aI41
aI45
aa(lp2846
I30
aI13
aI45
aa(lp2847
I-12
aI34
aI45
aa(lp2848
I29
aI-4
aI45
aa(lp2849
I30
aI10
aI45
aa(lp2850
I20
aI22
aI45
aa(lp2851
I-9
aI-25
aI45
aa(lp2852
I-25
aI11
aI45
aa(lp2853
I18
aI-17
aI45
aa(lp2854
I21
aI-7
aI45
aa(lp2855
I-26
aI-15
aI45
aa(lp2856
I11
aI43
aI45
aa(lp2857
I-28
aI8
aI45
aa(lp2858
I-12
aI-18
aI45
aa(lp2859
I28
aI-12
aI45
aa(lp2860
I-23
aI-11
aI45
aa(lp2861
I0
aI36
aI45
aa(lp2862
I31
aI13
aI45
aa(lp2863
I-21
aI26
aI45
aa(lp2864
I23
aI43
aI45
aa(lp2865
I-11
aI34
aI45
aa(lp2866
I29
aI-9
aI45
aa(lp2867
I-22
aI-13
aI45
aa(lp2868
I-7
aI30
aI45
aa(lp2869
I-6
aI29
aI45
aa(lp2870
I22
aI-5
aI45
aa(lp2871
I17
aI-15
aI45
aa(lp2872
I-12
aI36
aI45
aa(lp2873
I0
aI37
aI45
aa(lp2874
I21
aI-14
aI45
aa(lp2875
I-19
aI25
aI45
aa(lp2876
I3
aI38
aI45
aa(lp2877
I7
aI-20
aI45
aa(lp2878
I-2
aI29
aI45
aa(lp2879
I-27
aI-4
aI45
aa(lp2880
I33
aI-18
aI45
aa(lp2881
I-29
aI-26
aI45
aa(lp2882
I-25
aI24
aI45
aa(lp2883
I27
aI-12
aI45
aa(lp2884
I-23
aI20
aI45
aa(lp2885
I23
aI38
aI45
aa(lp2886
I-26
aI13
aI45
aa(lp2887
I-9
aI-21
aI45
aa(lp2888
I3
aI-21
aI45
aa(lp2889
I-1
aI31
aI45
aa(lp2890
I-2
aI-22
aI45
aa(lp2891
I25
aI-14
aI45
aa(lp2892
I-15
aI43
aI45
aa(lp2893
I27
aI15
aI45
aa(lp2894
I-30
aI4
aI45
aa(lp2895
I-4
aI31
aI45
aa(lp2896
I-9
aI31
aI45
aa(lp2897
I-9
aI29
aI45
aa(lp2898
I-26
aI16
aI45
aa(lp2899
I-25
aI8
aI45
aa(lp2900
I31
aI6
aI45
aa(lp2901
I24
aI31
aI45
aa(lp2902
I31
aI18
aI45
aa(lp2903
I27
aI-7
aI45
aa(lp2904
I9
aI-21
aI45
aa(lp2905
I32
aI-3
aI45
aa(lp2906
I23
aI24
aI45
aa(lp2907
I23
aI-13
aI45
aa(lp2908
I-14
aI35
aI45
aa(lp2909
I31
aI11
aI45
aa(lp2910
I30
aI20
aI45
aa(lp2911
I34
aI12
aI45
aa(lp2912
I11
aI46
aI45
aa(lp2913
I-23
aI-12
aI45
aa(lp2914
I26
aI39
aI45
aaa(lp2915
(lp2916
I-2
aI28
aI46
aa(lp2917
I13
aI-20
aI46
aa(lp2918
I-1
aI28
aI46
aa(lp2919
I-6
aI35
aI46
aa(lp2920
I23
aI-3
aI46
aa(lp2921
I18
aI20
aI46
aa(lp2922
I-26
aI-7
aI46
aa(lp2923
I3
aI41
aI46
aa(lp2924
I31
aI-17
aI46
aa(lp2925
I23
aI22
aI46
aa(lp2926
I-25
aI4
aI46
aa(lp2927
I-17
aI19
aI46
aa(lp2928
I-8
aI-24
aI46
aa(lp2929
I-27
aI-6
aI46
aa(lp2930
I-15
aI38
aI46
aa(lp2931
I33
aI15
aI46
aa(lp2932
I28
aI2
aI46
aa(lp2933
I22
aI18
aI46
aa(lp2934
I-25
aI-5
aI46
aa(lp2935
I8
aI42
aI46
aa(lp2936
I4
aI39
aI46
aa(lp2937
I1
aI-21
aI46
aa(lp2938
I25
aI-5
aI46
aa(lp2939
I-27
aI-3
aI46
aa(lp2940
I-3
aI-19
aI46
aa(lp2941
I-21
aI-9
aI46
aa(lp2942
I-6
aI-23
aI46
aa(lp2943
I-1
aI-22
aI46
aa(lp2944
I-7
aI27
aI46
aa(lp2945
I-6
aI40
aI46
aa(lp2946
I29
aI-21
aI46
aa(lp2947
I28
aI-16
aI46
aa(lp2948
I-25
aI3
aI46
aa(lp2949
I29
aI18
aI46
aa(lp2950
I32
aI-15
aI46
aa(lp2951
I-16
aI26
aI46
aa(lp2952
I21
aI26
aI46
aa(lp2953
I-26
aI-1
aI46
aa(lp2954
I-24
aI8
aI46
aa(lp2955
I-3
aI-20
aI46
aa(lp2956
I31
aI2
aI46
aa(lp2957
I-25
aI-7
aI46
aa(lp2958
I-2
aI31
aI46
aa(lp2959
I30
aI9
aI46
aa(lp2960
I-2
aI34
aI46
aa(lp2961
I22
aI-6
aI46
aa(lp2962
I-6
aI36
aI46
aa(lp2963
I20
aI42
aI46
aa(lp2964
I27
aI0
aI46
aa(lp2965
I-25
aI-14
aI46
aa(lp2966
I28
aI-20
aI46
aa(lp2967
I13
aI-21
aI46
aa(lp2968
I-22
aI24
aI46
aa(lp2969
I6
aI-22
aI46
aa(lp2970
I29
aI14
aI46
aa(lp2971
I28
aI-11
aI46
aa(lp2972
I-22
aI21
aI46
aa(lp2973
I8
aI-19
aI46
aa(lp2974
I-29
aI-3
aI46
aa(lp2975
I25
aI-17
aI46
aa(lp2976
I-8
aI32
aI46
aa(lp2977
I-4
aI-22
aI46
aa(lp2978
I26
aI33
aI46
aa(lp2979
I26
aI16
aI46
aa(lp2980
I21
aI-13
aI46
aa(lp2981
I29
aI-7
aI46
aa(lp2982
I19
aI21
aI46
aa(lp2983
I13
aI-19
aI46
aa(lp2984
I23
aI39
aI46
aa(lp2985
I22
aI23
aI46
aa(lp2986
I15
aI-20
aI46
aa(lp2987
I0
aI-22
aI46
aa(lp2988
I-23
aI52
aI46
aa(lp2989
I-17
aI-15
aI46
aa(lp2990
I-3
aI32
aI46
aa(lp2991
I-9
aI34
aI46
aa(lp2992
I-5
aI42
aI46
aa(lp2993
I29
aI20
aI46
aa(lp2994
I-26
aI-10
aI46
aa(lp2995
I23
aI-15
aI46
aa(lp2996
I-29
aI10
aI46
aa(lp2997
I-23
aI19
aI46
aa(lp2998
I-14
aI-19
aI46
aa(lp2999
I26
aI-13
aI46
aa(lp3000
I31
aI3
aI46
aa(lp3001
I-12
aI27
aI46
aa(lp3002
I-30
aI-8
aI46
aa(lp3003
I-1
aI37
aI46
aa(lp3004
I-22
aI25
aI46
aa(lp3005
I-12
aI33
aI46
aa(lp3006
I-27
aI19
aI46
aa(lp3007
I-16
aI49
aI46
aa(lp3008
I28
aI-10
aI46
aa(lp3009
I-11
aI-21
aI46
aa(lp3010
I-24
aI-14
aI46
aa(lp3011
I-5
aI29
aI46
aa(lp3012
I-6
aI-18
aI46
aa(lp3013
I22
aI29
aI46
aa(lp3014
I1
aI36
aI46
aa(lp3015
I-20
aI26
aI46
aa(lp3016
I-27
aI-5
aI46
aa(lp3017
I12
aI45
aI46
aa(lp3018
I-28
aI-25
aI46
aa(lp3019
I14
aI19
aI46
aa(lp3020
I3
aI42
aI46
aa(lp3021
I-8
aI-20
aI46
aa(lp3022
I-13
aI37
aI46
aa(lp3023
I-28
aI13
aI46
aa(lp3024
I-2
aI30
aI46
aa(lp3025
I-21
aI18
aI46
aa(lp3026
I-16
aI-21
aI46
aa(lp3027
I12
aI-24
aI46
aa(lp3028
I-31
aI5
aI46
aa(lp3029
I17
aI46
aI46
aa(lp3030
I-12
aI-24
aI46
aa(lp3031
I25
aI31
aI46
aa(lp3032
I30
aI18
aI46
aa(lp3033
I26
aI42
aI46
aa(lp3034
I31
aI-4
aI46
aa(lp3035
I30
aI0
aI46
aa(lp3036
I-17
aI-16
aI46
aa(lp3037
I-5
aI41
aI46
aa(lp3038
I21
aI24
aI46
aa(lp3039
I24
aI-17
aI46
aa(lp3040
I-11
aI28
aI46
aa(lp3041
I0
aI35
aI46
aa(lp3042
I-14
aI27
aI46
aa(lp3043
I28
aI0
aI46
aa(lp3044
I-7
aI-20
aI46
aa(lp3045
I13
aI44
aI46
aa(lp3046
I-18
aI50
aI46
aa(lp3047
I2
aI-24
aI46
aa(lp3048
I16
aI-18
aI46
aa(lp3049
I20
aI25
aI46
aa(lp3050
I16
aI-13
aI46
aa(lp3051
I-24
aI19
aI46
aa(lp3052
I24
aI17
aI46
aa(lp3053
I4
aI40
aI46
aa(lp3054
I29
aI-5
aI46
aa(lp3055
I26
aI-3
aI46
aa(lp3056
I27
aI19
aI46
aa(lp3057
I-28
aI-2
aI46
aa(lp3058
I-4
aI-24
aI46
aa(lp3059
I28
aI15
aI46
aa(lp3060
I15
aI-25
aI46
aa(lp3061
I25
aI-4
aI46
aa(lp3062
I-25
aI-1
aI46
aa(lp3063
I-21
aI17
aI46
aa(lp3064
I-1
aI38
aI46
aa(lp3065
I-5
aI-22
aI46
aa(lp3066
I30
aI7
aI46
aa(lp3067
I32
aI-7
aI46
aa(lp3068
I29
aI8
aI46
aa(lp3069
I-10
aI43
aI46
aa(lp3070
I-14
aI45
aI46
aa(lp3071
I22
aI38
aI46
aa(lp3072
I-5
aI34
aI46
aa(lp3073
I29
aI-3
aI46
aa(lp3074
I-26
aI11
aI46
aa(lp3075
I19
aI-17
aI46
aa(lp3076
I-26
aI-14
aI46
aa(lp3077
I-28
aI7
aI46
aa(lp3078
I-22
aI26
aI46
aa(lp3079
I22
aI43
aI46
aa(lp3080
I-10
aI31
aI46
aa(lp3081
I24
aI-5
aI46
aa(lp3082
I-13
aI36
aI46
aa(lp3083
I0
aI38
aI46
aa(lp3084
I-18
aI27
aI46
aa(lp3085
I-28
aI-5
aI46
aa(lp3086
I33
aI-17
aI46
aa(lp3087
I-27
aI-26
aI46
aa(lp3088
I-23
aI21
aI46
aa(lp3089
I-1
aI-23
aI46
aa(lp3090
I24
aI-14
aI46
aa(lp3091
I-15
aI45
aI46
aa(lp3092
I24
aI30
aI46
aa(lp3093
I8
aI-21
aI46
aa(lp3094
I22
aI24
aI46
aa(lp3095
I22
aI-13
aI46
aa(lp3096
I31
aI10
aI46
aa(lp3097
I12
aI46
aI46
aaa(lp3098
(lp3099
I25
aI-9
aI47
aa(lp3100
I-25
aI-6
aI47
aa(lp3101
I-9
aI41
aI47
aa(lp3102
I30
aI-14
aI47
aa(lp3103
I6
aI-18
aI47
aa(lp3104
I7
aI41
aI47
aa(lp3105
I-29
aI18
aI47
aa(lp3106
I-20
aI15
aI47
aa(lp3107
I7
aI44
aI47
aa(lp3108
I16
aI-19
aI47
aa(lp3109
I-15
aI28
aI47
aa(lp3110
I-5
aI-26
aI47
aa(lp3111
I-4
aI39
aI47
aa(lp3112
I-22
aI-12
aI47
aa(lp3113
I29
aI11
aI47
aa(lp3114
I31
aI-16
aI47
aa(lp3115
I-25
aI14
aI47
aa(lp3116
I-15
aI25
aI47
aa(lp3117
I-5
aI37
aI47
aa(lp3118
I-12
aI25
aI47
aa(lp3119
I26
aI36
aI47
aa(lp3120
I32
aI-18
aI47
aa(lp3121
I-29
aI-4
aI47
aa(lp3122
I24
aI43
aI47
aa(lp3123
I30
aI-20
aI47
aa(lp3124
I12
aI40
aI47
aa(lp3125
I-12
aI38
aI47
aa(lp3126
I-17
aI-19
aI47
aa(lp3127
I35
aI14
aI47
aa(lp3128
I-20
aI-15
aI47
aa(lp3129
I13
aI-23
aI47
aa(lp3130
I15
aI44
aI47
aa(lp3131
I28
aI13
aI47
aa(lp3132
I-20
aI-16
aI47
aa(lp3133
I-10
aI-22
aI47
aa(lp3134
I30
aI17
aI47
aa(lp3135
I26
aI-10
aI47
aa(lp3136
I24
aI-12
aI47
aa(lp3137
I12
aI-19
aI47
aa(lp3138
I-23
aI24
aI47
aa(lp3139
I31
aI-1
aI47
aa(lp3140
I-20
aI17
aI47
aa(lp3141
I25
aI-15
aI47
aa(lp3142
I32
aI-6
aI47
aa(lp3143
I0
aI-21
aI47
aa(lp3144
I-12
aI-20
aI47
aa(lp3145
I20
aI-16
aI47
aa(lp3146
I21
aI28
aI47
aa(lp3147
I-28
aI10
aI47
aa(lp3148
I-13
aI-19
aI47
aa(lp3149
I25
aI-7
aI47
aa(lp3150
I-19
aI-18
aI47
aa(lp3151
I14
aI42
aI47
aa(lp3152
I-26
aI18
aI47
aa(lp3153
I29
aI-8
aI47
aa(lp3154
I-13
aI-21
aI47
aa(lp3155
I26
aI-18
aI47
aa(lp3156
I-3
aI28
aI47
aa(lp3157
I-6
aI30
aI47
aa(lp3158
I23
aI30
aI47
aa(lp3159
I1
aI38
aI47
aa(lp3160
I20
aI-15
aI47
aa(lp3161
I-28
aI-3
aI47
aa(lp3162
I12
aI44
aI47
aa(lp3163
I-26
aI22
aI47
aa(lp3164
I-7
aI-27
aI47
aa(lp3165
I25
aI36
aI47
aa(lp3166
I17
aI-17
aI47
aa(lp3167
I-19
aI26
aI47
aa(lp3168
I33
aI19
aI47
aa(lp3169
I27
aI17
aI47
aa(lp3170
I-21
aI-19
aI47
aa(lp3171
I18
aI44
aI47
aa(lp3172
I11
aI-23
aI47
aa(lp3173
I-31
aI3
aI47
aa(lp3174
I-3
aI30
aI47
aa(lp3175
I16
aI46
aI47
aa(lp3176
I31
aI-8
aI47
aa(lp3177
I-26
aI-12
aI47
aa(lp3178
I31
aI7
aI47
aa(lp3179
I26
aI32
aI47
aa(lp3180
I26
aI43
aI47
aa(lp3181
I24
aI-13
aI47
aa(lp3182
I24
aI-15
aI47
aa(lp3183
I-11
aI30
aI47
aa(lp3184
I29
aI0
aI47
aa(lp3185
I-23
aI22
aI47
aa(lp3186
I-13
aI-22
aI47
aa(lp3187
I32
aI1
aI47
aa(lp3188
I24
aI26
aI47
aa(lp3189
I-26
aI19
aI47
aa(lp3190
I-15
aI-16
aI47
aa(lp3191
I2
aI39
aI47
aa(lp3192
I14
aI-21
aI47
aa(lp3193
I5
aI41
aI47
aa(lp3194
I23
aI18
aI47
aa(lp3195
I0
aI34
aI47
aa(lp3196
I-8
aI29
aI47
aa(lp3197
I25
aI19
aI47
aa(lp3198
I25
aI44
aI47
aa(lp3199
I-16
aI42
aI47
aa(lp3200
I-17
aI-17
aI47
aa(lp3201
I-23
aI23
aI47
aa(lp3202
I-21
aI-16
aI47
aa(lp3203
I-26
aI7
aI47
aa(lp3204
I34
aI-7
aI47
aa(lp3205
I33
aI-2
aI47
aa(lp3206
I-13
aI44
aI47
aa(lp3207
I-6
aI31
aI47
aa(lp3208
I-29
aI-10
aI47
aa(lp3209
I30
aI-4
aI47
aa(lp3210
I-9
aI-26
aI47
aa(lp3211
I18
aI-18
aI47
aa(lp3212
I20
aI-7
aI47
aa(lp3213
I-25
aI-13
aI47
aa(lp3214
I-29
aI9
aI47
aa(lp3215
I21
aI-15
aI47
aa(lp3216
I33
aI-19
aI47
aa(lp3217
I-29
aI-27
aI47
aa(lp3218
I-27
aI23
aI47
aa(lp3219
I-30
aI5
aI47
aa(lp3220
I9
aI-23
aI47
aa(lp3221
I33
aI-3
aI47
aa(lp3222
I25
aI23
aI47
aa(lp3223
I-14
aI34
aI47
aa(lp3224
I29
aI21
aI47
aa(lp3225
I33
aI12
aI47
aa(lp3226
I-27
aI-7
aI47
aa(lp3227
I4
aI41
aI47
aa(lp3228
I23
aI23
aI47
aa(lp3229
I-9
aI-24
aI47
aa(lp3230
I-26
aI-6
aI47
aa(lp3231
I25
aI18
aI47
aa(lp3232
I7
aI42
aI47
aa(lp3233
I26
aI-5
aI47
aa(lp3234
I-6
aI27
aI47
aa(lp3235
I27
aI-20
aI47
aa(lp3236
I31
aI-15
aI47
aa(lp3237
I24
aI-6
aI47
aa(lp3238
I27
aI-1
aI47
aa(lp3239
I-25
aI-12
aI47
aa(lp3240
I13
aI-22
aI47
aa(lp3241
I6
aI-21
aI47
aa(lp3242
I-30
aI-6
aI47
aa(lp3243
I19
aI20
aI47
aa(lp3244
I-24
aI52
aI47
aa(lp3245
I-4
aI42
aI47
aa(lp3246
I-27
aI-9
aI47
aa(lp3247
I-29
aI11
aI47
aa(lp3248
I32
aI3
aI47
aa(lp3249
I-31
aI-8
aI47
aa(lp3250
I-22
aI27
aI47
aa(lp3251
I-17
aI34
aI47
aa(lp3252
I-27
aI20
aI47
aa(lp3253
I-16
aI48
aI47
aa(lp3254
I27
aI-10
aI47
aa(lp3255
I13
aI45
aI47
aa(lp3256
I-30
aI-24
aI47
aa(lp3257
I2
aI41
aI47
aa(lp3258
I-28
aI11
aI47
aa(lp3259
I12
aI-25
aI47
aa(lp3260
I18
aI45
aI47
aa(lp3261
I-12
aI-23
aI47
aa(lp3262
I25
aI42
aI47
aa(lp3263
I23
aI-17
aI47
aa(lp3264
I-12
aI28
aI47
aa(lp3265
I2
aI-25
aI47
aa(lp3266
I27
aI-5
aI47
aa(lp3267
I26
aI-4
aI47
aa(lp3268
I-29
aI-2
aI47
aa(lp3269
I-3
aI-24
aI47
aa(lp3270
I-5
aI-20
aI47
aa(lp3271
I30
aI8
aI47
aa(lp3272
I-14
aI48
aI47
aa(lp3273
I-26
aI10
aI47
aa(lp3274
I19
aI-18
aI47
aa(lp3275
I-27
aI-14
aI47
aa(lp3276
I-17
aI27
aI47
aa(lp3277
I-28
aI-4
aI47
aa(lp3278
I-1
aI-24
aI47
aa(lp3279
I25
aI30
aI47
aa(lp3280
I32
aI10
aI47
aa(lp3281
I11
aI45
aI47
aaa(lp3282
(lp3283
I6
aI41
aI48
aa(lp3284
I25
aI16
aI48
aa(lp3285
I-12
aI26
aI48
aa(lp3286
I23
aI17
aI48
aa(lp3287
I25
aI29
aI48
aa(lp3288
I25
aI-3
aI48
aa(lp3289
I-5
aI27
aI48
aa(lp3290
I9
aI42
aI48
aa(lp3291
I28
aI36
aI48
aa(lp3292
I27
aI-2
aI48
aa(lp3293
I27
aI13
aI48
aa(lp3294
I27
aI-11
aI48
aa(lp3295
I35
aI16
aI48
aa(lp3296
I27
aI12
aI48
aa(lp3297
I-18
aI24
aI48
aa(lp3298
I19
aI43
aI48
aa(lp3299
I-9
aI30
aI48
aa(lp3300
I3
aI-23
aI48
aa(lp3301
I17
aI44
aI48
aa(lp3302
I-4
aI30
aI48
aa(lp3303
I-8
aI-26
aI48
aa(lp3304
I-12
aI-19
aI48
aa(lp3305
I22
aI-16
aI48
aa(lp3306
I-15
aI26
aI48
aa(lp3307
I-4
aI-26
aI48
aa(lp3308
I-5
aI33
aI48
aa(lp3309
I-11
aI32
aI48
aa(lp3310
I30
aI-10
aI48
aa(lp3311
I-5
aI30
aI48
aa(lp3312
I-4
aI-20
aI48
aa(lp3313
I-10
aI27
aI48
aa(lp3314
I3
aI39
aI48
aa(lp3315
I5
aI-24
aI48
aa(lp3316
I-28
aI-27
aI48
aa(lp3317
I-6
aI-26
aI48
aa(lp3318
I26
aI37
aI48
aa(lp3319
I-13
aI42
aI48
aa(lp3320
I-19
aI-19
aI48
aa(lp3321
I-32
aI4
aI48
aa(lp3322
I26
aI35
aI48
aa(lp3323
I16
aI44
aI48
aa(lp3324
I-25
aI15
aI48
aa(lp3325
I33
aI17
aI48
aa(lp3326
I30
aI-3
aI48
aa(lp3327
I29
aI19
aI48
aa(lp3328
I-15
aI29
aI48
aa(lp3329
I10
aI44
aI48
aa(lp3330
I-18
aI48
aI48
aa(lp3331
I22
aI26
aI48
aa(lp3332
I36
aI-19
aI48
aa(lp3333
I32
aI13
aI48
aa(lp3334
I27
aI-8
aI48
aa(lp3335
I-16
aI27
aI48
aa(lp3336
I24
aI45
aI48
aa(lp3337
I-16
aI41
aI48
aa(lp3338
I-9
aI43
aI48
aa(lp3339
I32
aI-1
aI48
aa(lp3340
I-6
aI28
aI48
aa(lp3341
I8
aI-20
aI48
aa(lp3342
I25
aI38
aI48
aa(lp3343
I-26
aI12
aI48
aa(lp3344
I-5
aI31
aI48
aa(lp3345
I32
aI7
aI48
aa(lp3346
I7
aI-22
aI48
aa(lp3347
I32
aI12
aI48
aa(lp3348
I-15
aI37
aI48
aa(lp3349
I8
aI43
aI48
aa(lp3350
I33
aI-15
aI48
aa(lp3351
I31
aI8
aI48
aa(lp3352
I6
aI-23
aI48
aa(lp3353
I25
aI-18
aI48
aa(lp3354
I27
aI33
aI48
aa(lp3355
I16
aI-20
aI48
aa(lp3356
I-22
aI53
aI48
aa(lp3357
I25
aI-13
aI48
aa(lp3358
I-30
aI-9
aI48
aa(lp3359
I28
aI-9
aI48
aa(lp3360
I-24
aI-15
aI48
aa(lp3361
I2
aI42
aI48
aa(lp3362
I-13
aI38
aI48
aa(lp3363
I17
aI47
aI48
aa(lp3364
I28
aI42
aI48
aa(lp3365
I-14
aI28
aI48
aa(lp3366
I-24
aI21
aI48
aa(lp3367
I24
aI19
aI48
aa(lp3368
I-29
aI0
aI48
aa(lp3369
I15
aI-22
aI48
aa(lp3370
I-21
aI16
aI48
aa(lp3371
I-6
aI-22
aI48
aa(lp3372
I28
aI-3
aI48
aa(lp3373
I-27
aI7
aI48
aa(lp3374
I22
aI44
aI48
aa(lp3375
I-10
aI30
aI48
aa(lp3376
I34
aI-18
aI48
aa(lp3377
I-15
aI44
aI48
aa(lp3378
I21
aI23
aI48
aa(lp3379
I-31
aI16
aI48
aa(lp3380
I7
aI45
aI48
aa(lp3381
I17
aI-19
aI48
aa(lp3382
I-4
aI40
aI48
aa(lp3383
I-12
aI39
aI48
aa(lp3384
I36
aI14
aI48
aa(lp3385
I13
aI-24
aI48
aa(lp3386
I-24
aI24
aI48
aa(lp3387
I33
aI-1
aI48
aa(lp3388
I-13
aI-20
aI48
aa(lp3389
I-27
aI10
aI48
aa(lp3390
I25
aI-6
aI48
aa(lp3391
I-19
aI-17
aI48
aa(lp3392
I-26
aI21
aI48
aa(lp3393
I-7
aI-28
aI48
aa(lp3394
I11
aI-22
aI48
aa(lp3395
I32
aI-8
aI48
aa(lp3396
I-27
aI-12
aI48
aa(lp3397
I26
aI31
aI48
aa(lp3398
I25
aI-12
aI48
aa(lp3399
I-12
aI30
aI48
aa(lp3400
I-13
aI-23
aI48
aa(lp3401
I32
aI0
aI48
aa(lp3402
I26
aI26
aI48
aa(lp3403
I5
aI42
aI48
aa(lp3404
I25
aI43
aI48
aa(lp3405
I-16
aI43
aI48
aa(lp3406
I34
aI-6
aI48
aa(lp3407
I-9
aI-27
aI48
aa(lp3408
I18
aI-19
aI48
aa(lp3409
I-29
aI8
aI48
aa(lp3410
I33
aI-20
aI48
aa(lp3411
I-26
aI24
aI48
aa(lp3412
I10
aI-23
aI48
aa(lp3413
I32
aI21
aI48
aa(lp3414
I-28
aI-6
aI48
aa(lp3415
I-10
aI-24
aI48
aa(lp3416
I6
aI42
aI48
aa(lp3417
I27
aI-21
aI48
aa(lp3418
I29
aI-1
aI48
aa(lp3419
I14
aI-22
aI48
aa(lp3420
I-26
aI52
aI48
aa(lp3421
I-3
aI42
aI48
aa(lp3422
I-31
aI-9
aI48
aa(lp3423
I-18
aI34
aI48
aa(lp3424
I-16
aI47
aI48
aa(lp3425
I-30
aI-25
aI48
aa(lp3426
I-27
aI11
aI48
aa(lp3427
I24
aI-18
aI48
aa(lp3428
I28
aI-5
aI48
aa(lp3429
I-14
aI47
aI48
aa(lp3430
I-17
aI28
aI48
aa(lp3431
I-1
aI-25
aI48
aa(lp3432
I27
aI29
aI48
aa(lp3433
I33
aI10
aI48
aaa(lp3434
(lp3435
I-26
aI33
aI49
aa(lp3436
I-48
aI7
aI49
aa(lp3437
I16
aI21
aI49
aa(lp3438
I0
aI26
aI49
aa(lp3439
I-19
aI-15
aI49
aa(lp3440
I-11
aI41
aI49
aa(lp3441
I-27
aI-13
aI49
aa(lp3442
I20
aI-6
aI49
aa(lp3443
I-2
aI37
aI49
aa(lp3444
I28
aI18
aI49
aa(lp3445
I30
aI-13
aI49
aa(lp3446
I19
aI-15
aI49
aa(lp3447
I-25
aI0
aI49
aa(lp3448
I31
aI-13
aI49
aa(lp3449
I29
aI7
aI49
aa(lp3450
I22
aI-15
aI49
aa(lp3451
I23
aI-21
aI49
aa(lp3452
I32
aI4
aI49
aa(lp3453
I14
aI44
aI49
aa(lp3454
I-19
aI49
aI49
aa(lp3455
I-23
aI-15
aI49
aa(lp3456
I26
aI40
aI49
aa(lp3457
I-7
aI28
aI49
aa(lp3458
I-18
aI-15
aI49
aa(lp3459
I-24
aI31
aI49
aa(lp3460
I5
aI-23
aI49
aa(lp3461
I-7
aI43
aI49
aa(lp3462
I-24
aI23
aI49
aa(lp3463
I-6
aI-27
aI49
aa(lp3464
I35
aI15
aI49
aa(lp3465
I26
aI34
aI49
aa(lp3466
I-3
aI39
aI49
aa(lp3467
I26
aI-6
aI49
aa(lp3468
I11
aI-21
aI49
aa(lp3469
I-15
aI-17
aI49
aa(lp3470
I-6
aI43
aI49
aa(lp3471
I31
aI19
aI49
aa(lp3472
I22
aI25
aI49
aa(lp3473
I31
aI0
aI49
aa(lp3474
I34
aI18
aI49
aa(lp3475
I-12
aI41
aI49
aa(lp3476
I-20
aI-18
aI49
aa(lp3477
I-26
aI5
aI49
aa(lp3478
I-2
aI39
aI49
aa(lp3479
I-6
aI-21
aI49
aa(lp3480
I-13
aI34
aI49
aa(lp3481
I31
aI12
aI49
aa(lp3482
I23
aI44
aI49
aa(lp3483
I-22
aI-14
aI49
aa(lp3484
I8
aI-22
aI49
aa(lp3485
I35
aI-20
aI49
aa(lp3486
I-29
aI-23
aI49
aa(lp3487
I-2
aI-23
aI49
aa(lp3488
I27
aI16
aI49
aa(lp3489
I-26
aI8
aI49
aa(lp3490
I28
aI-8
aI49
aa(lp3491
I7
aI-21
aI49
aa(lp3492
I-15
aI35
aI49
aa(lp3493
I32
aI20
aI49
aa(lp3494
I11
aI47
aI49
aa(lp3495
I3
aI40
aI49
aa(lp3496
I-5
aI-19
aI49
aa(lp3497
I-5
aI-23
aI49
aa(lp3498
I-7
aI26
aI49
aa(lp3499
I-26
aI3
aI49
aa(lp3500
I-27
aI-1
aI49
aa(lp3501
I31
aI9
aI49
aa(lp3502
I30
aI14
aI49
aa(lp3503
I-24
aI20
aI49
aa(lp3504
I-1
aI-21
aI49
aa(lp3505
I-30
aI10
aI49
aa(lp3506
I-11
aI-22
aI49
aa(lp3507
I-13
aI33
aI49
aa(lp3508
I-15
aI49
aI49
aa(lp3509
I-6
aI-19
aI49
aa(lp3510
I22
aI28
aI49
aa(lp3511
I3
aI43
aI49
aa(lp3512
I-29
aI13
aI49
aa(lp3513
I-17
aI-21
aI49
aa(lp3514
I11
aI-24
aI49
aa(lp3515
I-12
aI-25
aI49
aa(lp3516
I24
aI32
aI49
aa(lp3517
I30
aI42
aI49
aa(lp3518
I30
aI-1
aI49
aa(lp3519
I-18
aI-16
aI49
aa(lp3520
I20
aI23
aI49
aa(lp3521
I28
aI-1
aI49
aa(lp3522
I-17
aI50
aI49
aa(lp3523
I2
aI40
aI49
aa(lp3524
I-10
aI45
aI49
aa(lp3525
I-14
aI44
aI49
aa(lp3526
I30
aI-9
aI49
aa(lp3527
I-25
aI-15
aI49
aa(lp3528
I33
aI-16
aI49
aa(lp3529
I-30
aI19
aI49
aa(lp3530
I6
aI44
aI49
aa(lp3531
I-4
aI-27
aI49
aa(lp3532
I32
aI-17
aI49
aa(lp3533
I-30
aI-4
aI49
aa(lp3534
I-20
aI-17
aI49
aa(lp3535
I25
aI-16
aI49
aa(lp3536
I33
aI-5
aI49
aa(lp3537
I-21
aI-18
aI49
aa(lp3538
I-14
aI-21
aI49
aa(lp3539
I1
aI39
aI49
aa(lp3540
I-19
aI27
aI49
aa(lp3541
I-20
aI-19
aI49
aa(lp3542
I-31
aI2
aI49
aa(lp3543
I-3
aI29
aI49
aa(lp3544
I27
aI32
aI49
aa(lp3545
I-26
aI20
aI49
aa(lp3546
I14
aI-20
aI49
aa(lp3547
I25
aI45
aI49
aa(lp3548
I-16
aI44
aI49
aa(lp3549
I-25
aI22
aI49
aa(lp3550
I-22
aI-16
aI49
aa(lp3551
I35
aI-8
aI49
aa(lp3552
I-13
aI43
aI49
aa(lp3553
I-29
aI-28
aI49
aa(lp3554
I-27
aI24
aI49
aa(lp3555
I-30
aI6
aI49
aa(lp3556
I9
aI-24
aI49
aa(lp3557
I26
aI23
aI49
aa(lp3558
I-14
aI33
aI49
aa(lp3559
I30
aI21
aI49
aa(lp3560
I24
aI23
aI49
aa(lp3561
I-24
aI51
aI49
aa(lp3562
I32
aI2
aI49
aa(lp3563
I-31
aI-12
aI49
aa(lp3564
I-22
aI28
aI49
aa(lp3565
I-17
aI35
aI49
aa(lp3566
I-27
aI22
aI49
aa(lp3567
I12
aI47
aI49
aa(lp3568
I18
aI46
aI49
aa(lp3569
I1
aI-25
aI49
aa(lp3570
I27
aI-6
aI49
aa(lp3571
I-31
aI-2
aI49
aa(lp3572
I-3
aI-23
aI49
aa(lp3573
I-15
aI48
aI49
aa(lp3574
I-2
aI-24
aI49
aa(lp3575
I26
aI29
aI49
aa(lp3576
I29
aI37
aI49
aa(lp3577
I19
aI44
aI49
aa(lp3578
I5
aI-25
aI49
aa(lp3579
I-28
aI-28
aI49
aa(lp3580
I-32
aI5
aI49
aa(lp3581
I33
aI11
aI49
aa(lp3582
I-13
aI29
aI49
aa(lp3583
I35
aI-18
aI49
aa(lp3584
I-17
aI41
aI49
aa(lp3585
I-16
aI37
aI49
aa(lp3586
I8
aI44
aI49
aa(lp3587
I33
aI-14
aI49
aa(lp3588
I7
aI-23
aI49
aa(lp3589
I25
aI-19
aI49
aa(lp3590
I17
aI-20
aI49
aa(lp3591
I-22
aI52
aI49
aa(lp3592
I29
aI42
aI49
aa(lp3593
I-30
aI0
aI49
aa(lp3594
I15
aI-23
aI49
aa(lp3595
I-15
aI46
aI49
aa(lp3596
I6
aI45
aI49
aa(lp3597
I14
aI-24
aI49
aa(lp3598
I-6
aI-28
aI49
aa(lp3599
I33
aI-8
aI49
aa(lp3600
I27
aI31
aI49
aa(lp3601
I26
aI-12
aI49
aa(lp3602
I-13
aI27
aI49
aa(lp3603
I27
aI25
aI49
aa(lp3604
I19
aI-19
aI49
aa(lp3605
I-30
aI8
aI49
aa(lp3606
I31
aI21
aI49
aa(lp3607
I29
aI-22
aI49
aa(lp3608
I-3
aI43
aI49
aa(lp3609
I-31
aI-10
aI49
aa(lp3610
I-18
aI35
aI49
aa(lp3611
I-17
aI47
aI49
aa(lp3612
I-30
aI-26
aI49
aa(lp3613
I-13
aI47
aI49
aa(lp3614
I28
aI29
aI49
aaasS'pop'
p3615
(dp3616
I0
I1
sI1
I2
sI2
I4
sI3
I7
sI4
I12
sI5
I15
sI6
I18
sI7
I28
sI8
I36
sI9
I47
sI10
I62
sI11
I78
sI12
I96
sI13
I116
sI14
I148
sI15
I183
sI16
I215
sI17
I252
sI18
I294
sI19
I334
sI20
I385
sI21
I446
sI22
I495
sI23
I550
sI24
I611
sI25
I664
sI26
I726
sI27
I787
sI28
I864
sI29
I928
sI30
I1004
sI31
I1079
sI32
I1157
sI33
I1253
sI34
I1349
sI35
I1455
sI36
I1569
sI37
I1694
sI38
I1819
sI39
I1960
sI40
I2103
sI41
I2241
sI42
I2381
sI43
I2543
sI44
I2690
sI45
I2864
sI46
I3046
sI47
I3229
sI48
I3380
sI49
I3560
ssS'max_r'
p3617
(dp3618
I0
F9.074825317943759
sI1
F8.835747397887907
sI2
F7.185009719099382
sI3
F8.123325033960713
sI4
F10.035761032179536
sI5
F7.690405853506203
sI6
F10.34400898911652
sI7
F11.003660501798185
sI8
F9.844617793241811
sI9
F11.205470401136385
sI10
F12.080008768811545
sI11
F11.976835532921612
sI12
F12.954097202293719
sI13
F14.158202631061764
sI14
F14.80603750792306
sI15
F15.671081380359324
sI16
F16.09915499738557
sI17
F16.354351534125552
sI18
F16.182237611089352
sI19
F23.281899333466438
sI20
F23.701578304023442
sI21
F24.604893195418157
sI22
F25.042339081763597
sI23
F25.515421301912976
sI24
F26.432417204453593
sI25
F26.840094202487144
sI26
F27.355230474746033
sI27
F28.173473150867533
sI28
F28.664657104363616
sI29
F26.992418505913545
sI30
F29.58544442740253
sI31
F30.14326623800104
sI32
F29.308369870035992
sI33
F30.511218871475833
sI34
F33.09746730781137
sI35
F34.88143133966842
sI36
F36.18497553614198
sI37
F36.30245425433756
sI38
F36.8016652736088
sI39
F36.81828570719122
sI40
F38.224215581204334
sI41
F38.95452094099226
sI42
F39.576432729402235
sI43
F44.8476157039198
sI44
F46.278658713320574
sI45
F46.94673870223482
sI46
F50.337944279901556
sI47
F50.85460310334143
sI48
F51.93028694068813
sI49
F50.66893741333182
ssS'params'
p3619
(F1.8
I50
tp3620
sS'infected'
p3621
(lp3622
g6
ag8
ag10
ag11
ag13
ag14
ag15
ag17
ag18
ag19
ag20
ag21
ag23
ag24
ag25
ag27
ag28
ag29
ag31
ag32
ag33
ag34
ag35
ag36
ag37
ag38
ag39
ag40
ag42
ag43
ag44
ag45
ag46
ag47
ag48
ag49
ag51
ag52
ag53
ag54
ag55
ag56
ag57
ag58
ag59
ag60
ag61
ag63
ag64
ag65
ag66
ag67
ag68
ag69
ag70
ag71
ag72
ag73
ag74
ag75
ag76
ag77
ag79
ag80
ag81
ag82
ag83
ag84
ag85
ag86
ag87
ag88
ag89
ag90
ag91
ag92
ag93
ag94
ag96
ag97
ag98
ag99
ag100
ag101
ag102
ag103
ag104
ag105
ag106
ag107
ag108
ag109
ag110
ag111
ag112
ag113
ag115
ag116
ag117
ag118
ag119
ag120
ag121
ag122
ag123
ag124
ag125
ag126
ag127
ag128
ag129
ag130
ag131
ag132
ag133
ag134
ag136
ag137
ag138
ag139
ag140
ag141
ag142
ag143
ag144
ag145
ag146
ag147
ag148
ag149
ag150
ag151
ag152
ag153
ag154
ag155
ag156
ag157
ag158
ag159
ag160
ag161
ag162
ag163
ag164
ag165
ag166
ag167
ag169
ag170
ag171
ag172
ag173
ag174
ag175
ag176
ag177
ag178
ag179
ag180
ag181
ag182
ag183
ag184
ag185
ag186
ag187
ag188
ag189
ag190
ag191
ag192
ag193
ag194
ag195
ag196
ag197
ag198
ag199
ag200
ag201
ag202
ag203
ag205
ag206
ag207
ag208
ag209
ag210
ag211
ag212
ag213
ag214
ag215
ag216
ag217
ag218
ag219
ag220
ag221
ag222
ag223
ag224
ag225
ag226
ag227
ag228
ag229
ag230
ag231
ag232
ag233
ag234
ag235
ag236
ag238
ag239
ag240
ag241
ag242
ag243
ag244
ag245
ag246
ag247
ag248
ag249
ag250
ag251
ag252
ag253
ag254
ag255
ag256
ag257
ag258
ag259
ag260
ag261
ag262
ag263
ag264
ag265
ag266
ag267
ag268
ag269
ag270
ag271
ag272
ag273
ag274
ag276
ag277
ag278
ag279
ag280
ag281
ag282
ag283
ag284
ag285
ag286
ag287
ag288
ag289
ag290
ag291
ag292
ag293
ag294
ag295
ag296
ag297
ag298
ag299
ag300
ag301
ag302
ag303
ag304
ag305
ag306
ag307
ag308
ag309
ag310
ag311
ag312
ag313
ag314
ag315
ag316
ag317
ag319
ag320
ag321
ag322
ag323
ag324
ag325
ag326
ag327
ag328
ag329
ag330
ag331
ag332
ag333
ag334
ag335
ag336
ag337
ag338
ag339
ag340
ag341
ag342
ag343
ag344
ag345
ag346
ag347
ag348
ag349
ag350
ag351
ag352
ag353
ag354
ag355
ag356
ag357
ag358
ag360
ag361
ag362
ag363
ag364
ag365
ag366
ag367
ag368
ag369
ag370
ag371
ag372
ag373
ag374
ag375
ag376
ag377
ag378
ag379
ag380
ag381
ag382
ag383
ag384
ag385
ag386
ag387
ag388
ag389
ag390
ag391
ag392
ag393
ag394
ag395
ag396
ag397
ag398
ag399
ag400
ag401
ag402
ag403
ag404
ag405
ag406
ag407
ag408
ag409
ag410
ag412
ag413
ag414
ag415
ag416
ag417
ag418
ag419
ag420
ag421
ag422
ag423
ag424
ag425
ag426
ag427
ag428
ag429
ag430
ag431
ag432
ag433
ag434
ag435
ag436
ag437
ag438
ag439
ag440
ag441
ag442
ag443
ag444
ag445
ag446
ag447
ag448
ag449
ag450
ag451
ag452
ag453
ag454
ag455
ag456
ag457
ag458
ag459
ag460
ag461
ag462
ag463
ag464
ag465
ag466
ag467
ag468
ag469
ag470
ag471
ag472
ag474
ag475
ag476
ag477
ag478
ag479
ag480
ag481
ag482
ag483
ag484
ag485
ag486
ag487
ag488
ag489
ag490
ag491
ag492
ag493
ag494
ag495
ag496
ag497
ag498
ag499
ag500
ag501
ag502
ag503
ag504
ag505
ag506
ag507
ag508
ag509
ag510
ag511
ag512
ag513
ag514
ag515
ag516
ag517
ag518
ag519
ag520
ag521
ag522
ag524
ag525
ag526
ag527
ag528
ag529
ag530
ag531
ag532
ag533
ag534
ag535
ag536
ag537
ag538
ag539
ag540
ag541
ag542
ag543
ag544
ag545
ag546
ag547
ag548
ag549
ag550
ag551
ag552
ag553
ag554
ag555
ag556
ag557
ag558
ag559
ag560
ag561
ag562
ag563
ag564
ag565
ag566
ag567
ag568
ag569
ag570
ag571
ag572
ag573
ag574
ag575
ag576
ag577
ag578
ag580
ag581
ag582
ag583
ag584
ag585
ag586
ag587
ag588
ag589
ag590
ag591
ag592
ag593
ag594
ag595
ag596
ag597
ag598
ag599
ag600
ag601
ag602
ag603
ag604
ag605
ag606
ag607
ag608
ag609
ag610
ag611
ag612
ag613
ag614
ag615
ag616
ag617
ag618
ag619
ag620
ag621
ag622
ag623
ag624
ag625
ag626
ag627
ag628
ag629
ag630
ag631
ag632
ag633
ag634
ag635
ag636
ag637
ag638
ag639
ag640
ag642
ag643
ag644
ag645
ag646
ag647
ag648
ag649
ag650
ag651
ag652
ag653
ag654
ag655
ag656
ag657
ag658
ag659
ag660
ag661
ag662
ag663
ag664
ag665
ag666
ag667
ag668
ag669
ag670
ag671
ag672
ag673
ag674
ag675
ag676
ag677
ag678
ag679
ag680
ag681
ag682
ag683
ag684
ag685
ag686
ag687
ag688
ag689
ag690
ag691
ag692
ag693
ag694
ag696
ag697
ag698
ag699
ag700
ag701
ag702
ag703
ag704
ag705
ag706
ag707
ag708
ag709
ag710
ag711
ag712
ag713
ag714
ag715
ag716
ag717
ag718
ag719
ag720
ag721
ag722
ag723
ag724
ag725
ag726
ag727
ag728
ag729
ag730
ag731
ag732
ag733
ag734
ag735
ag736
ag737
ag738
ag739
ag740
ag741
ag742
ag743
ag744
ag745
ag746
ag747
ag748
ag749
ag750
ag751
ag752
ag753
ag754
ag755
ag756
ag757
ag759
ag760
ag761
ag762
ag763
ag764
ag765
ag766
ag767
ag768
ag769
ag770
ag771
ag772
ag773
ag774
ag775
ag776
ag777
ag778
ag779
ag780
ag781
ag782
ag783
ag784
ag785
ag786
ag787
ag788
ag789
ag790
ag791
ag792
ag793
ag794
ag795
ag796
ag797
ag798
ag799
ag800
ag801
ag802
ag803
ag804
ag805
ag806
ag807
ag808
ag809
ag810
ag811
ag812
ag813
ag814
ag815
ag816
ag817
ag818
ag819
ag821
ag822
ag823
ag824
ag825
ag826
ag827
ag828
ag829
ag830
ag831
ag832
ag833
ag834
ag835
ag836
ag837
ag838
ag839
ag840
ag841
ag842
ag843
ag844
ag845
ag846
ag847
ag848
ag849
ag850
ag851
ag852
ag853
ag854
ag855
ag856
ag857
ag858
ag859
ag860
ag861
ag862
ag863
ag864
ag865
ag866
ag867
ag868
ag869
ag870
ag871
ag872
ag873
ag874
ag875
ag876
ag877
ag878
ag879
ag880
ag881
ag882
ag883
ag884
ag885
ag886
ag887
ag888
ag889
ag890
ag891
ag892
ag893
ag894
ag895
ag896
ag897
ag899
ag900
ag901
ag902
ag903
ag904
ag905
ag906
ag907
ag908
ag909
ag910
ag911
ag912
ag913
ag914
ag915
ag916
ag917
ag918
ag919
ag920
ag921
ag922
ag923
ag924
ag925
ag926
ag927
ag928
ag929
ag930
ag931
ag932
ag933
ag934
ag935
ag936
ag937
ag938
ag939
ag940
ag941
ag942
ag943
ag944
ag945
ag946
ag947
ag948
ag949
ag950
ag951
ag952
ag953
ag954
ag955
ag956
ag957
ag958
ag959
ag960
ag961
ag962
ag964
ag965
ag966
ag967
ag968
ag969
ag970
ag971
ag972
ag973
ag974
ag975
ag976
ag977
ag978
ag979
ag980
ag981
ag982
ag983
ag984
ag985
ag986
ag987
ag988
ag989
ag990
ag991
ag992
ag993
ag994
ag995
ag996
ag997
ag998
ag999
ag1000
ag1001
ag1002
ag1003
ag1004
ag1005
ag1006
ag1007
ag1008
ag1009
ag1010
ag1011
ag1012
ag1013
ag1014
ag1015
ag1016
ag1017
ag1018
ag1019
ag1020
ag1021
ag1022
ag1023
ag1024
ag1025
ag1026
ag1027
ag1028
ag1029
ag1030
ag1031
ag1032
ag1033
ag1034
ag1035
ag1036
ag1037
ag1038
ag1039
ag1041
ag1042
ag1043
ag1044
ag1045
ag1046
ag1047
ag1048
ag1049
ag1050
ag1051
ag1052
ag1053
ag1054
ag1055
ag1056
ag1057
ag1058
ag1059
ag1060
ag1061
ag1062
ag1063
ag1064
ag1065
ag1066
ag1067
ag1068
ag1069
ag1070
ag1071
ag1072
ag1073
ag1074
ag1075
ag1076
ag1077
ag1078
ag1079
ag1080
ag1081
ag1082
ag1083
ag1084
ag1085
ag1086
ag1087
ag1088
ag1089
ag1090
ag1091
ag1092
ag1093
ag1094
ag1095
ag1096
ag1097
ag1098
ag1099
ag1100
ag1101
ag1102
ag1103
ag1104
ag1105
ag1106
ag1107
ag1108
ag1109
ag1110
ag1111
ag1112
ag1113
ag1114
ag1115
ag1117
ag1118
ag1119
ag1120
ag1121
ag1122
ag1123
ag1124
ag1125
ag1126
ag1127
ag1128
ag1129
ag1130
ag1131
ag1132
ag1133
ag1134
ag1135
ag1136
ag1137
ag1138
ag1139
ag1140
ag1141
ag1142
ag1143
ag1144
ag1145
ag1146
ag1147
ag1148
ag1149
ag1150
ag1151
ag1152
ag1153
ag1154
ag1155
ag1156
ag1157
ag1158
ag1159
ag1160
ag1161
ag1162
ag1163
ag1164
ag1165
ag1166
ag1167
ag1168
ag1169
ag1170
ag1171
ag1172
ag1173
ag1174
ag1175
ag1176
ag1177
ag1178
ag1179
ag1180
ag1181
ag1182
ag1183
ag1184
ag1185
ag1186
ag1187
ag1188
ag1189
ag1190
ag1191
ag1192
ag1193
ag1194
ag1196
ag1197
ag1198
ag1199
ag1200
ag1201
ag1202
ag1203
ag1204
ag1205
ag1206
ag1207
ag1208
ag1209
ag1210
ag1211
ag1212
ag1213
ag1214
ag1215
ag1216
ag1217
ag1218
ag1219
ag1220
ag1221
ag1222
ag1223
ag1224
ag1225
ag1226
ag1227
ag1228
ag1229
ag1230
ag1231
ag1232
ag1233
ag1234
ag1235
ag1236
ag1237
ag1238
ag1239
ag1240
ag1241
ag1242
ag1243
ag1244
ag1245
ag1246
ag1247
ag1248
ag1249
ag1250
ag1251
ag1252
ag1253
ag1254
ag1255
ag1256
ag1257
ag1258
ag1259
ag1260
ag1261
ag1262
ag1263
ag1264
ag1265
ag1266
ag1267
ag1268
ag1269
ag1270
ag1271
ag1272
ag1273
ag1274
ag1275
ag1276
ag1277
ag1278
ag1279
ag1280
ag1281
ag1282
ag1283
ag1284
ag1285
ag1286
ag1287
ag1288
ag1289
ag1290
ag1291
ag1293
ag1294
ag1295
ag1296
ag1297
ag1298
ag1299
ag1300
ag1301
ag1302
ag1303
ag1304
ag1305
ag1306
ag1307
ag1308
ag1309
ag1310
ag1311
ag1312
ag1313
ag1314
ag1315
ag1316
ag1317
ag1318
ag1319
ag1320
ag1321
ag1322
ag1323
ag1324
ag1325
ag1326
ag1327
ag1328
ag1329
ag1330
ag1331
ag1332
ag1333
ag1334
ag1335
ag1336
ag1337
ag1338
ag1339
ag1340
ag1341
ag1342
ag1343
ag1344
ag1345
ag1346
ag1347
ag1348
ag1349
ag1350
ag1351
ag1352
ag1353
ag1354
ag1355
ag1356
ag1357
ag1358
ag1359
ag1360
ag1361
ag1362
ag1363
ag1364
ag1365
ag1366
ag1367
ag1368
ag1369
ag1370
ag1371
ag1372
ag1373
ag1374
ag1375
ag1376
ag1377
ag1378
ag1379
ag1380
ag1381
ag1382
ag1383
ag1384
ag1385
ag1386
ag1387
ag1388
ag1390
ag1391
ag1392
ag1393
ag1394
ag1395
ag1396
ag1397
ag1398
ag1399
ag1400
ag1401
ag1402
ag1403
ag1404
ag1405
ag1406
ag1407
ag1408
ag1409
ag1410
ag1411
ag1412
ag1413
ag1414
ag1415
ag1416
ag1417
ag1418
ag1419
ag1420
ag1421
ag1422
ag1423
ag1424
ag1425
ag1426
ag1427
ag1428
ag1429
ag1430
ag1431
ag1432
ag1433
ag1434
ag1435
ag1436
ag1437
ag1438
ag1439
ag1440
ag1441
ag1442
ag1443
ag1444
ag1445
ag1446
ag1447
ag1448
ag1449
ag1450
ag1451
ag1452
ag1453
ag1454
ag1455
ag1456
ag1457
ag1458
ag1459
ag1460
ag1461
ag1462
ag1463
ag1464
ag1465
ag1466
ag1467
ag1468
ag1469
ag1470
ag1471
ag1472
ag1473
ag1474
ag1475
ag1476
ag1477
ag1478
ag1479
ag1480
ag1481
ag1482
ag1483
ag1484
ag1485
ag1486
ag1487
ag1488
ag1489
ag1490
ag1491
ag1492
ag1493
ag1494
ag1495
ag1497
ag1498
ag1499
ag1500
ag1501
ag1502
ag1503
ag1504
ag1505
ag1506
ag1507
ag1508
ag1509
ag1510
ag1511
ag1512
ag1513
ag1514
ag1515
ag1516
ag1517
ag1518
ag1519
ag1520
ag1521
ag1522
ag1523
ag1524
ag1525
ag1526
ag1527
ag1528
ag1529
ag1530
ag1531
ag1532
ag1533
ag1534
ag1535
ag1536
ag1537
ag1538
ag1539
ag1540
ag1541
ag1542
ag1543
ag1544
ag1545
ag1546
ag1547
ag1548
ag1549
ag1550
ag1551
ag1552
ag1553
ag1554
ag1555
ag1556
ag1557
ag1558
ag1559
ag1560
ag1561
ag1562
ag1563
ag1564
ag1565
ag1566
ag1567
ag1568
ag1569
ag1570
ag1571
ag1572
ag1573
ag1574
ag1575
ag1576
ag1577
ag1578
ag1579
ag1580
ag1581
ag1582
ag1583
ag1584
ag1585
ag1586
ag1587
ag1588
ag1589
ag1590
ag1591
ag1592
ag1593
ag1594
ag1595
ag1596
ag1597
ag1598
ag1599
ag1600
ag1601
ag1602
ag1603
ag1604
ag1605
ag1606
ag1607
ag1608
ag1609
ag1610
ag1612
ag1613
ag1614
ag1615
ag1616
ag1617
ag1618
ag1619
ag1620
ag1621
ag1622
ag1623
ag1624
ag1625
ag1626
ag1627
ag1628
ag1629
ag1630
ag1631
ag1632
ag1633
ag1634
ag1635
ag1636
ag1637
ag1638
ag1639
ag1640
ag1641
ag1642
ag1643
ag1644
ag1645
ag1646
ag1647
ag1648
ag1649
ag1650
ag1651
ag1652
ag1653
ag1654
ag1655
ag1656
ag1657
ag1658
ag1659
ag1660
ag1661
ag1662
ag1663
ag1664
ag1665
ag1666
ag1667
ag1668
ag1669
ag1670
ag1671
ag1672
ag1673
ag1674
ag1675
ag1676
ag1677
ag1678
ag1679
ag1680
ag1681
ag1682
ag1683
ag1684
ag1685
ag1686
ag1687
ag1688
ag1689
ag1690
ag1691
ag1692
ag1693
ag1694
ag1695
ag1696
ag1697
ag1698
ag1699
ag1700
ag1701
ag1702
ag1703
ag1704
ag1705
ag1706
ag1707
ag1708
ag1709
ag1710
ag1711
ag1712
ag1713
ag1714
ag1715
ag1716
ag1717
ag1718
ag1719
ag1720
ag1721
ag1722
ag1723
ag1724
ag1725
ag1726
ag1727
ag1728
ag1729
ag1730
ag1731
ag1732
ag1733
ag1734
ag1735
ag1736
ag1738
ag1739
ag1740
ag1741
ag1742
ag1743
ag1744
ag1745
ag1746
ag1747
ag1748
ag1749
ag1750
ag1751
ag1752
ag1753
ag1754
ag1755
ag1756
ag1757
ag1758
ag1759
ag1760
ag1761
ag1762
ag1763
ag1764
ag1765
ag1766
ag1767
ag1768
ag1769
ag1770
ag1771
ag1772
ag1773
ag1774
ag1775
ag1776
ag1777
ag1778
ag1779
ag1780
ag1781
ag1782
ag1783
ag1784
ag1785
ag1786
ag1787
ag1788
ag1789
ag1790
ag1791
ag1792
ag1793
ag1794
ag1795
ag1796
ag1797
ag1798
ag1799
ag1800
ag1801
ag1802
ag1803
ag1804
ag1805
ag1806
ag1807
ag1808
ag1809
ag1810
ag1811
ag1812
ag1813
ag1814
ag1815
ag1816
ag1817
ag1818
ag1819
ag1820
ag1821
ag1822
ag1823
ag1824
ag1825
ag1826
ag1827
ag1828
ag1829
ag1830
ag1831
ag1832
ag1833
ag1834
ag1835
ag1836
ag1837
ag1838
ag1839
ag1840
ag1841
ag1842
ag1843
ag1844
ag1845
ag1846
ag1847
ag1848
ag1849
ag1850
ag1851
ag1852
ag1853
ag1854
ag1855
ag1856
ag1857
ag1858
ag1859
ag1860
ag1861
ag1862
ag1864
ag1865
ag1866
ag1867
ag1868
ag1869
ag1870
ag1871
ag1872
ag1873
ag1874
ag1875
ag1876
ag1877
ag1878
ag1879
ag1880
ag1881
ag1882
ag1883
ag1884
ag1885
ag1886
ag1887
ag1888
ag1889
ag1890
ag1891
ag1892
ag1893
ag1894
ag1895
ag1896
ag1897
ag1898
ag1899
ag1900
ag1901
ag1902
ag1903
ag1904
ag1905
ag1906
ag1907
ag1908
ag1909
ag1910
ag1911
ag1912
ag1913
ag1914
ag1915
ag1916
ag1917
ag1918
ag1919
ag1920
ag1921
ag1922
ag1923
ag1924
ag1925
ag1926
ag1927
ag1928
ag1929
ag1930
ag1931
ag1932
ag1933
ag1934
ag1935
ag1936
ag1937
ag1938
ag1939
ag1940
ag1941
ag1942
ag1943
ag1944
ag1945
ag1946
ag1947
ag1948
ag1949
ag1950
ag1951
ag1952
ag1953
ag1954
ag1955
ag1956
ag1957
ag1958
ag1959
ag1960
ag1961
ag1962
ag1963
ag1964
ag1965
ag1966
ag1967
ag1968
ag1969
ag1970
ag1971
ag1972
ag1973
ag1974
ag1975
ag1976
ag1977
ag1978
ag1979
ag1980
ag1981
ag1982
ag1983
ag1984
ag1985
ag1986
ag1987
ag1988
ag1989
ag1990
ag1991
ag1992
ag1993
ag1994
ag1995
ag1996
ag1997
ag1998
ag1999
ag2000
ag2001
ag2002
ag2003
ag2004
ag2006
ag2007
ag2008
ag2009
ag2010
ag2011
ag2012
ag2013
ag2014
ag2015
ag2016
ag2017
ag2018
ag2019
ag2020
ag2021
ag2022
ag2023
ag2024
ag2025
ag2026
ag2027
ag2028
ag2029
ag2030
ag2031
ag2032
ag2033
ag2034
ag2035
ag2036
ag2037
ag2038
ag2039
ag2040
ag2041
ag2042
ag2043
ag2044
ag2045
ag2046
ag2047
ag2048
ag2049
ag2050
ag2051
ag2052
ag2053
ag2054
ag2055
ag2056
ag2057
ag2058
ag2059
ag2060
ag2061
ag2062
ag2063
ag2064
ag2065
ag2066
ag2067
ag2068
ag2069
ag2070
ag2071
ag2072
ag2073
ag2074
ag2075
ag2076
ag2077
ag2078
ag2079
ag2080
ag2081
ag2082
ag2083
ag2084
ag2085
ag2086
ag2087
ag2088
ag2089
ag2090
ag2091
ag2092
ag2093
ag2094
ag2095
ag2096
ag2097
ag2098
ag2099
ag2100
ag2101
ag2102
ag2103
ag2104
ag2105
ag2106
ag2107
ag2108
ag2109
ag2110
ag2111
ag2112
ag2113
ag2114
ag2115
ag2116
ag2117
ag2118
ag2119
ag2120
ag2121
ag2122
ag2123
ag2124
ag2125
ag2126
ag2127
ag2128
ag2129
ag2130
ag2131
ag2132
ag2133
ag2134
ag2135
ag2136
ag2137
ag2138
ag2139
ag2140
ag2141
ag2142
ag2143
ag2144
ag2145
ag2146
ag2147
ag2148
ag2150
ag2151
ag2152
ag2153
ag2154
ag2155
ag2156
ag2157
ag2158
ag2159
ag2160
ag2161
ag2162
ag2163
ag2164
ag2165
ag2166
ag2167
ag2168
ag2169
ag2170
ag2171
ag2172
ag2173
ag2174
ag2175
ag2176
ag2177
ag2178
ag2179
ag2180
ag2181
ag2182
ag2183
ag2184
ag2185
ag2186
ag2187
ag2188
ag2189
ag2190
ag2191
ag2192
ag2193
ag2194
ag2195
ag2196
ag2197
ag2198
ag2199
ag2200
ag2201
ag2202
ag2203
ag2204
ag2205
ag2206
ag2207
ag2208
ag2209
ag2210
ag2211
ag2212
ag2213
ag2214
ag2215
ag2216
ag2217
ag2218
ag2219
ag2220
ag2221
ag2222
ag2223
ag2224
ag2225
ag2226
ag2227
ag2228
ag2229
ag2230
ag2231
ag2232
ag2233
ag2234
ag2235
ag2236
ag2237
ag2238
ag2239
ag2240
ag2241
ag2242
ag2243
ag2244
ag2245
ag2246
ag2247
ag2248
ag2249
ag2250
ag2251
ag2252
ag2253
ag2254
ag2255
ag2256
ag2257
ag2258
ag2259
ag2260
ag2261
ag2262
ag2263
ag2264
ag2265
ag2266
ag2267
ag2268
ag2269
ag2270
ag2271
ag2272
ag2273
ag2274
ag2275
ag2276
ag2277
ag2278
ag2279
ag2280
ag2281
ag2282
ag2283
ag2284
ag2285
ag2286
ag2287
ag2289
ag2290
ag2291
ag2292
ag2293
ag2294
ag2295
ag2296
ag2297
ag2298
ag2299
ag2300
ag2301
ag2302
ag2303
ag2304
ag2305
ag2306
ag2307
ag2308
ag2309
ag2310
ag2311
ag2312
ag2313
ag2314
ag2315
ag2316
ag2317
ag2318
ag2319
ag2320
ag2321
ag2322
ag2323
ag2324
ag2325
ag2326
ag2327
ag2328
ag2329
ag2330
ag2331
ag2332
ag2333
ag2334
ag2335
ag2336
ag2337
ag2338
ag2339
ag2340
ag2341
ag2342
ag2343
ag2344
ag2345
ag2346
ag2347
ag2348
ag2349
ag2350
ag2351
ag2352
ag2353
ag2354
ag2355
ag2356
ag2357
ag2358
ag2359
ag2360
ag2361
ag2362
ag2363
ag2364
ag2365
ag2366
ag2367
ag2368
ag2369
ag2370
ag2371
ag2372
ag2373
ag2374
ag2375
ag2376
ag2377
ag2378
ag2379
ag2380
ag2381
ag2382
ag2383
ag2384
ag2385
ag2386
ag2387
ag2388
ag2389
ag2390
ag2391
ag2392
ag2393
ag2394
ag2395
ag2396
ag2397
ag2398
ag2399
ag2400
ag2401
ag2402
ag2403
ag2404
ag2405
ag2406
ag2407
ag2408
ag2409
ag2410
ag2411
ag2412
ag2413
ag2414
ag2415
ag2416
ag2417
ag2418
ag2419
ag2420
ag2421
ag2422
ag2423
ag2424
ag2425
ag2426
ag2427
ag2428
ag2430
ag2431
ag2432
ag2433
ag2434
ag2435
ag2436
ag2437
ag2438
ag2439
ag2440
ag2441
ag2442
ag2443
ag2444
ag2445
ag2446
ag2447
ag2448
ag2449
ag2450
ag2451
ag2452
ag2453
ag2454
ag2455
ag2456
ag2457
ag2458
ag2459
ag2460
ag2461
ag2462
ag2463
ag2464
ag2465
ag2466
ag2467
ag2468
ag2469
ag2470
ag2471
ag2472
ag2473
ag2474
ag2475
ag2476
ag2477
ag2478
ag2479
ag2480
ag2481
ag2482
ag2483
ag2484
ag2485
ag2486
ag2487
ag2488
ag2489
ag2490
ag2491
ag2492
ag2493
ag2494
ag2495
ag2496
ag2497
ag2498
ag2499
ag2500
ag2501
ag2502
ag2503
ag2504
ag2505
ag2506
ag2507
ag2508
ag2509
ag2510
ag2511
ag2512
ag2513
ag2514
ag2515
ag2516
ag2517
ag2518
ag2519
ag2520
ag2521
ag2522
ag2523
ag2524
ag2525
ag2526
ag2527
ag2528
ag2529
ag2530
ag2531
ag2532
ag2533
ag2534
ag2535
ag2536
ag2537
ag2538
ag2539
ag2540
ag2541
ag2542
ag2543
ag2544
ag2545
ag2546
ag2547
ag2548
ag2549
ag2550
ag2551
ag2552
ag2553
ag2554
ag2555
ag2556
ag2557
ag2558
ag2559
ag2560
ag2561
ag2562
ag2563
ag2564
ag2565
ag2566
ag2567
ag2568
ag2569
ag2570
ag2571
ag2572
ag2573
ag2574
ag2575
ag2576
ag2577
ag2578
ag2579
ag2580
ag2581
ag2582
ag2583
ag2584
ag2585
ag2586
ag2587
ag2588
ag2589
ag2590
ag2591
ag2593
ag2594
ag2595
ag2596
ag2597
ag2598
ag2599
ag2600
ag2601
ag2602
ag2603
ag2604
ag2605
ag2606
ag2607
ag2608
ag2609
ag2610
ag2611
ag2612
ag2613
ag2614
ag2615
ag2616
ag2617
ag2618
ag2619
ag2620
ag2621
ag2622
ag2623
ag2624
ag2625
ag2626
ag2627
ag2628
ag2629
ag2630
ag2631
ag2632
ag2633
ag2634
ag2635
ag2636
ag2637
ag2638
ag2639
ag2640
ag2641
ag2642
ag2643
ag2644
ag2645
ag2646
ag2647
ag2648
ag2649
ag2650
ag2651
ag2652
ag2653
ag2654
ag2655
ag2656
ag2657
ag2658
ag2659
ag2660
ag2661
ag2662
ag2663
ag2664
ag2665
ag2666
ag2667
ag2668
ag2669
ag2670
ag2671
ag2672
ag2673
ag2674
ag2675
ag2676
ag2677
ag2678
ag2679
ag2680
ag2681
ag2682
ag2683
ag2684
ag2685
ag2686
ag2687
ag2688
ag2689
ag2690
ag2691
ag2692
ag2693
ag2694
ag2695
ag2696
ag2697
ag2698
ag2699
ag2700
ag2701
ag2702
ag2703
ag2704
ag2705
ag2706
ag2707
ag2708
ag2709
ag2710
ag2711
ag2712
ag2713
ag2714
ag2715
ag2716
ag2717
ag2718
ag2719
ag2720
ag2721
ag2722
ag2723
ag2724
ag2725
ag2726
ag2727
ag2728
ag2729
ag2730
ag2731
ag2732
ag2733
ag2734
ag2735
ag2736
ag2737
ag2738
ag2739
ag2741
ag2742
ag2743
ag2744
ag2745
ag2746
ag2747
ag2748
ag2749
ag2750
ag2751
ag2752
ag2753
ag2754
ag2755
ag2756
ag2757
ag2758
ag2759
ag2760
ag2761
ag2762
ag2763
ag2764
ag2765
ag2766
ag2767
ag2768
ag2769
ag2770
ag2771
ag2772
ag2773
ag2774
ag2775
ag2776
ag2777
ag2778
ag2779
ag2780
ag2781
ag2782
ag2783
ag2784
ag2785
ag2786
ag2787
ag2788
ag2789
ag2790
ag2791
ag2792
ag2793
ag2794
ag2795
ag2796
ag2797
ag2798
ag2799
ag2800
ag2801
ag2802
ag2803
ag2804
ag2805
ag2806
ag2807
ag2808
ag2809
ag2810
ag2811
ag2812
ag2813
ag2814
ag2815
ag2816
ag2817
ag2818
ag2819
ag2820
ag2821
ag2822
ag2823
ag2824
ag2825
ag2826
ag2827
ag2828
ag2829
ag2830
ag2831
ag2832
ag2833
ag2834
ag2835
ag2836
ag2837
ag2838
ag2839
ag2840
ag2841
ag2842
ag2843
ag2844
ag2845
ag2846
ag2847
ag2848
ag2849
ag2850
ag2851
ag2852
ag2853
ag2854
ag2855
ag2856
ag2857
ag2858
ag2859
ag2860
ag2861
ag2862
ag2863
ag2864
ag2865
ag2866
ag2867
ag2868
ag2869
ag2870
ag2871
ag2872
ag2873
ag2874
ag2875
ag2876
ag2877
ag2878
ag2879
ag2880
ag2881
ag2882
ag2883
ag2884
ag2885
ag2886
ag2887
ag2888
ag2889
ag2890
ag2891
ag2892
ag2893
ag2894
ag2895
ag2896
ag2897
ag2898
ag2899
ag2900
ag2901
ag2902
ag2903
ag2904
ag2905
ag2906
ag2907
ag2908
ag2909
ag2910
ag2911
ag2912
ag2913
ag2914
ag2916
ag2917
ag2918
ag2919
ag2920
ag2921
ag2922
ag2923
ag2924
ag2925
ag2926
ag2927
ag2928
ag2929
ag2930
ag2931
ag2932
ag2933
ag2934
ag2935
ag2936
ag2937
ag2938
ag2939
ag2940
ag2941
ag2942
ag2943
ag2944
ag2945
ag2946
ag2947
ag2948
ag2949
ag2950
ag2951
ag2952
ag2953
ag2954
ag2955
ag2956
ag2957
ag2958
ag2959
ag2960
ag2961
ag2962
ag2963
ag2964
ag2965
ag2966
ag2967
ag2968
ag2969
ag2970
ag2971
ag2972
ag2973
ag2974
ag2975
ag2976
ag2977
ag2978
ag2979
ag2980
ag2981
ag2982
ag2983
ag2984
ag2985
ag2986
ag2987
ag2988
ag2989
ag2990
ag2991
ag2992
ag2993
ag2994
ag2995
ag2996
ag2997
ag2998
ag2999
ag3000
ag3001
ag3002
ag3003
ag3004
ag3005
ag3006
ag3007
ag3008
ag3009
ag3010
ag3011
ag3012
ag3013
ag3014
ag3015
ag3016
ag3017
ag3018
ag3019
ag3020
ag3021
ag3022
ag3023
ag3024
ag3025
ag3026
ag3027
ag3028
ag3029
ag3030
ag3031
ag3032
ag3033
ag3034
ag3035
ag3036
ag3037
ag3038
ag3039
ag3040
ag3041
ag3042
ag3043
ag3044
ag3045
ag3046
ag3047
ag3048
ag3049
ag3050
ag3051
ag3052
ag3053
ag3054
ag3055
ag3056
ag3057
ag3058
ag3059
ag3060
ag3061
ag3062
ag3063
ag3064
ag3065
ag3066
ag3067
ag3068
ag3069
ag3070
ag3071
ag3072
ag3073
ag3074
ag3075
ag3076
ag3077
ag3078
ag3079
ag3080
ag3081
ag3082
ag3083
ag3084
ag3085
ag3086
ag3087
ag3088
ag3089
ag3090
ag3091
ag3092
ag3093
ag3094
ag3095
ag3096
ag3097
ag3099
ag3100
ag3101
ag3102
ag3103
ag3104
ag3105
ag3106
ag3107
ag3108
ag3109
ag3110
ag3111
ag3112
ag3113
ag3114
ag3115
ag3116
ag3117
ag3118
ag3119
ag3120
ag3121
ag3122
ag3123
ag3124
ag3125
ag3126
ag3127
ag3128
ag3129
ag3130
ag3131
ag3132
ag3133
ag3134
ag3135
ag3136
ag3137
ag3138
ag3139
ag3140
ag3141
ag3142
ag3143
ag3144
ag3145
ag3146
ag3147
ag3148
ag3149
ag3150
ag3151
ag3152
ag3153
ag3154
ag3155
ag3156
ag3157
ag3158
ag3159
ag3160
ag3161
ag3162
ag3163
ag3164
ag3165
ag3166
ag3167
ag3168
ag3169
ag3170
ag3171
ag3172
ag3173
ag3174
ag3175
ag3176
ag3177
ag3178
ag3179
ag3180
ag3181
ag3182
ag3183
ag3184
ag3185
ag3186
ag3187
ag3188
ag3189
ag3190
ag3191
ag3192
ag3193
ag3194
ag3195
ag3196
ag3197
ag3198
ag3199
ag3200
ag3201
ag3202
ag3203
ag3204
ag3205
ag3206
ag3207
ag3208
ag3209
ag3210
ag3211
ag3212
ag3213
ag3214
ag3215
ag3216
ag3217
ag3218
ag3219
ag3220
ag3221
ag3222
ag3223
ag3224
ag3225
ag3226
ag3227
ag3228
ag3229
ag3230
ag3231
ag3232
ag3233
ag3234
ag3235
ag3236
ag3237
ag3238
ag3239
ag3240
ag3241
ag3242
ag3243
ag3244
ag3245
ag3246
ag3247
ag3248
ag3249
ag3250
ag3251
ag3252
ag3253
ag3254
ag3255
ag3256
ag3257
ag3258
ag3259
ag3260
ag3261
ag3262
ag3263
ag3264
ag3265
ag3266
ag3267
ag3268
ag3269
ag3270
ag3271
ag3272
ag3273
ag3274
ag3275
ag3276
ag3277
ag3278
ag3279
ag3280
ag3281
ag3283
ag3284
ag3285
ag3286
ag3287
ag3288
ag3289
ag3290
ag3291
ag3292
ag3293
ag3294
ag3295
ag3296
ag3297
ag3298
ag3299
ag3300
ag3301
ag3302
ag3303
ag3304
ag3305
ag3306
ag3307
ag3308
ag3309
ag3310
ag3311
ag3312
ag3313
ag3314
ag3315
ag3316
ag3317
ag3318
ag3319
ag3320
ag3321
ag3322
ag3323
ag3324
ag3325
ag3326
ag3327
ag3328
ag3329
ag3330
ag3331
ag3332
ag3333
ag3334
ag3335
ag3336
ag3337
ag3338
ag3339
ag3340
ag3341
ag3342
ag3343
ag3344
ag3345
ag3346
ag3347
ag3348
ag3349
ag3350
ag3351
ag3352
ag3353
ag3354
ag3355
ag3356
ag3357
ag3358
ag3359
ag3360
ag3361
ag3362
ag3363
ag3364
ag3365
ag3366
ag3367
ag3368
ag3369
ag3370
ag3371
ag3372
ag3373
ag3374
ag3375
ag3376
ag3377
ag3378
ag3379
ag3380
ag3381
ag3382
ag3383
ag3384
ag3385
ag3386
ag3387
ag3388
ag3389
ag3390
ag3391
ag3392
ag3393
ag3394
ag3395
ag3396
ag3397
ag3398
ag3399
ag3400
ag3401
ag3402
ag3403
ag3404
ag3405
ag3406
ag3407
ag3408
ag3409
ag3410
ag3411
ag3412
ag3413
ag3414
ag3415
ag3416
ag3417
ag3418
ag3419
ag3420
ag3421
ag3422
ag3423
ag3424
ag3425
ag3426
ag3427
ag3428
ag3429
ag3430
ag3431
ag3432
ag3433
ag3435
ag3436
ag3437
ag3438
ag3439
ag3440
ag3441
ag3442
ag3443
ag3444
ag3445
ag3446
ag3447
ag3448
ag3449
ag3450
ag3451
ag3452
ag3453
ag3454
ag3455
ag3456
ag3457
ag3458
ag3459
ag3460
ag3461
ag3462
ag3463
ag3464
ag3465
ag3466
ag3467
ag3468
ag3469
ag3470
ag3471
ag3472
ag3473
ag3474
ag3475
ag3476
ag3477
ag3478
ag3479
ag3480
ag3481
ag3482
ag3483
ag3484
ag3485
ag3486
ag3487
ag3488
ag3489
ag3490
ag3491
ag3492
ag3493
ag3494
ag3495
ag3496
ag3497
ag3498
ag3499
ag3500
ag3501
ag3502
ag3503
ag3504
ag3505
ag3506
ag3507
ag3508
ag3509
ag3510
ag3511
ag3512
ag3513
ag3514
ag3515
ag3516
ag3517
ag3518
ag3519
ag3520
ag3521
ag3522
ag3523
ag3524
ag3525
ag3526
ag3527
ag3528
ag3529
ag3530
ag3531
ag3532
ag3533
ag3534
ag3535
ag3536
ag3537
ag3538
ag3539
ag3540
ag3541
ag3542
ag3543
ag3544
ag3545
ag3546
ag3547
ag3548
ag3549
ag3550
ag3551
ag3552
ag3553
ag3554
ag3555
ag3556
ag3557
ag3558
ag3559
ag3560
ag3561
ag3562
ag3563
ag3564
ag3565
ag3566
ag3567
ag3568
ag3569
ag3570
ag3571
ag3572
ag3573
ag3574
ag3575
ag3576
ag3577
ag3578
ag3579
ag3580
ag3581
ag3582
ag3583
ag3584
ag3585
ag3586
ag3587
ag3588
ag3589
ag3590
ag3591
ag3592
ag3593
ag3594
ag3595
ag3596
ag3597
ag3598
ag3599
ag3600
ag3601
ag3602
ag3603
ag3604
ag3605
ag3606
ag3607
ag3608
ag3609
ag3610
ag3611
ag3612
ag3613
ag3614
asS'mean_r'
p3623
(dp3624
I0
F9.074825317943759
sI1
F8.835747397887907
sI2
F7.032793444524884
sI3
F7.297637209257427
sI4
F7.483388988631155
sI5
F7.073973981056497
sI6
F7.601912022230496
sI7
F7.746078432680095
sI8
F7.352824052245901
sI9
F7.459173665789634
sI10
F7.621518000778127
sI11
F7.245355636009156
sI12
F8.037793932026776
sI13
F8.007267615181107
sI14
F8.481836090186336
sI15
F8.636663869213356
sI16
F8.58537796370468
sI17
F9.62062730066233
sI18
F10.587347716472905
sI19
F10.857729112650707
sI20
F11.842208039869854
sI21
F11.504226548063693
sI22
F13.360037216460395
sI23
F13.206731420650828
sI24
F13.897333604539908
sI25
F15.45619228847907
sI26
F15.630697514007327
sI27
F17.312921508899603
sI28
F18.1012985364559
sI29
F18.384848018191416
sI30
F18.53796287635262
sI31
F19.728602114184437
sI32
F19.74828519795846
sI33
F21.01845363642378
sI34
F21.048836244501864
sI35
F21.39008055864104
sI36
F23.058527750935912
sI37
F23.48700376086513
sI38
F23.851201742199756
sI39
F24.881186553026666
sI40
F25.693630940013787
sI41
F27.15013619668275
sI42
F27.62378833590424
sI43
F28.452583149943923
sI44
F29.546245320862408
sI45
F28.96356721057575
sI46
F30.37263497789451
sI47
F31.849163914697755
sI48
F32.47881271781439
sI49
F33.67220973241677
ss.