(dp0
S'gyr_r'
p1
(dp2
I0
F0.0
sI1
F0.5
sI2
F1.0
sI3
F2.25
sI4
F0.8498365855987975
ssS'gens'
p3
(lp4
(lp5
(I0
I0
I0
tp6
aa(lp7
(I0
I-1
I1
tp8
aa(lp9
(I0
I1
I2
tp10
aa(lp11
(I0
I3
I3
tp12
aa(lp13
(I1
I0
I4
tp14
a(I1
I1
I4
tp15
aasS'pop'
p16
(dp17
I0
I1
sI1
I2
sI2
I3
sI3
I4
sI4
I6
ssS'max_r'
p18
(dp19
I0
F0.0
sI1
F0.5
sI2
F1.0
sI3
F2.25
sI4
F0.9428090415820634
ssS'params'
p20
(F1.8
I5
tp21
sS'infected'
p22
(lp23
g6
ag8
ag10
ag12
ag14
ag15
asS'mean_r'
p24
(dp25
I0
F0.0
sI1
F0.5
sI2
F1.0
sI3
F2.25
sI4
F0.8440825170409967
ss.