(dp0
S'gyr_r'
p1
(dp2
I0
F0.0
sI1
F0.5
sI2
F0.7071067811865476
sI3
F1.505199322349037
sI4
F2.496829946074487
ssS'gens'
p3
(lp4
(lp5
(I0
I0
I0
tp6
aa(lp7
(I1
I0
I1
tp8
aa(lp9
(I0
I-1
I2
tp10
a(I1
I-1
I2
tp11
aa(lp12
(I1
I1
I3
tp13
a(I2
I0
I3
tp14
a(I0
I-2
I3
tp15
a(I1
I-2
I3
tp16
aa(lp17
(I2
I1
I4
tp18
a(I5
I-1
I4
tp19
a(I2
I-2
I4
tp20
aasS'pop'
p21
(dp22
I0
I1
sI1
I2
sI2
I4
sI3
I8
sI4
I11
ssS'max_r'
p23
(dp24
I0
F0.0
sI1
F0.5
sI2
F0.7071067811865476
sI3
F1.6441183047457382
sI4
F3.654500225862142
ssS'params'
p25
(F1.8
I5
tp26
sS'infected'
p27
(lp28
g6
ag8
ag10
ag11
ag13
ag14
ag15
ag16
ag18
ag19
ag20
asS'mean_r'
p29
(dp30
I0
F0.0
sI1
F0.5
sI2
F0.7071067811865476
sI3
F1.501362196847046
sI4
F2.305019871441163
ss.