(dp0
S'gyr_r'
p1
(dp2
I0
F0.0
sI1
F0.0
sI2
F0.5
sI3
F0.7453559924999299
sI4
F0.0
sI5
F1.118033988749895
sI6
F1.38995423993585
sI7
F0.0
sI8
F1.4120294474598707
sI9
F1.6439219381841021
sI10
F2.1163385572466633
sI11
F2.5481752841811263
sI12
F2.7594534482997415
sI13
F3.2181855435365785
sI14
F3.5452756721920413
sI15
F3.8566932581124904
sI16
F4.2672967354721685
sI17
F4.627345443768189
sI18
F4.879994098728821
sI19
F5.012021104859352
sI20
F5.734069185826492
sI21
F6.0028577390691975
sI22
F6.259486189828566
sI23
F6.872438419596057
sI24
F7.096159483308998
sI25
F7.737782654870696
sI26
F8.074973511011361
sI27
F8.266520208531349
sI28
F8.546225990783016
sI29
F8.948571893912115
sI30
F9.0939156372438
sI31
F9.800208626217229
sI32
F10.19231044470341
sI33
F11.000078329313334
sI34
F11.81765432049074
sI35
F11.716507362886796
sI36
F12.331140696690877
sI37
F12.18633360188826
sI38
F12.705507326989478
sI39
F12.993854926282374
sI40
F13.909519229373393
sI41
F13.650300492079193
sI42
F14.792594775979687
sI43
F14.71819542934918
sI44
F15.205109181823005
sI45
F15.831975837863059
sI46
F16.151998874088733
sI47
F16.503054970412546
sI48
F16.971034997059018
sI49
F17.361290299185768
ssS'infected'
p3
(lp4
(I0
I0
I0
tp5
a(I0
I-1
I2
tp6
a(I-1
I0
I3
tp7
a(I-1
I1
I5
tp8
a(I1
I1
I6
tp9
a(I-2
I0
I6
tp10
a(I0
I1
I6
tp11
a(I-1
I-1
I8
tp12
a(I-2
I1
I8
tp13
a(I1
I0
I9
tp14
a(I-1
I2
I9
tp15
a(I0
I-2
I10
tp16
a(I2
I1
I10
tp17
a(I0
I2
I10
tp18
a(I2
I0
I10
tp19
a(I1
I2
I11
tp20
a(I-1
I-2
I11
tp21
a(I-2
I2
I11
tp22
a(I-1
I3
I11
tp23
a(I2
I2
I11
tp24
a(I3
I0
I11
tp25
a(I1
I-2
I12
tp26
a(I2
I-2
I12
tp27
a(I0
I3
I12
tp28
a(I3
I1
I13
tp29
a(I-4
I2
I13
tp30
a(I-1
I4
I13
tp31
a(I2
I3
I13
tp32
a(I1
I-1
I13
tp33
a(I-4
I1
I14
tp34
a(I2
I-1
I14
tp35
a(I1
I-3
I14
tp36
a(I0
I4
I14
tp37
a(I4
I1
I14
tp38
a(I-3
I2
I14
tp39
a(I-3
I1
I15
tp40
a(I-2
I3
I15
tp41
a(I2
I-3
I15
tp42
a(I2
I4
I15
tp43
a(I5
I1
I15
tp44
a(I-3
I3
I15
tp45
a(I-2
I-1
I16
tp46
a(I2
I-4
I16
tp47
a(I1
I4
I16
tp48
a(I0
I5
I16
tp49
a(I1
I-4
I16
tp50
a(I2
I5
I16
tp51
a(I-3
I4
I16
tp52
a(I-2
I-2
I17
tp53
a(I5
I3
I17
tp54
a(I3
I-1
I17
tp55
a(I6
I1
I17
tp56
a(I1
I3
I17
tp57
a(I1
I-5
I17
tp58
a(I2
I6
I17
tp59
a(I0
I-3
I18
tp60
a(I3
I3
I18
tp61
a(I-2
I4
I18
tp62
a(I-1
I5
I18
tp63
a(I-3
I5
I18
tp64
a(I-2
I-3
I18
tp65
a(I6
I2
I18
tp66
a(I1
I-6
I18
tp67
a(I-3
I0
I19
tp68
a(I-6
I3
I19
tp69
a(I3
I2
I19
tp70
a(I4
I0
I19
tp71
a(I-5
I1
I19
tp72
a(I-4
I6
I19
tp73
a(I4
I2
I19
tp74
a(I3
I-2
I19
tp75
a(I6
I0
I19
tp76
a(I1
I6
I19
tp77
a(I0
I-4
I19
tp78
a(I-3
I6
I19
tp79
a(I-1
I-3
I20
tp80
a(I1
I-7
I20
tp81
a(I-4
I3
I20
tp82
a(I2
I-5
I20
tp83
a(I3
I4
I20
tp84
a(I6
I3
I20
tp85
a(I-2
I5
I20
tp86
a(I-3
I-2
I20
tp87
a(I5
I2
I20
tp88
a(I0
I-6
I20
tp89
a(I6
I-1
I20
tp90
a(I1
I7
I20
tp91
a(I-3
I7
I20
tp92
a(I3
I-3
I21
tp93
a(I-4
I4
I21
tp94
a(I-1
I6
I21
tp95
a(I4
I3
I21
tp96
a(I7
I1
I21
tp97
a(I-4
I0
I21
tp98
a(I-6
I4
I21
tp99
a(I-5
I0
I21
tp100
a(I-5
I6
I21
tp101
a(I5
I0
I21
tp102
a(I0
I6
I21
tp103
a(I0
I-8
I21
tp104
a(I2
I-6
I21
tp105
a(I4
I4
I21
tp106
a(I-4
I5
I21
tp107
a(I1
I8
I21
tp108
a(I1
I5
I22
tp109
a(I5
I4
I22
tp110
a(I7
I2
I22
tp111
a(I-3
I-1
I22
tp112
a(I-6
I2
I22
tp113
a(I-5
I2
I22
tp114
a(I4
I-2
I22
tp115
a(I-4
I-2
I22
tp116
a(I8
I-1
I22
tp117
a(I-2
I7
I22
tp118
a(I-6
I5
I22
tp119
a(I-6
I0
I22
tp120
a(I1
I-8
I22
tp121
a(I-2
I-4
I23
tp122
a(I-4
I7
I23
tp123
a(I0
I-7
I23
tp124
a(I-3
I8
I23
tp125
a(I-2
I6
I23
tp126
a(I7
I0
I23
tp127
a(I-5
I4
I23
tp128
a(I5
I-1
I23
tp129
a(I-1
I-8
I23
tp130
a(I5
I-5
I23
tp131
a(I7
I3
I23
tp132
a(I4
I-3
I23
tp133
a(I3
I-6
I24
tp134
a(I7
I-2
I24
tp135
a(I-7
I3
I24
tp136
a(I4
I-1
I24
tp137
a(I-1
I-4
I24
tp138
a(I2
I-7
I24
tp139
a(I-5
I3
I24
tp140
a(I0
I7
I24
tp141
a(I4
I-5
I24
tp142
a(I2
I-9
I24
tp143
a(I0
I8
I24
tp144
a(I6
I4
I24
tp145
a(I-6
I1
I24
tp146
a(I-4
I-1
I24
tp147
a(I-7
I0
I24
tp148
a(I-4
I8
I24
tp149
a(I-1
I-9
I24
tp150
a(I6
I-5
I24
tp151
a(I5
I-2
I24
tp152
a(I-3
I-3
I25
tp153
a(I4
I-4
I25
tp154
a(I-1
I8
I25
tp155
a(I8
I1
I25
tp156
a(I-8
I4
I25
tp157
a(I-5
I-1
I25
tp158
a(I-1
I-7
I25
tp159
a(I5
I5
I25
tp160
a(I8
I2
I25
tp161
a(I-7
I2
I25
tp162
a(I-5
I-2
I25
tp163
a(I1
I-9
I25
tp164
a(I-2
I-5
I25
tp165
a(I-5
I7
I25
tp166
a(I8
I0
I25
tp167
a(I7
I-3
I25
tp168
a(I2
I-10
I25
tp169
a(I7
I4
I25
tp170
a(I-10
I0
I25
tp171
a(I-2
I-9
I25
tp172
a(I5
I-3
I25
tp173
a(I-6
I6
I26
tp174
a(I3
I-5
I26
tp175
a(I7
I-1
I26
tp176
a(I-6
I-1
I26
tp177
a(I9
I-2
I26
tp178
a(I-2
I8
I26
tp179
a(I-3
I-5
I26
tp180
a(I-5
I5
I26
tp181
a(I7
I-4
I26
tp182
a(I2
I-8
I26
tp183
a(I7
I5
I26
tp184
a(I-1
I-10
I26
tp185
a(I7
I-6
I26
tp186
a(I-3
I-4
I26
tp187
a(I-7
I4
I26
tp188
a(I8
I3
I26
tp189
a(I-6
I-2
I26
tp190
a(I-5
I8
I26
tp191
a(I-10
I-1
I26
tp192
a(I-3
I-9
I26
tp193
a(I6
I-3
I26
tp194
a(I0
I-5
I27
tp195
a(I-1
I-6
I27
tp196
a(I-3
I-8
I27
tp197
a(I3
I-7
I27
tp198
a(I-4
I-3
I27
tp199
a(I-1
I7
I27
tp200
a(I-7
I5
I27
tp201
a(I-3
I9
I27
tp202
a(I5
I-4
I27
tp203
a(I3
I-9
I27
tp204
a(I0
I9
I27
tp205
a(I-7
I-1
I27
tp206
a(I6
I-2
I27
tp207
a(I-8
I3
I27
tp208
a(I5
I6
I27
tp209
a(I-6
I7
I27
tp210
a(I1
I-10
I27
tp211
a(I-11
I0
I27
tp212
a(I8
I-2
I27
tp213
a(I7
I-5
I27
tp214
a(I7
I6
I27
tp215
a(I-7
I-2
I27
tp216
a(I-10
I-2
I27
tp217
a(I3
I-4
I28
tp218
a(I3
I6
I28
tp219
a(I2
I10
I28
tp220
a(I-5
I-3
I28
tp221
a(I-7
I6
I28
tp222
a(I-8
I0
I28
tp223
a(I-4
I9
I28
tp224
a(I-1
I9
I28
tp225
a(I9
I1
I28
tp226
a(I9
I2
I28
tp227
a(I-4
I-5
I28
tp228
a(I3
I-8
I28
tp229
a(I8
I5
I28
tp230
a(I0
I-9
I28
tp231
a(I-9
I-1
I28
tp232
a(I-2
I-6
I28
tp233
a(I4
I-6
I28
tp234
a(I-4
I-4
I28
tp235
a(I-2
I9
I28
tp236
a(I3
I-10
I28
tp237
a(I-9
I3
I28
tp238
a(I6
I5
I28
tp239
a(I-12
I0
I28
tp240
a(I1
I9
I29
tp241
a(I5
I-6
I29
tp242
a(I6
I-6
I29
tp243
a(I-8
I5
I29
tp244
a(I-11
I2
I29
tp245
a(I-2
I-10
I29
tp246
a(I-1
I-11
I29
tp247
a(I-3
I-6
I29
tp248
a(I9
I3
I29
tp249
a(I-6
I-4
I29
tp250
a(I-6
I8
I29
tp251
a(I-3
I-7
I29
tp252
a(I-8
I-1
I29
tp253
a(I-8
I2
I29
tp254
a(I-10
I-3
I29
tp255
a(I3
I7
I29
tp256
a(I-5
I-4
I29
tp257
a(I-8
I1
I29
tp258
a(I-5
I9
I29
tp259
a(I9
I5
I29
tp260
a(I-2
I-7
I29
tp261
a(I-3
I10
I29
tp262
a(I9
I-1
I30
tp263
a(I-2
I-8
I30
tp264
a(I-7
I1
I30
tp265
a(I8
I4
I30
tp266
a(I4
I-7
I30
tp267
a(I6
I-4
I30
tp268
a(I6
I6
I30
tp269
a(I-10
I1
I30
tp270
a(I-6
I-3
I30
tp271
a(I-8
I6
I30
tp272
a(I10
I1
I30
tp273
a(I-4
I-7
I30
tp274
a(I4
I-10
I30
tp275
a(I-12
I2
I30
tp276
a(I-10
I-4
I30
tp277
a(I4
I7
I30
tp278
a(I-5
I-5
I30
tp279
a(I-6
I9
I30
tp280
a(I3
I5
I31
tp281
a(I2
I8
I31
tp282
a(I-1
I-5
I31
tp283
a(I9
I0
I31
tp284
a(I-4
I-10
I31
tp285
a(I-11
I1
I31
tp286
a(I8
I-3
I31
tp287
a(I7
I8
I31
tp288
a(I5
I10
I31
tp289
a(I10
I2
I31
tp290
a(I-4
I-6
I31
tp291
a(I8
I6
I31
tp292
a(I-5
I-6
I31
tp293
a(I3
I-11
I31
tp294
a(I-9
I4
I31
tp295
a(I-12
I1
I31
tp296
a(I-9
I5
I31
tp297
a(I-10
I2
I31
tp298
a(I-3
I-10
I31
tp299
a(I-5
I-7
I31
tp300
a(I-9
I1
I31
tp301
a(I-3
I11
I31
tp302
a(I10
I-1
I31
tp303
a(I-9
I6
I31
tp304
a(I10
I0
I31
tp305
a(I4
I-11
I31
tp306
a(I-9
I-4
I31
tp307
a(I2
I-11
I32
tp308
a(I-8
I-3
I32
tp309
a(I0
I-10
I32
tp310
a(I8
I-6
I32
tp311
a(I4
I6
I32
tp312
a(I-7
I7
I32
tp313
a(I1
I-11
I32
tp314
a(I-9
I-2
I32
tp315
a(I-2
I10
I32
tp316
a(I-9
I2
I32
tp317
a(I1
I10
I32
tp318
a(I0
I-11
I32
tp319
a(I12
I3
I32
tp320
a(I-7
I-4
I32
tp321
a(I-9
I0
I32
tp322
a(I-9
I-3
I32
tp323
a(I-7
I-3
I32
tp324
a(I-8
I7
I32
tp325
a(I11
I2
I32
tp326
a(I-10
I-5
I32
tp327
a(I4
I5
I32
tp328
a(I8
I8
I32
tp329
a(I6
I10
I32
tp330
a(I10
I4
I32
tp331
a(I-10
I6
I32
tp332
a(I10
I-2
I32
tp333
a(I-9
I7
I32
tp334
a(I11
I0
I32
tp335
a(I6
I-11
I32
tp336
a(I-8
I-4
I32
tp337
a(I7
I-7
I33
tp338
a(I-11
I-1
I33
tp339
a(I11
I5
I33
tp340
a(I-13
I0
I33
tp341
a(I9
I4
I33
tp342
a(I-11
I-3
I33
tp343
a(I-5
I10
I33
tp344
a(I9
I6
I33
tp345
a(I11
I-1
I33
tp346
a(I6
I7
I33
tp347
a(I11
I1
I33
tp348
a(I5
I7
I33
tp349
a(I2
I7
I33
tp350
a(I7
I7
I33
tp351
a(I10
I3
I33
tp352
a(I3
I-12
I33
tp353
a(I-6
I-7
I33
tp354
a(I5
I-10
I33
tp355
a(I1
I-12
I33
tp356
a(I-1
I10
I33
tp357
a(I12
I4
I33
tp358
a(I11
I3
I33
tp359
a(I9
I8
I33
tp360
a(I6
I11
I33
tp361
a(I-10
I5
I33
tp362
a(I11
I-3
I33
tp363
a(I5
I-11
I33
tp364
a(I8
I-5
I34
tp365
a(I2
I9
I34
tp366
a(I-1
I-12
I34
tp367
a(I-4
I-8
I34
tp368
a(I-14
I2
I34
tp369
a(I-11
I-4
I34
tp370
a(I-7
I9
I34
tp371
a(I4
I11
I34
tp372
a(I-3
I-11
I34
tp373
a(I-3
I12
I34
tp374
a(I2
I-12
I34
tp375
a(I-8
I-2
I34
tp376
a(I9
I-6
I34
tp377
a(I3
I-13
I34
tp378
a(I12
I-2
I34
tp379
a(I-10
I7
I34
tp380
a(I6
I-7
I34
tp381
a(I-11
I-2
I34
tp382
a(I12
I5
I34
tp383
a(I-14
I0
I34
tp384
a(I-12
I-3
I34
tp385
a(I-5
I11
I34
tp386
a(I8
I7
I34
tp387
a(I1
I-13
I34
tp388
a(I13
I4
I34
tp389
a(I9
I11
I34
tp390
a(I-11
I5
I34
tp391
a(I11
I-2
I34
tp392
a(I9
I-3
I35
tp393
a(I3
I9
I35
tp394
a(I4
I-9
I35
tp395
a(I8
I-4
I35
tp396
a(I5
I11
I35
tp397
a(I-13
I1
I35
tp398
a(I-2
I11
I35
tp399
a(I-9
I8
I35
tp400
a(I-11
I-5
I35
tp401
a(I-11
I7
I35
tp402
a(I-8
I-5
I35
tp403
a(I7
I-8
I35
tp404
a(I-12
I-1
I35
tp405
a(I10
I6
I35
tp406
a(I-6
I-6
I35
tp407
a(I5
I-9
I35
tp408
a(I0
I-12
I35
tp409
a(I0
I10
I35
tp410
a(I7
I11
I35
tp411
a(I-13
I2
I35
tp412
a(I10
I-3
I35
tp413
a(I-4
I-11
I35
tp414
a(I-3
I13
I35
tp415
a(I11
I-6
I35
tp416
a(I4
I-13
I35
tp417
a(I-12
I-2
I35
tp418
a(I-14
I-1
I35
tp419
a(I-12
I-4
I35
tp420
a(I0
I-13
I35
tp421
a(I11
I4
I35
tp422
a(I9
I10
I35
tp423
a(I-11
I4
I35
tp424
a(I4
I-8
I36
tp425
a(I2
I11
I36
tp426
a(I-5
I-10
I36
tp427
a(I-7
I8
I36
tp428
a(I-12
I6
I36
tp429
a(I7
I-11
I36
tp430
a(I-13
I-1
I36
tp431
a(I12
I-1
I36
tp432
a(I6
I8
I36
tp433
a(I-1
I11
I36
tp434
a(I10
I8
I36
tp435
a(I6
I12
I36
tp436
a(I-8
I10
I36
tp437
a(I4
I12
I36
tp438
a(I-2
I-11
I36
tp439
a(I-10
I8
I36
tp440
a(I9
I7
I36
tp441
a(I13
I3
I36
tp442
a(I-14
I6
I36
tp443
a(I4
I9
I36
tp444
a(I-12
I-5
I36
tp445
a(I8
I-8
I36
tp446
a(I-6
I-5
I36
tp447
a(I8
I11
I36
tp448
a(I-5
I-11
I36
tp449
a(I-4
I13
I36
tp450
a(I4
I-14
I36
tp451
a(I-15
I-1
I36
tp452
a(I0
I-14
I36
tp453
a(I-4
I-9
I37
tp454
a(I-5
I-9
I37
tp455
a(I3
I8
I37
tp456
a(I7
I9
I37
tp457
a(I4
I10
I37
tp458
a(I-10
I4
I37
tp459
a(I4
I-12
I37
tp460
a(I9
I9
I37
tp461
a(I6
I9
I37
tp462
a(I12
I1
I37
tp463
a(I-7
I-7
I37
tp464
a(I9
I-7
I37
tp465
a(I-14
I1
I37
tp466
a(I1
I-14
I37
tp467
a(I13
I5
I37
tp468
a(I-8
I-6
I37
tp469
a(I7
I-9
I37
tp470
a(I11
I6
I37
tp471
a(I0
I11
I37
tp472
a(I7
I10
I37
tp473
a(I9
I-8
I37
tp474
a(I10
I10
I37
tp475
a(I5
I-8
I37
tp476
a(I3
I11
I37
tp477
a(I-8
I9
I37
tp478
a(I-13
I6
I37
tp479
a(I8
I-11
I37
tp480
a(I-13
I-2
I37
tp481
a(I-1
I12
I37
tp482
a(I10
I9
I37
tp483
a(I-7
I10
I37
tp484
a(I13
I2
I37
tp485
a(I-15
I6
I37
tp486
a(I8
I-7
I37
tp487
a(I-4
I12
I37
tp488
a(I-15
I0
I37
tp489
a(I0
I14
I38
tp490
a(I1
I11
I38
tp491
a(I-6
I10
I38
tp492
a(I-3
I-12
I38
tp493
a(I8
I9
I38
tp494
a(I12
I0
I38
tp495
a(I12
I2
I38
tp496
a(I5
I8
I38
tp497
a(I6
I13
I38
tp498
a(I-5
I-8
I38
tp499
a(I-14
I3
I38
tp500
a(I10
I-6
I38
tp501
a(I2
I-13
I38
tp502
a(I12
I6
I38
tp503
a(I-4
I11
I38
tp504
a(I10
I11
I38
tp505
a(I-9
I9
I38
tp506
a(I-11
I-6
I38
tp507
a(I-12
I7
I38
tp508
a(I10
I-4
I38
tp509
a(I11
I-7
I38
tp510
a(I5
I-13
I38
tp511
a(I-13
I-4
I38
tp512
a(I0
I-15
I38
tp513
a(I8
I10
I38
tp514
a(I7
I-12
I38
tp515
a(I11
I8
I38
tp516
a(I-7
I11
I38
tp517
a(I-11
I8
I38
tp518
a(I-14
I5
I38
tp519
a(I-13
I-5
I38
tp520
a(I-7
I-5
I38
tp521
a(I-2
I12
I38
tp522
a(I-1
I-14
I38
tp523
a(I3
I10
I38
tp524
a(I5
I-12
I38
tp525
a(I13
I1
I38
tp526
a(I-7
I-8
I38
tp527
a(I7
I-10
I38
tp528
a(I0
I12
I38
tp529
a(I3
I12
I38
tp530
a(I6
I-12
I38
tp531
a(I5
I-7
I39
tp532
a(I4
I8
I39
tp533
a(I11
I-4
I39
tp534
a(I9
I-5
I39
tp535
a(I-1
I-13
I39
tp536
a(I3
I-14
I39
tp537
a(I6
I-8
I39
tp538
a(I14
I4
I39
tp539
a(I-12
I5
I39
tp540
a(I10
I7
I39
tp541
a(I-7
I-6
I39
tp542
a(I6
I-9
I39
tp543
a(I11
I-5
I39
tp544
a(I-14
I-2
I39
tp545
a(I-11
I6
I39
tp546
a(I5
I12
I39
tp547
a(I-2
I-12
I39
tp548
a(I-12
I-6
I39
tp549
a(I-5
I13
I39
tp550
a(I-16
I-1
I39
tp551
a(I-15
I1
I39
tp552
a(I13
I6
I39
tp553
a(I-10
I-6
I39
tp554
a(I10
I5
I39
tp555
a(I11
I9
I39
tp556
a(I14
I2
I39
tp557
a(I1
I14
I39
tp558
a(I-4
I-12
I39
tp559
a(I5
I13
I39
tp560
a(I-6
I-8
I39
tp561
a(I-13
I3
I39
tp562
a(I11
I11
I39
tp563
a(I6
I-13
I39
tp564
a(I2
I-15
I39
tp565
a(I-6
I11
I39
tp566
a(I-12
I8
I39
tp567
a(I-2
I-14
I39
tp568
a(I-7
I-9
I39
tp569
a(I5
I14
I39
tp570
a(I-12
I3
I40
tp571
a(I3
I13
I40
tp572
a(I12
I-3
I40
tp573
a(I9
I13
I40
tp574
a(I-12
I4
I40
tp575
a(I-6
I-10
I40
tp576
a(I14
I-1
I40
tp577
a(I4
I13
I40
tp578
a(I-4
I14
I40
tp579
a(I10
I-8
I40
tp580
a(I-8
I8
I40
tp581
a(I8
I-10
I40
tp582
a(I-1
I13
I40
tp583
a(I-15
I7
I40
tp584
a(I-3
I-13
I40
tp585
a(I-12
I-7
I40
tp586
a(I-15
I-4
I40
tp587
a(I-14
I4
I40
tp588
a(I-2
I13
I40
tp589
a(I14
I1
I40
tp590
a(I14
I3
I40
tp591
a(I6
I-10
I40
tp592
a(I11
I10
I40
tp593
a(I2
I14
I40
tp594
a(I-5
I-12
I40
tp595
a(I12
I11
I40
tp596
a(I6
I-14
I40
tp597
a(I3
I-15
I40
tp598
a(I-14
I8
I40
tp599
a(I5
I9
I41
tp600
a(I-10
I3
I41
tp601
a(I-13
I-3
I41
tp602
a(I-9
I-5
I41
tp603
a(I2
I12
I41
tp604
a(I12
I-9
I41
tp605
a(I-8
I11
I41
tp606
a(I-8
I-7
I41
tp607
a(I-5
I12
I41
tp608
a(I1
I12
I41
tp609
a(I-15
I3
I41
tp610
a(I10
I-7
I41
tp611
a(I2
I-14
I41
tp612
a(I-15
I5
I41
tp613
a(I-8
I-8
I41
tp614
a(I-6
I13
I41
tp615
a(I-16
I0
I41
tp616
a(I-8
I-9
I41
tp617
a(I9
I12
I41
tp618
a(I-13
I4
I41
tp619
a(I13
I-1
I41
tp620
a(I-3
I14
I41
tp621
a(I11
I-8
I41
tp622
a(I8
I-9
I41
tp623
a(I-3
I-14
I41
tp624
a(I-12
I-8
I41
tp625
a(I-15
I-5
I41
tp626
a(I12
I10
I41
tp627
a(I7
I-14
I41
tp628
a(I4
I-15
I41
tp629
a(I-13
I8
I41
tp630
a(I-15
I2
I42
tp631
a(I-10
I9
I42
tp632
a(I5
I-14
I42
tp633
a(I9
I-11
I42
tp634
a(I-5
I-13
I42
tp635
a(I13
I0
I42
tp636
a(I6
I14
I42
tp637
a(I9
I-4
I42
tp638
a(I-1
I-15
I42
tp639
a(I12
I8
I42
tp640
a(I-11
I9
I42
tp641
a(I-13
I5
I42
tp642
a(I14
I5
I42
tp643
a(I-13
I-6
I42
tp644
a(I-16
I-2
I42
tp645
a(I-12
I9
I42
tp646
a(I-2
I-15
I42
tp647
a(I-7
I-10
I42
tp648
a(I14
I-2
I42
tp649
a(I-4
I15
I42
tp650
a(I0
I13
I42
tp651
a(I-15
I8
I42
tp652
a(I-11
I-7
I42
tp653
a(I-16
I-4
I42
tp654
a(I15
I4
I42
tp655
a(I-14
I9
I42
tp656
a(I12
I-10
I42
tp657
a(I-16
I5
I42
tp658
a(I-6
I14
I42
tp659
a(I-3
I15
I42
tp660
a(I-3
I-15
I42
tp661
a(I-12
I-9
I42
tp662
a(I-15
I-6
I42
tp663
a(I7
I-15
I42
tp664
a(I13
I-2
I43
tp665
a(I7
I12
I43
tp666
a(I-14
I7
I43
tp667
a(I-13
I7
I43
tp668
a(I10
I-5
I43
tp669
a(I8
I-13
I43
tp670
a(I11
I7
I43
tp671
a(I-5
I14
I43
tp672
a(I-16
I1
I43
tp673
a(I14
I6
I43
tp674
a(I2
I-17
I43
tp675
a(I-2
I-13
I43
tp676
a(I15
I-1
I43
tp677
a(I-4
I-13
I43
tp678
a(I3
I14
I43
tp679
a(I-9
I-7
I43
tp680
a(I-9
I-9
I43
tp681
a(I10
I12
I43
tp682
a(I-14
I-8
I43
tp683
a(I-14
I-5
I43
tp684
a(I9
I-10
I43
tp685
a(I-5
I-14
I43
tp686
a(I12
I9
I43
tp687
a(I-13
I-7
I43
tp688
a(I-17
I-2
I43
tp689
a(I-8
I-10
I43
tp690
a(I-10
I-7
I43
tp691
a(I-16
I-5
I43
tp692
a(I16
I4
I43
tp693
a(I-11
I-9
I43
tp694
a(I-16
I-6
I43
tp695
a(I9
I-14
I43
tp696
a(I-4
I10
I44
tp697
a(I-9
I10
I44
tp698
a(I1
I-15
I44
tp699
a(I9
I-9
I44
tp700
a(I8
I-12
I44
tp701
a(I-1
I14
I44
tp702
a(I-16
I6
I44
tp703
a(I-7
I12
I44
tp704
a(I-13
I-8
I44
tp705
a(I7
I-13
I44
tp706
a(I-11
I3
I44
tp707
a(I13
I-3
I44
tp708
a(I10
I-9
I44
tp709
a(I-15
I-3
I44
tp710
a(I13
I-9
I44
tp711
a(I-10
I11
I44
tp712
a(I-15
I4
I44
tp713
a(I-9
I-8
I44
tp714
a(I8
I12
I44
tp715
a(I12
I-8
I44
tp716
a(I5
I-15
I44
tp717
a(I10
I-11
I44
tp718
a(I-6
I-13
I44
tp719
a(I6
I15
I44
tp720
a(I-14
I11
I44
tp721
a(I-4
I16
I44
tp722
a(I-4
I-15
I44
tp723
a(I-16
I-7
I44
tp724
a(I7
I-16
I44
tp725
a(I14
I7
I44
tp726
a(I2
I-18
I44
tp727
a(I-10
I-9
I44
tp728
a(I11
I12
I44
tp729
a(I-14
I-4
I44
tp730
a(I-14
I-7
I44
tp731
a(I17
I4
I44
tp732
a(I-17
I-6
I44
tp733
a(I9
I-15
I44
tp734
a(I15
I5
I45
tp735
a(I-16
I-3
I45
tp736
a(I1
I15
I45
tp737
a(I-6
I12
I45
tp738
a(I12
I-4
I45
tp739
a(I-16
I7
I45
tp740
a(I14
I11
I45
tp741
a(I-7
I14
I45
tp742
a(I-17
I0
I45
tp743
a(I14
I10
I45
tp744
a(I9
I-12
I45
tp745
a(I-13
I10
I45
tp746
a(I-14
I-6
I45
tp747
a(I-15
I-2
I45
tp748
a(I-2
I-16
I45
tp749
a(I-7
I-11
I45
tp750
a(I15
I-2
I45
tp751
a(I1
I13
I45
tp752
a(I-15
I9
I45
tp753
a(I15
I3
I45
tp754
a(I13
I-10
I45
tp755
a(I-5
I-15
I45
tp756
a(I-5
I15
I45
tp757
a(I-16
I2
I45
tp758
a(I16
I-1
I45
tp759
a(I-9
I-6
I45
tp760
a(I-4
I-14
I45
tp761
a(I18
I5
I45
tp762
a(I9
I-13
I45
tp763
a(I0
I-16
I45
tp764
a(I-1
I15
I45
tp765
a(I14
I-8
I45
tp766
a(I-10
I10
I45
tp767
a(I10
I-12
I45
tp768
a(I-13
I11
I45
tp769
a(I-3
I16
I45
tp770
a(I-15
I-7
I45
tp771
a(I6
I-16
I45
tp772
a(I15
I7
I45
tp773
a(I9
I-17
I45
tp774
a(I0
I15
I46
tp775
a(I-16
I4
I46
tp776
a(I13
I7
I46
tp777
a(I4
I14
I46
tp778
a(I8
I13
I46
tp779
a(I-6
I-11
I46
tp780
a(I11
I-9
I46
tp781
a(I-11
I-8
I46
tp782
a(I13
I10
I46
tp783
a(I13
I8
I46
tp784
a(I-12
I10
I46
tp785
a(I-13
I9
I46
tp786
a(I-6
I15
I46
tp787
a(I-13
I-9
I46
tp788
a(I7
I13
I46
tp789
a(I3
I-17
I46
tp790
a(I-18
I-2
I46
tp791
a(I-9
I11
I46
tp792
a(I-8
I12
I46
tp793
a(I-14
I-3
I46
tp794
a(I13
I-8
I46
tp795
a(I7
I15
I46
tp796
a(I-15
I11
I46
tp797
a(I-17
I-7
I46
tp798
a(I3
I-18
I46
tp799
a(I14
I12
I46
tp800
a(I18
I4
I46
tp801
a(I9
I-16
I46
tp802
a(I16
I5
I46
tp803
a(I15
I11
I46
tp804
a(I-18
I0
I46
tp805
a(I2
I13
I46
tp806
a(I17
I-1
I46
tp807
a(I0
I-17
I46
tp808
a(I-11
I11
I46
tp809
a(I12
I7
I47
tp810
a(I-6
I-9
I47
tp811
a(I9
I14
I47
tp812
a(I-17
I6
I47
tp813
a(I-6
I-12
I47
tp814
a(I3
I-16
I47
tp815
a(I-9
I12
I47
tp816
a(I15
I0
I47
tp817
a(I-17
I-4
I47
tp818
a(I8
I-14
I47
tp819
a(I15
I6
I47
tp820
a(I3
I16
I47
tp821
a(I-17
I-3
I47
tp822
a(I-10
I-8
I47
tp823
a(I14
I-6
I47
tp824
a(I5
I-16
I47
tp825
a(I-5
I16
I47
tp826
a(I-16
I-8
I47
tp827
a(I1
I-18
I47
tp828
a(I11
I13
I47
tp829
a(I2
I15
I47
tp830
a(I14
I-5
I47
tp831
a(I-17
I1
I47
tp832
a(I13
I9
I47
tp833
a(I-1
I-16
I47
tp834
a(I14
I-10
I47
tp835
a(I-5
I-16
I47
tp836
a(I19
I5
I47
tp837
a(I-11
I10
I47
tp838
a(I11
I-12
I47
tp839
a(I6
I-15
I47
tp840
a(I16
I7
I47
tp841
a(I10
I-17
I47
tp842
a(I0
I16
I47
tp843
a(I-17
I4
I47
tp844
a(I4
I15
I47
tp845
a(I-11
I12
I47
tp846
a(I-15
I12
I47
tp847
a(I-17
I-8
I47
tp848
a(I-18
I-1
I47
tp849
a(I0
I-18
I47
tp850
a(I-12
I11
I47
tp851
a(I10
I14
I48
tp852
a(I12
I-6
I48
tp853
a(I10
I13
I48
tp854
a(I14
I0
I48
tp855
a(I12
I12
I48
tp856
a(I-9
I13
I48
tp857
a(I-14
I10
I48
tp858
a(I-3
I-16
I48
tp859
a(I-10
I-10
I48
tp860
a(I-17
I-5
I48
tp861
a(I-11
I-10
I48
tp862
a(I-17
I7
I48
tp863
a(I-7
I-13
I48
tp864
a(I5
I15
I48
tp865
a(I11
I-15
I48
tp866
a(I-7
I15
I48
tp867
a(I14
I9
I48
tp868
a(I-15
I10
I48
tp869
a(I-6
I-15
I48
tp870
a(I16
I-2
I48
tp871
a(I14
I-7
I48
tp872
a(I-13
I12
I48
tp873
a(I-15
I-9
I48
tp874
a(I6
I-17
I48
tp875
a(I9
I-19
I48
tp876
a(I13
I-7
I48
tp877
a(I-16
I11
I48
tp878
a(I15
I12
I48
tp879
a(I17
I5
I48
tp880
a(I18
I-1
I48
tp881
a(I-1
I-17
I48
tp882
a(I-17
I5
I48
tp883
a(I-6
I-14
I48
tp884
a(I4
I-16
I48
tp885
a(I15
I1
I48
tp886
a(I15
I-6
I48
tp887
a(I-15
I-8
I48
tp888
a(I3
I-22
I48
tp889
a(I13
I-5
I48
tp890
a(I-18
I1
I48
tp891
a(I14
I-9
I48
tp892
a(I11
I-11
I48
tp893
a(I16
I6
I48
tp894
a(I1
I16
I48
tp895
a(I-17
I3
I48
tp896
a(I-19
I-1
I48
tp897
a(I-1
I-18
I48
tp898
a(I15
I-3
I49
tp899
a(I10
I-14
I49
tp900
a(I1
I-16
I49
tp901
a(I-10
I12
I49
tp902
a(I15
I9
I49
tp903
a(I-16
I3
I49
tp904
a(I-2
I15
I49
tp905
a(I8
I-17
I49
tp906
a(I3
I17
I49
tp907
a(I4
I-17
I49
tp908
a(I-18
I-3
I49
tp909
a(I6
I16
I49
tp910
a(I3
I-20
I49
tp911
a(I12
I13
I49
tp912
a(I16
I0
I49
tp913
a(I-6
I16
I49
tp914
a(I2
I-19
I49
tp915
a(I-17
I2
I49
tp916
a(I-9
I-16
I49
tp917
a(I19
I6
I49
tp918
a(I10
I-13
I49
tp919
a(I0
I17
I49
tp920
a(I3
I15
I49
tp921
a(I-15
I13
I49
tp922
a(I-17
I-9
I49
tp923
a(I11
I14
I49
tp924
a(I10
I15
I49
tp925
a(I-10
I13
I49
tp926
a(I-11
I-11
I49
tp927
a(I14
I8
I49
tp928
a(I-6
I-16
I49
tp929
a(I17
I-3
I49
tp930
a(I-13
I13
I49
tp931
a(I6
I-18
I49
tp932
a(I12
I-7
I49
tp933
a(I-16
I10
I49
tp934
a(I17
I6
I49
tp935
a(I16
I1
I49
tp936
a(I15
I-5
I49
tp937
a(I-18
I2
I49
tp938
a(I1
I17
I49
tp939
asS'pop'
p940
(dp941
I0
I1
sI1
I1
sI2
I2
sI3
I3
sI4
I3
sI5
I4
sI6
I7
sI7
I7
sI8
I9
sI9
I11
sI10
I15
sI11
I21
sI12
I24
sI13
I29
sI14
I35
sI15
I41
sI16
I48
sI17
I55
sI18
I63
sI19
I75
sI20
I88
sI21
I104
sI22
I117
sI23
I129
sI24
I148
sI25
I169
sI26
I190
sI27
I213
sI28
I236
sI29
I258
sI30
I276
sI31
I303
sI32
I333
sI33
I360
sI34
I388
sI35
I420
sI36
I449
sI37
I485
sI38
I527
sI39
I566
sI40
I595
sI41
I626
sI42
I660
sI43
I692
sI44
I730
sI45
I770
sI46
I805
sI47
I847
sI48
I894
sI49
I935
ssS'params'
p942
(F3.0
I50
tp943
sS'max_r'
p944
(dp945
I0
F0.0
sI1
I0
sI2
F0.5
sI3
F0.7453559924999299
sI4
I0
sI5
F1.118033988749895
sI6
F1.5971914124998499
sI7
I0
sI8
F1.543604887716645
sI9
F1.698321972024491
sI10
F2.337139752394414
sI11
F3.053936903775993
sI12
F3.0917677431815247
sI13
F4.34044661449919
sI14
F4.126272221870437
sI15
F4.8819496597841185
sI16
F5.223145603944045
sI17
F5.88521048725862
sI18
F6.88502927502228
sI19
F6.632941361953317
sI20
F7.943320001399169
sI21
F9.072526844446108
sI22
F9.093153515966177
sI23
F9.053161767941333
sI24
F9.874453873443242
sI25
F10.63733029337983
sI26
F10.400751091565361
sI27
F11.11026689027596
sI28
F12.027848950989515
sI29
F11.234390983617674
sI30
F11.894972232806584
sI31
F11.926903706909705
sI32
F12.791975752504445
sI33
F12.954195778650442
sI34
F14.144482290438699
sI35
F13.881280115382852
sI36
F14.972623301033131
sI37
F15.940517021080328
sI38
F15.366285886755039
sI39
F16.0254424596731
sI40
F16.38241981877849
sI41
F16.02468599692372
sI42
F16.954305926219835
sI43
F17.32900841008688
sI44
F18.2006667726807
sI45
F19.456332170480703
sI46
F18.820053050432943
sI47
F20.023675472156782
sI48
F22.26275565662082
sI49
F20.322389275083697
ssS'gens'
p946
(lp947
(lp948
g5
aa(lp949
a(lp950
g6
aa(lp951
g7
aa(lp952
a(lp953
g8
aa(lp954
g9
ag10
ag11
aa(lp955
a(lp956
g12
ag13
aa(lp957
g14
ag15
aa(lp958
g16
ag17
ag18
ag19
aa(lp959
g20
ag21
ag22
ag23
ag24
ag25
aa(lp960
g26
ag27
ag28
aa(lp961
g29
ag30
ag31
ag32
ag33
aa(lp962
g34
ag35
ag36
ag37
ag38
ag39
aa(lp963
g40
ag41
ag42
ag43
ag44
ag45
aa(lp964
g46
ag47
ag48
ag49
ag50
ag51
ag52
aa(lp965
g53
ag54
ag55
ag56
ag57
ag58
ag59
aa(lp966
g60
ag61
ag62
ag63
ag64
ag65
ag66
ag67
aa(lp967
g68
ag69
ag70
ag71
ag72
ag73
ag74
ag75
ag76
ag77
ag78
ag79
aa(lp968
g80
ag81
ag82
ag83
ag84
ag85
ag86
ag87
ag88
ag89
ag90
ag91
ag92
aa(lp969
g93
ag94
ag95
ag96
ag97
ag98
ag99
ag100
ag101
ag102
ag103
ag104
ag105
ag106
ag107
ag108
aa(lp970
g109
ag110
ag111
ag112
ag113
ag114
ag115
ag116
ag117
ag118
ag119
ag120
ag121
aa(lp971
g122
ag123
ag124
ag125
ag126
ag127
ag128
ag129
ag130
ag131
ag132
ag133
aa(lp972
g134
ag135
ag136
ag137
ag138
ag139
ag140
ag141
ag142
ag143
ag144
ag145
ag146
ag147
ag148
ag149
ag150
ag151
ag152
aa(lp973
g153
ag154
ag155
ag156
ag157
ag158
ag159
ag160
ag161
ag162
ag163
ag164
ag165
ag166
ag167
ag168
ag169
ag170
ag171
ag172
ag173
aa(lp974
g174
ag175
ag176
ag177
ag178
ag179
ag180
ag181
ag182
ag183
ag184
ag185
ag186
ag187
ag188
ag189
ag190
ag191
ag192
ag193
ag194
aa(lp975
g195
ag196
ag197
ag198
ag199
ag200
ag201
ag202
ag203
ag204
ag205
ag206
ag207
ag208
ag209
ag210
ag211
ag212
ag213
ag214
ag215
ag216
ag217
aa(lp976
g218
ag219
ag220
ag221
ag222
ag223
ag224
ag225
ag226
ag227
ag228
ag229
ag230
ag231
ag232
ag233
ag234
ag235
ag236
ag237
ag238
ag239
ag240
aa(lp977
g241
ag242
ag243
ag244
ag245
ag246
ag247
ag248
ag249
ag250
ag251
ag252
ag253
ag254
ag255
ag256
ag257
ag258
ag259
ag260
ag261
ag262
aa(lp978
g263
ag264
ag265
ag266
ag267
ag268
ag269
ag270
ag271
ag272
ag273
ag274
ag275
ag276
ag277
ag278
ag279
ag280
aa(lp979
g281
ag282
ag283
ag284
ag285
ag286
ag287
ag288
ag289
ag290
ag291
ag292
ag293
ag294
ag295
ag296
ag297
ag298
ag299
ag300
ag301
ag302
ag303
ag304
ag305
ag306
ag307
aa(lp980
g308
ag309
ag310
ag311
ag312
ag313
ag314
ag315
ag316
ag317
ag318
ag319
ag320
ag321
ag322
ag323
ag324
ag325
ag326
ag327
ag328
ag329
ag330
ag331
ag332
ag333
ag334
ag335
ag336
ag337
aa(lp981
g338
ag339
ag340
ag341
ag342
ag343
ag344
ag345
ag346
ag347
ag348
ag349
ag350
ag351
ag352
ag353
ag354
ag355
ag356
ag357
ag358
ag359
ag360
ag361
ag362
ag363
ag364
aa(lp982
g365
ag366
ag367
ag368
ag369
ag370
ag371
ag372
ag373
ag374
ag375
ag376
ag377
ag378
ag379
ag380
ag381
ag382
ag383
ag384
ag385
ag386
ag387
ag388
ag389
ag390
ag391
ag392
aa(lp983
g393
ag394
ag395
ag396
ag397
ag398
ag399
ag400
ag401
ag402
ag403
ag404
ag405
ag406
ag407
ag408
ag409
ag410
ag411
ag412
ag413
ag414
ag415
ag416
ag417
ag418
ag419
ag420
ag421
ag422
ag423
ag424
aa(lp984
g425
ag426
ag427
ag428
ag429
ag430
ag431
ag432
ag433
ag434
ag435
ag436
ag437
ag438
ag439
ag440
ag441
ag442
ag443
ag444
ag445
ag446
ag447
ag448
ag449
ag450
ag451
ag452
ag453
aa(lp985
g454
ag455
ag456
ag457
ag458
ag459
ag460
ag461
ag462
ag463
ag464
ag465
ag466
ag467
ag468
ag469
ag470
ag471
ag472
ag473
ag474
ag475
ag476
ag477
ag478
ag479
ag480
ag481
ag482
ag483
ag484
ag485
ag486
ag487
ag488
ag489
aa(lp986
g490
ag491
ag492
ag493
ag494
ag495
ag496
ag497
ag498
ag499
ag500
ag501
ag502
ag503
ag504
ag505
ag506
ag507
ag508
ag509
ag510
ag511
ag512
ag513
ag514
ag515
ag516
ag517
ag518
ag519
ag520
ag521
ag522
ag523
ag524
ag525
ag526
ag527
ag528
ag529
ag530
ag531
aa(lp987
g532
ag533
ag534
ag535
ag536
ag537
ag538
ag539
ag540
ag541
ag542
ag543
ag544
ag545
ag546
ag547
ag548
ag549
ag550
ag551
ag552
ag553
ag554
ag555
ag556
ag557
ag558
ag559
ag560
ag561
ag562
ag563
ag564
ag565
ag566
ag567
ag568
ag569
ag570
aa(lp988
g571
ag572
ag573
ag574
ag575
ag576
ag577
ag578
ag579
ag580
ag581
ag582
ag583
ag584
ag585
ag586
ag587
ag588
ag589
ag590
ag591
ag592
ag593
ag594
ag595
ag596
ag597
ag598
ag599
aa(lp989
g600
ag601
ag602
ag603
ag604
ag605
ag606
ag607
ag608
ag609
ag610
ag611
ag612
ag613
ag614
ag615
ag616
ag617
ag618
ag619
ag620
ag621
ag622
ag623
ag624
ag625
ag626
ag627
ag628
ag629
ag630
aa(lp990
g631
ag632
ag633
ag634
ag635
ag636
ag637
ag638
ag639
ag640
ag641
ag642
ag643
ag644
ag645
ag646
ag647
ag648
ag649
ag650
ag651
ag652
ag653
ag654
ag655
ag656
ag657
ag658
ag659
ag660
ag661
ag662
ag663
ag664
aa(lp991
g665
ag666
ag667
ag668
ag669
ag670
ag671
ag672
ag673
ag674
ag675
ag676
ag677
ag678
ag679
ag680
ag681
ag682
ag683
ag684
ag685
ag686
ag687
ag688
ag689
ag690
ag691
ag692
ag693
ag694
ag695
ag696
aa(lp992
g697
ag698
ag699
ag700
ag701
ag702
ag703
ag704
ag705
ag706
ag707
ag708
ag709
ag710
ag711
ag712
ag713
ag714
ag715
ag716
ag717
ag718
ag719
ag720
ag721
ag722
ag723
ag724
ag725
ag726
ag727
ag728
ag729
ag730
ag731
ag732
ag733
ag734
aa(lp993
g735
ag736
ag737
ag738
ag739
ag740
ag741
ag742
ag743
ag744
ag745
ag746
ag747
ag748
ag749
ag750
ag751
ag752
ag753
ag754
ag755
ag756
ag757
ag758
ag759
ag760
ag761
ag762
ag763
ag764
ag765
ag766
ag767
ag768
ag769
ag770
ag771
ag772
ag773
ag774
aa(lp994
g775
ag776
ag777
ag778
ag779
ag780
ag781
ag782
ag783
ag784
ag785
ag786
ag787
ag788
ag789
ag790
ag791
ag792
ag793
ag794
ag795
ag796
ag797
ag798
ag799
ag800
ag801
ag802
ag803
ag804
ag805
ag806
ag807
ag808
ag809
aa(lp995
g810
ag811
ag812
ag813
ag814
ag815
ag816
ag817
ag818
ag819
ag820
ag821
ag822
ag823
ag824
ag825
ag826
ag827
ag828
ag829
ag830
ag831
ag832
ag833
ag834
ag835
ag836
ag837
ag838
ag839
ag840
ag841
ag842
ag843
ag844
ag845
ag846
ag847
ag848
ag849
ag850
ag851
aa(lp996
g852
ag853
ag854
ag855
ag856
ag857
ag858
ag859
ag860
ag861
ag862
ag863
ag864
ag865
ag866
ag867
ag868
ag869
ag870
ag871
ag872
ag873
ag874
ag875
ag876
ag877
ag878
ag879
ag880
ag881
ag882
ag883
ag884
ag885
ag886
ag887
ag888
ag889
ag890
ag891
ag892
ag893
ag894
ag895
ag896
ag897
ag898
aa(lp997
g899
ag900
ag901
ag902
ag903
ag904
ag905
ag906
ag907
ag908
ag909
ag910
ag911
ag912
ag913
ag914
ag915
ag916
ag917
ag918
ag919
ag920
ag921
ag922
ag923
ag924
ag925
ag926
ag927
ag928
ag929
ag930
ag931
ag932
ag933
ag934
ag935
ag936
ag937
ag938
ag939
aasS'mean_r'
p998
(dp999
I0
F0.0
sI1
I0
sI2
F0.5
sI3
F0.7453559924999299
sI4
I0
sI5
F1.118033988749895
sI6
F1.3424586509449143
sI7
I0
sI8
F1.4052332355800659
sI9
F1.642990494947381
sI10
F2.100855790062814
sI11
F2.51646188659558
sI12
F2.7486392364190437
sI13
F3.1167891269250996
sI14
F3.5068613309353704
sI15
F3.8048029956574116
sI16
F4.190376668418273
sI17
F4.443159524453112
sI18
F4.75862842443337
sI19
F4.864453494037632
sI20
F5.613748289350758
sI21
F5.857215640681144
sI22
F6.086621435802309
sI23
F6.768264083912673
sI24
F6.928874127255557
sI25
F7.573207912100512
sI26
F7.9506130802016495
sI27
F8.120662269169024
sI28
F8.38681230402785
sI29
F8.839249161699216
sI30
F8.970597041327137
sI31
F9.658696185758789
sI32
F10.069815784798982
sI33
F10.915838874319043
sI34
F11.71503543825113
sI35
F11.627760863550687
sI36
F12.213022566682026
sI37
F12.07452938416973
sI38
F12.614151558300897
sI39
F12.865419403186502
sI40
F13.840894363028848
sI41
F13.531868902492473
sI42
F14.727781312399273
sI43
F14.632560061303316
sI44
F15.094883053326857
sI45
F15.744311343728095
sI46
F16.055609895762835
sI47
F16.4112025689228
sI48
F16.885942093541633
sI49
F17.304072836621714
ssS'attr'
p1000
(dp1001
(I7
I3
tp1002
I0
s(I17
I-1
tp1003
I0
s(I-7
I-3
tp1004
I0
s(I-15
I-2
tp1005
I0
s(I-6
I10
tp1006
I0
s(I-6
I-11
tp1007
I0
s(I-7
I2
tp1008
I0
s(I-18
I1
tp1009
I0
s(I8
I-8
tp1010
I0
s(I7
I-15
tp1011
I0
s(I-17
I4
tp1012
I0
s(I2
I-12
tp1013
I0
s(I8
I5
tp1014
I0
s(I-6
I12
tp1015
I0
s(I3
I-17
tp1016
I0
s(I-9
I-1
tp1017
I0
s(I-5
I1
tp1018
I0
s(I2
I-14
tp1019
I0
s(I-10
I-5
tp1020
I0
s(I4
I-14
tp1021
I0
s(I-8
I-4
tp1022
I0
s(I-16
I-5
tp1023
I0
s(I3
I-11
tp1024
I0
s(I0
I17
tp1025
I0
s(I14
I1
tp1026
I0
s(I-16
I0
tp1027
I0
s(I-13
I13
tp1028
I0
s(I15
I4
tp1029
I0
s(I-15
I13
tp1030
I0
s(I-9
I-8
tp1031
I0
s(I12
I-10
tp1032
I0
s(I14
I-10
tp1033
I0
s(I9
I-19
tp1034
I0
s(I3
I2
tp1035
I0
s(I11
I-15
tp1036
I0
s(I3
I6
tp1037
I0
s(I-2
I12
tp1038
I0
s(I4
I5
tp1039
I0
s(I-10
I12
tp1040
I0
s(I-2
I-1
tp1041
I0
s(I15
I5
tp1042
I0
s(I-10
I-7
tp1043
I0
s(I-9
I9
tp1044
I0
s(I-12
I5
tp1045
I0
s(I-4
I4
tp1046
I0
s(I8
I-14
tp1047
I0
s(I-7
I0
tp1048
I0
s(I-11
I-2
tp1049
I0
s(I-1
I10
tp1050
I0
s(I8
I12
tp1051
I0
s(I-4
I-7
tp1052
I0
s(I-12
I-8
tp1053
I0
s(I9
I9
tp1054
I0
s(I-5
I6
tp1055
I0
s(I10
I-4
tp1056
I0
s(I-2
I3
tp1057
I0
s(I10
I14
tp1058
I0
s(I-4
I1
tp1059
I0
s(I-3
I9
tp1060
I0
s(I-3
I4
tp1061
I0
s(I14
I8
tp1062
I0
s(I0
I-9
tp1063
I0
s(I12
I8
tp1064
I0
s(I-15
I6
tp1065
I0
s(I-6
I-8
tp1066
I0
s(I0
I14
tp1067
I0
s(I-14
I5
tp1068
I0
s(I12
I-3
tp1069
I0
s(I5
I4
tp1070
I0
s(I-11
I8
tp1071
I0
s(I-13
I-5
tp1072
I0
s(I4
I12
tp1073
I0
s(I-10
I7
tp1074
I0
s(I2
I12
tp1075
I0
s(I-16
I2
tp1076
I0
s(I5
I1
tp1077
I0
s(I-9
I6
tp1078
I0
s(I3
I17
tp1079
I0
s(I-1
I14
tp1080
I0
s(I6
I14
tp1081
I0
s(I8
I-7
tp1082
I0
s(I2
I11
tp1083
I0
s(I-17
I-8
tp1084
I0
s(I7
I15
tp1085
I0
s(I18
I5
tp1086
I0
s(I-15
I-8
tp1087
I0
s(I6
I-16
tp1088
I0
s(I-6
I-9
tp1089
I0
s(I-1
I11
tp1090
I0
s(I-8
I2
tp1091
I0
s(I-7
I3
tp1092
I0
s(I10
I9
tp1093
I0
s(I11
I4
tp1094
I0
s(I12
I-1
tp1095
I0
s(I12
I7
tp1096
I0
s(I2
I-2
tp1097
I0
s(I9
I0
tp1098
I0
s(I13
I6
tp1099
I0
s(I13
I-1
tp1100
I0
s(I5
I15
tp1101
I0
s(I0
I5
tp1102
I0
s(I1
I0
tp1103
I0
s(I-13
I1
tp1104
I0
s(I4
I11
tp1105
I0
s(I-1
I-5
tp1106
I0
s(I-11
I-11
tp1107
I0
s(I-13
I11
tp1108
I0
s(I5
I10
tp1109
I0
s(I3
I4
tp1110
I0
s(I-6
I-3
tp1111
I0
s(I-11
I-5
tp1112
I0
s(I-1
I-8
tp1113
I0
s(I7
I4
tp1114
I0
s(I10
I7
tp1115
I0
s(I-8
I-9
tp1116
I0
s(I-4
I10
tp1117
I0
s(I-8
I9
tp1118
I0
s(I3
I-2
tp1119
I0
s(I15
I0
tp1120
I0
s(I-7
I4
tp1121
I0
s(I5
I9
tp1122
I0
s(I4
I-17
tp1123
I0
s(I8
I0
tp1124
I0
s(I-6
I3
tp1125
I0
s(I-13
I-3
tp1126
I0
s(I-12
I-2
tp1127
I0
s(I-5
I10
tp1128
I0
s(I-10
I2
tp1129
I0
s(I2
I-7
tp1130
I0
s(I16
I-1
tp1131
I0
s(I4
I-11
tp1132
I0
s(I-3
I11
tp1133
I0
s(I1
I-1
tp1134
I0
s(I0
I-5
tp1135
I0
s(I-13
I6
tp1136
I0
s(I-15
I10
tp1137
I0
s(I-6
I-6
tp1138
I0
s(I-12
I1
tp1139
I0
s(I-14
I-3
tp1140
I0
s(I7
I-9
tp1141
I0
s(I-5
I-8
tp1142
I0
s(I11
I-6
tp1143
I0
s(I0
I-16
tp1144
I0
s(I-9
I11
tp1145
I0
s(I10
I-9
tp1146
I0
s(I-10
I-1
tp1147
I0
s(I-8
I-1
tp1148
I0
s(I12
I-6
tp1149
I0
s(I-4
I-14
tp1150
I0
s(I-16
I7
tp1151
I0
s(I7
I7
tp1152
I0
s(I-15
I-6
tp1153
I0
s(I-17
I6
tp1154
I0
s(I6
I-14
tp1155
I0
s(I8
I7
tp1156
I0
s(I2
I-8
tp1157
I0
s(I8
I-12
tp1158
I0
s(I9
I6
tp1159
I0
s(I5
I-3
tp1160
I0
s(I-1
I12
tp1161
I0
s(I10
I5
tp1162
I0
s(I4
I-4
tp1163
I0
s(I1
I-9
tp1164
I0
s(I11
I8
tp1165
I0
s(I3
I-9
tp1166
I0
s(I6
I-2
tp1167
I0
s(I-14
I-5
tp1168
I0
s(I0
I-14
tp1169
I0
s(I-10
I-10
tp1170
I0
s(I9
I2
tp1171
I0
s(I15
I6
tp1172
I0
s(I-15
I3
tp1173
I0
s(I-12
I8
tp1174
I0
s(I0
I9
tp1175
I0
s(I-14
I8
tp1176
I0
s(I-14
I10
tp1177
I0
s(I-3
I-6
tp1178
I0
s(I4
I7
tp1179
I0
s(I10
I-2
tp1180
I0
s(I4
I10
tp1181
I0
s(I5
I6
tp1182
I0
s(I9
I-11
tp1183
I0
s(I-3
I-4
tp1184
I0
s(I-2
I8
tp1185
I0
s(I-2
I-6
tp1186
I0
s(I3
I-1
tp1187
I0
s(I4
I-16
tp1188
I0
s(I11
I-5
tp1189
I0
s(I13
I-5
tp1190
I0
s(I-5
I-11
tp1191
I0
s(I15
I-2
tp1192
I0
s(I10
I12
tp1193
I0
s(I4
I-5
tp1194
I0
s(I3
I-18
tp1195
I0
s(I-4
I-3
tp1196
I0
s(I11
I1
tp1197
I0
s(I3
I-4
tp1198
I0
s(I12
I10
tp1199
I0
s(I-15
I4
tp1200
I0
s(I-3
I13
tp1201
I0
s(I-5
I2
tp1202
I0
s(I0
I0
tp1203
I0
s(I-14
I3
tp1204
I0
s(I0
I-17
tp1205
I0
s(I3
I13
tp1206
I0
s(I1
I13
tp1207
I0
s(I-13
I-9
tp1208
I0
s(I-4
I-10
tp1209
I0
s(I-10
I5
tp1210
I0
s(I6
I0
tp1211
I0
s(I-7
I11
tp1212
I0
s(I-9
I0
tp1213
I0
s(I0
I-2
tp1214
I0
s(I6
I12
tp1215
I0
s(I8
I-5
tp1216
I0
s(I9
I-9
tp1217
I0
s(I17
I4
tp1218
I0
s(I7
I9
tp1219
I0
s(I-8
I4
tp1220
I0
s(I-7
I-5
tp1221
I0
s(I-7
I1
tp1222
I0
s(I-6
I0
tp1223
I0
s(I-7
I-11
tp1224
I0
s(I6
I-6
tp1225
I0
s(I11
I6
tp1226
I0
s(I12
I-4
tp1227
I0
s(I12
I6
tp1228
I0
s(I12
I1
tp1229
I0
s(I-2
I0
tp1230
I0
s(I3
I15
tp1231
I0
s(I13
I4
tp1232
I0
s(I1
I-5
tp1233
I0
s(I17
I5
tp1234
I0
s(I0
I7
tp1235
I0
s(I1
I6
tp1236
I0
s(I-4
I3
tp1237
I0
s(I-1
I2
tp1238
I0
s(I-8
I-10
tp1239
I0
s(I-16
I-2
tp1240
I0
s(I2
I5
tp1241
I0
s(I-5
I13
tp1242
I0
s(I-2
I15
tp1243
I0
s(I-5
I-10
tp1244
I0
s(I6
I7
tp1245
I0
s(I7
I6
tp1246
I0
s(I2
I14
tp1247
I0
s(I-8
I-7
tp1248
I0
s(I3
I0
tp1249
I0
s(I2
I-10
tp1250
I0
s(I-1
I-12
tp1251
I0
s(I-3
I2
tp1252
I0
s(I-8
I11
tp1253
I0
s(I18
I-1
tp1254
I0
s(I-4
I14
tp1255
I0
s(I-7
I10
tp1256
I0
s(I8
I2
tp1257
I0
s(I-6
I1
tp1258
I0
s(I3
I-22
tp1259
I0
s(I-9
I-3
tp1260
I0
s(I-5
I12
tp1261
I0
s(I16
I7
tp1262
I0
s(I-5
I-13
tp1263
I0
s(I2
I-9
tp1264
I0
s(I4
I-9
tp1265
I0
s(I-8
I8
tp1266
I0
s(I9
I-4
tp1267
I0
s(I1
I-4
tp1268
I0
s(I11
I-2
tp1269
I0
s(I-3
I14
tp1270
I0
s(I7
I0
tp1271
I0
s(I-14
I-1
tp1272
I0
s(I0
I-3
tp1273
I0
s(I-13
I8
tp1274
I0
s(I-15
I8
tp1275
I0
s(I-3
I15
tp1276
I0
s(I-12
I3
tp1277
I0
s(I3
I1
tp1278
I0
s(I-11
I2
tp1279
I0
s(I-10
I9
tp1280
I0
s(I6
I2
tp1281
I0
s(I15
I-6
tp1282
I0
s(I7
I-5
tp1283
I0
s(I9
I-14
tp1284
I0
s(I6
I16
tp1285
I0
s(I3
I-14
tp1286
I0
s(I5
I-14
tp1287
I0
s(I7
I-6
tp1288
I0
s(I-17
I0
tp1289
I0
s(I-9
I-7
tp1290
I0
s(I-9
I-9
tp1291
I0
s(I8
I9
tp1292
I0
s(I-6
I8
tp1293
I0
s(I13
I-9
tp1294
I0
s(I5
I-8
tp1295
I0
s(I9
I4
tp1296
I0
s(I5
I-5
tp1297
I0
s(I2
I4
tp1298
I0
s(I-6
I2
tp1299
I0
s(I10
I3
tp1300
I0
s(I-4
I6
tp1301
I0
s(I1
I-11
tp1302
I0
s(I11
I10
tp1303
I0
s(I-3
I7
tp1304
I0
s(I14
I5
tp1305
I0
s(I0
I-12
tp1306
I0
s(I12
I13
tp1307
I0
s(I1
I16
tp1308
I0
s(I-3
I-13
tp1309
I0
s(I-15
I-1
tp1310
I0
s(I-15
I1
tp1311
I0
s(I-12
I10
tp1312
I0
s(I0
I11
tp1313
I0
s(I-14
I6
tp1314
I0
s(I-7
I14
tp1315
I0
s(I-3
I-8
tp1316
I0
s(I-11
I11
tp1317
I0
s(I1
I10
tp1318
I0
s(I4
I-7
tp1319
I0
s(I4
I1
tp1320
I0
s(I-10
I0
tp1321
I0
s(I-5
I11
tp1322
I0
s(I14
I-2
tp1323
I0
s(I-5
I-6
tp1324
I0
s(I-9
I5
tp1325
I0
s(I16
I4
tp1326
I0
s(I6
I11
tp1327
I0
s(I8
I-10
tp1328
I0
s(I-16
I11
tp1329
I0
s(I2
I-5
tp1330
I0
s(I2
I7
tp1331
I0
s(I4
I14
tp1332
I0
s(I-1
I-3
tp1333
I0
s(I10
I-7
tp1334
I0
s(I-2
I4
tp1335
I0
s(I14
I0
tp1336
I0
s(I-5
I15
tp1337
I0
s(I-2
I-10
tp1338
I0
s(I6
I-17
tp1339
I0
s(I3
I-6
tp1340
I0
s(I6
I-7
tp1341
I0
s(I9
I13
tp1342
I0
s(I-4
I12
tp1343
I0
s(I8
I13
tp1344
I0
s(I10
I10
tp1345
I0
s(I11
I-4
tp1346
I0
s(I-11
I-3
tp1347
I0
s(I-3
I0
tp1348
I0
s(I14
I12
tp1349
I0
s(I12
I4
tp1350
I0
s(I-13
I-2
tp1351
I0
s(I-15
I-9
tp1352
I0
s(I9
I-1
tp1353
I0
s(I0
I2
tp1354
I0
s(I-14
I1
tp1355
I0
s(I10
I-12
tp1356
I0
s(I-3
I-15
tp1357
I0
s(I1
I3
tp1358
I0
s(I4
I8
tp1359
I0
s(I2
I8
tp1360
I0
s(I5
I13
tp1361
I0
s(I-9
I2
tp1362
I0
s(I8
I10
tp1363
I0
s(I-6
I-1
tp1364
I0
s(I8
I-3
tp1365
I0
s(I-6
I9
tp1366
I0
s(I-6
I-16
tp1367
I0
s(I7
I11
tp1368
I0
s(I7
I-7
tp1369
I0
s(I-18
I-3
tp1370
I0
s(I-16
I10
tp1371
I0
s(I-9
I13
tp1372
I0
s(I-8
I6
tp1373
I0
s(I-1
I-18
tp1374
I0
s(I-7
I7
tp1375
I0
s(I-6
I4
tp1376
I0
s(I-5
I3
tp1377
I0
s(I-16
I-1
tp1378
I0
s(I-7
I15
tp1379
I0
s(I5
I-6
tp1380
I0
s(I-5
I9
tp1381
I0
s(I14
I-7
tp1382
I0
s(I12
I3
tp1383
I0
s(I-2
I6
tp1384
I0
s(I-15
I11
tp1385
I0
s(I13
I2
tp1386
I0
s(I1
I-7
tp1387
I0
s(I0
I-8
tp1388
I0
s(I1
I4
tp1389
I0
s(I-3
I-11
tp1390
I0
s(I-16
I-7
tp1391
I0
s(I2
I3
tp1392
I0
s(I2
I1
tp1393
I0
s(I10
I0
tp1394
I0
s(I-11
I7
tp1395
I0
s(I6
I5
tp1396
I0
s(I-17
I-9
tp1397
I0
s(I5
I-9
tp1398
I0
s(I-7
I-1
tp1399
I0
s(I-8
I-5
tp1400
I0
s(I10
I-1
tp1401
I0
s(I19
I5
tp1402
I0
s(I-4
I-12
tp1403
I0
s(I-12
I-5
tp1404
I0
s(I13
I-7
tp1405
I0
s(I10
I-5
tp1406
I0
s(I-7
I8
tp1407
I0
s(I-1
I6
tp1408
I0
s(I8
I4
tp1409
I0
s(I6
I-13
tp1410
I0
s(I3
I-8
tp1411
I0
s(I2
I0
tp1412
I0
s(I3
I-20
tp1413
I0
s(I9
I1
tp1414
I0
s(I-5
I14
tp1415
I0
s(I-2
I9
tp1416
I0
s(I10
I6
tp1417
I0
s(I-4
I9
tp1418
I0
s(I-16
I-3
tp1419
I0
s(I1
I-14
tp1420
I0
s(I-3
I12
tp1421
I0
s(I0
I16
tp1422
I0
s(I-7
I12
tp1423
I0
s(I-6
I14
tp1424
I0
s(I2
I-17
tp1425
I0
s(I-13
I-4
tp1426
I0
s(I-13
I10
tp1427
I0
s(I-15
I-5
tp1428
I0
s(I9
I-8
tp1429
I0
s(I3
I3
tp1430
I0
s(I11
I-1
tp1431
I0
s(I4
I4
tp1432
I0
s(I10
I-13
tp1433
I0
s(I9
I-16
tp1434
I0
s(I-7
I-4
tp1435
I0
s(I6
I-10
tp1436
I0
s(I-6
I11
tp1437
I0
s(I-6
I-14
tp1438
I0
s(I15
I-1
tp1439
I0
s(I16
I6
tp1440
I0
s(I-1
I9
tp1441
I0
s(I-17
I2
tp1442
I0
s(I8
I11
tp1443
I0
s(I-16
I-6
tp1444
I0
s(I-13
I9
tp1445
I0
s(I9
I10
tp1446
I0
s(I-5
I7
tp1447
I0
s(I10
I1
tp1448
I0
s(I-4
I0
tp1449
I0
s(I17
I6
tp1450
I0
s(I-13
I5
tp1451
I0
s(I11
I12
tp1452
I0
s(I3
I-5
tp1453
I0
s(I14
I11
tp1454
I0
s(I0
I-10
tp1455
I0
s(I-12
I-9
tp1456
I0
s(I-6
I6
tp1457
I0
s(I-15
I-4
tp1458
I0
s(I-15
I7
tp1459
I0
s(I0
I13
tp1460
I0
s(I-14
I4
tp1461
I0
s(I-3
I-10
tp1462
I0
s(I-11
I9
tp1463
I0
s(I1
I8
tp1464
I0
s(I3
I9
tp1465
I0
s(I-1
I13
tp1466
I0
s(I-4
I-5
tp1467
I0
s(I-10
I6
tp1468
I0
s(I-1
I-13
tp1469
I0
s(I11
I-12
tp1470
I0
s(I-10
I-2
tp1471
I0
s(I-5
I-4
tp1472
I0
s(I-9
I7
tp1473
I0
s(I12
I-2
tp1474
I0
s(I4
I-3
tp1475
I0
s(I6
I9
tp1476
I0
s(I-9
I-2
tp1477
I0
s(I-17
I-7
tp1478
I0
s(I7
I12
tp1479
I0
s(I18
I4
tp1480
I0
s(I2
I9
tp1481
I0
s(I4
I2
tp1482
I0
s(I-8
I1
tp1483
I0
s(I-12
I-7
tp1484
I0
s(I10
I-3
tp1485
I0
s(I-1
I0
tp1486
I0
s(I10
I8
tp1487
I0
s(I11
I-7
tp1488
I0
s(I3
I-10
tp1489
I0
s(I11
I5
tp1490
I0
s(I12
I-8
tp1491
I0
s(I-12
I-1
tp1492
I0
s(I15
I11
tp1493
I0
s(I-13
I-7
tp1494
I0
s(I-6
I-7
tp1495
I0
s(I0
I4
tp1496
I0
s(I-16
I5
tp1497
I0
s(I-2
I13
tp1498
I0
s(I5
I3
tp1499
I0
s(I1
I1
tp1500
I0
s(I9
I-6
tp1501
I0
s(I2
I-6
tp1502
I0
s(I-1
I-6
tp1503
I0
s(I2
I6
tp1504
I0
s(I5
I11
tp1505
I0
s(I2
I2
tp1506
I0
s(I-6
I-4
tp1507
I0
s(I1
I17
tp1508
I0
s(I-16
I4
tp1509
I0
s(I7
I5
tp1510
I0
s(I6
I-8
tp1511
I0
s(I-12
I-4
tp1512
I0
s(I6
I1
tp1513
I0
s(I-7
I-2
tp1514
I0
s(I15
I1
tp1515
I0
s(I6
I-15
tp1516
I0
s(I-6
I-12
tp1517
I0
s(I-17
I7
tp1518
I0
s(I7
I-3
tp1519
I0
s(I-1
I-16
tp1520
I0
s(I-7
I5
tp1521
I0
s(I6
I-1
tp1522
I0
s(I5
I-11
tp1523
I0
s(I-1
I4
tp1524
I0
s(I4
I-12
tp1525
I0
s(I13
I9
tp1526
I0
s(I-13
I-1
tp1527
I0
s(I-13
I3
tp1528
I0
s(I-5
I0
tp1529
I0
s(I16
I0
tp1530
I0
s(I7
I13
tp1531
I0
s(I0
I-6
tp1532
I0
s(I-13
I7
tp1533
I0
s(I-13
I-6
tp1534
I0
s(I13
I-3
tp1535
I0
s(I-2
I-3
tp1536
I0
s(I-12
I0
tp1537
I0
s(I3
I11
tp1538
I0
s(I-11
I5
tp1539
I0
s(I3
I7
tp1540
I0
s(I-11
I-6
tp1541
I0
s(I-10
I10
tp1542
I0
s(I-2
I-7
tp1543
I0
s(I7
I2
tp1544
I0
s(I-10
I-8
tp1545
I0
s(I-12
I4
tp1546
I0
s(I-8
I-3
tp1547
I0
s(I-4
I11
tp1548
I0
s(I14
I-6
tp1549
I0
s(I5
I-2
tp1550
I0
s(I13
I0
tp1551
I0
s(I7
I-16
tp1552
I0
s(I5
I8
tp1553
I0
s(I8
I6
tp1554
I0
s(I-6
I13
tp1555
I0
s(I-4
I-8
tp1556
I0
s(I-3
I16
tp1557
I0
s(I9
I7
tp1558
I0
s(I5
I-1
tp1559
I0
s(I-2
I-15
tp1560
I0
s(I2
I-1
tp1561
I0
s(I2
I-13
tp1562
I0
s(I10
I4
tp1563
I0
s(I4
I-13
tp1564
I0
s(I3
I-12
tp1565
I0
s(I1
I-16
tp1566
I0
s(I11
I9
tp1567
I0
s(I-3
I10
tp1568
I0
s(I-5
I-16
tp1569
I0
s(I14
I6
tp1570
I0
s(I0
I-15
tp1571
I0
s(I2
I-19
tp1572
I0
s(I-13
I12
tp1573
I0
s(I-15
I-7
tp1574
I0
s(I-15
I12
tp1575
I0
s(I-17
I-6
tp1576
I0
s(I-6
I-5
tp1577
I0
s(I12
I-9
tp1578
I0
s(I0
I8
tp1579
I0
s(I-14
I11
tp1580
I0
s(I7
I-10
tp1581
I0
s(I3
I5
tp1582
I0
s(I-16
I1
tp1583
I0
s(I-17
I5
tp1584
I0
s(I-4
I-2
tp1585
I0
s(I-10
I13
tp1586
I0
s(I-5
I-7
tp1587
I0
s(I-9
I8
tp1588
I0
s(I16
I1
tp1589
I0
s(I8
I-13
tp1590
I0
s(I14
I-9
tp1591
I0
s(I-2
I11
tp1592
I0
s(I-7
I-8
tp1593
I0
s(I11
I7
tp1594
I0
s(I-2
I-16
tp1595
I0
s(I-6
I15
tp1596
I0
s(I-16
I-4
tp1597
I0
s(I-6
I-10
tp1598
I0
s(I-14
I-8
tp1599
I0
s(I9
I8
tp1600
I0
s(I4
I6
tp1601
I0
s(I10
I15
tp1602
I0
s(I4
I-6
tp1603
I0
s(I11
I14
tp1604
I0
s(I3
I-3
tp1605
I0
s(I-10
I-9
tp1606
I0
s(I-1
I-10
tp1607
I0
s(I12
I9
tp1608
I0
s(I15
I12
tp1609
I0
s(I-15
I5
tp1610
I0
s(I-16
I-8
tp1611
I0
s(I-1
I-17
tp1612
I0
s(I5
I-16
tp1613
I0
s(I0
I15
tp1614
I0
s(I-14
I2
tp1615
I0
s(I0
I-18
tp1616
I0
s(I-3
I-12
tp1617
I0
s(I1
I14
tp1618
I0
s(I-4
I-11
tp1619
I0
s(I-10
I4
tp1620
I0
s(I-1
I-15
tp1621
I0
s(I-4
I-13
tp1622
I0
s(I-5
I-1
tp1623
I0
s(I-9
I1
tp1624
I0
s(I3
I16
tp1625
I0
s(I-3
I-5
tp1626
I0
s(I-6
I-13
tp1627
I0
s(I2
I-11
tp1628
I0
s(I-2
I-5
tp1629
I0
s(I-10
I-6
tp1630
I0
s(I-3
I-16
tp1631
I0
s(I-18
I-2
tp1632
I0
s(I4
I-15
tp1633
I0
s(I-7
I-13
tp1634
I0
s(I-5
I-5
tp1635
I0
s(I2
I13
tp1636
I0
s(I-8
I3
tp1637
I0
s(I5
I-15
tp1638
I0
s(I7
I-4
tp1639
I0
s(I-5
I-12
tp1640
I0
s(I16
I-2
tp1641
I0
s(I-4
I-1
tp1642
I0
s(I-12
I-3
tp1643
I0
s(I15
I7
tp1644
I0
s(I-18
I2
tp1645
I0
s(I12
I0
tp1646
I0
s(I-1
I3
tp1647
I0
s(I5
I-12
tp1648
I0
s(I-13
I-8
tp1649
I0
s(I13
I5
tp1650
I0
s(I-11
I-4
tp1651
I0
s(I-9
I-16
tp1652
I0
s(I0
I6
tp1653
I0
s(I-11
I-9
tp1654
I0
s(I1
I7
tp1655
I0
s(I-13
I0
tp1656
I0
s(I-2
I-8
tp1657
I0
s(I-14
I-4
tp1658
I0
s(I-5
I-9
tp1659
I0
s(I5
I7
tp1660
I0
s(I6
I6
tp1661
I0
s(I9
I-10
tp1662
I0
s(I2
I10
tp1663
I0
s(I-8
I-8
tp1664
I0
s(I-19
I-1
tp1665
I0
s(I9
I14
tp1666
I0
s(I-8
I10
tp1667
I0
s(I-7
I-6
tp1668
I0
s(I7
I-11
tp1669
I0
s(I6
I-3
tp1670
I0
s(I-4
I16
tp1671
I0
s(I8
I1
tp1672
I0
s(I6
I-4
tp1673
I0
s(I-4
I-4
tp1674
I0
s(I5
I-13
tp1675
I0
s(I-2
I10
tp1676
I0
s(I4
I-10
tp1677
I0
s(I-1
I1
tp1678
I0
s(I1
I-3
tp1679
I0
s(I3
I-15
tp1680
I0
s(I0
I-4
tp1681
I0
s(I4
I-1
tp1682
I0
s(I14
I2
tp1683
I0
s(I9
I3
tp1684
I0
s(I-15
I9
tp1685
I0
s(I-12
I2
tp1686
I0
s(I11
I-3
tp1687
I0
s(I-10
I8
tp1688
I0
s(I-4
I-15
tp1689
I0
s(I9
I-13
tp1690
I0
s(I-3
I-1
tp1691
I0
s(I-3
I-3
tp1692
I0
s(I11
I0
tp1693
I0
s(I-11
I0
tp1694
I0
s(I-4
I15
tp1695
I0
s(I7
I-14
tp1696
I0
s(I-17
I1
tp1697
I0
s(I8
I8
tp1698
I0
s(I6
I-9
tp1699
I0
s(I9
I-5
tp1700
I0
s(I11
I-9
tp1701
I0
s(I9
I5
tp1702
I0
s(I5
I-4
tp1703
I0
s(I-5
I-14
tp1704
I0
s(I2
I-15
tp1705
I0
s(I10
I2
tp1706
I0
s(I-4
I5
tp1707
I0
s(I13
I-2
tp1708
I0
s(I5
I0
tp1709
I0
s(I1
I-10
tp1710
I0
s(I11
I11
tp1711
I0
s(I-3
I8
tp1712
I0
s(I14
I4
tp1713
I0
s(I0
I-13
tp1714
I0
s(I12
I12
tp1715
I0
s(I1
I-15
tp1716
I0
s(I9
I-12
tp1717
I0
s(I-15
I2
tp1718
I0
s(I3
I-16
tp1719
I0
s(I-12
I9
tp1720
I0
s(I0
I10
tp1721
I0
s(I-14
I9
tp1722
I0
s(I-3
I-7
tp1723
I0
s(I-11
I12
tp1724
I0
s(I1
I11
tp1725
I0
s(I8
I-17
tp1726
I0
s(I4
I0
tp1727
I0
s(I-10
I3
tp1728
I0
s(I-14
I-2
tp1729
I0
s(I5
I5
tp1730
I0
s(I-2
I-11
tp1731
I0
s(I8
I-1
tp1732
I0
s(I6
I10
tp1733
I0
s(I8
I-11
tp1734
I0
s(I-17
I-4
tp1735
I0
s(I6
I-18
tp1736
I0
s(I13
I-10
tp1737
I0
s(I-18
I0
tp1738
I0
s(I10
I13
tp1739
I0
s(I-17
I-5
tp1740
I0
s(I-11
I-1
tp1741
I0
s(I-3
I1
tp1742
I0
s(I12
I11
tp1743
I0
s(I-3
I-14
tp1744
I0
s(I13
I10
tp1745
I0
s(I0
I1
tp1746
I0
s(I-14
I0
tp1747
I0
s(I3
I12
tp1748
I0
s(I1
I12
tp1749
I0
s(I-4
I2
tp1750
I0
s(I-4
I-9
tp1751
I0
s(I-1
I-9
tp1752
I0
s(I-1
I-2
tp1753
I0
s(I5
I14
tp1754
I0
s(I-9
I3
tp1755
I0
s(I-2
I-13
tp1756
I0
s(I6
I13
tp1757
I0
s(I8
I-4
tp1758
I0
s(I14
I7
tp1759
I0
s(I7
I8
tp1760
I0
s(I4
I15
tp1761
I0
s(I-2
I2
tp1762
I0
s(I-2
I5
tp1763
I0
s(I-2
I-9
tp1764
I0
s(I-3
I3
tp1765
I0
s(I-8
I5
tp1766
I0
s(I-17
I3
tp1767
I0
s(I-5
I16
tp1768
I0
s(I-4
I13
tp1769
I0
s(I7
I-1
tp1770
I0
s(I6
I-5
tp1771
I0
s(I14
I9
tp1772
I0
s(I12
I-7
tp1773
I0
s(I12
I2
tp1774
I0
s(I2
I-3
tp1775
I0
s(I9
I-3
tp1776
I0
s(I1
I-6
tp1777
I0
s(I1
I-2
tp1778
I0
s(I9
I-2
tp1779
I0
s(I10
I-11
tp1780
I0
s(I1
I5
tp1781
I0
s(I-13
I2
tp1782
I0
s(I-11
I3
tp1783
I0
s(I-2
I-2
tp1784
I0
s(I-7
I-7
tp1785
I0
s(I-11
I-10
tp1786
I0
s(I6
I4
tp1787
I0
s(I-6
I-15
tp1788
I0
s(I7
I1
tp1789
I0
s(I7
I-8
tp1790
I0
s(I15
I-3
tp1791
I0
s(I-8
I-6
tp1792
I0
s(I15
I9
tp1793
I0
s(I-9
I12
tp1794
I0
s(I-8
I12
tp1795
I0
s(I-7
I9
tp1796
I0
s(I13
I7
tp1797
I0
s(I8
I3
tp1798
I0
s(I11
I3
tp1799
I0
s(I13
I-8
tp1800
I0
s(I5
I-7
tp1801
I0
s(I-9
I-4
tp1802
I0
s(I-7
I-10
tp1803
I0
s(I14
I-1
tp1804
I0
s(I-1
I8
tp1805
I0
s(I-4
I8
tp1806
I0
s(I1
I-13
tp1807
I0
s(I3
I-13
tp1808
I0
s(I14
I3
tp1809
I0
s(I0
I-1
tp1810
I0
s(I2
I-18
tp1811
I0
s(I3
I10
tp1812
I0
s(I2
I15
tp1813
I0
s(I-10
I-3
tp1814
I0
s(I9
I-17
tp1815
I0
s(I-3
I-2
tp1816
I0
s(I-11
I1
tp1817
I0
s(I4
I-8
tp1818
I0
s(I-17
I-3
tp1819
I0
s(I11
I-11
tp1820
I0
s(I10
I-14
tp1821
I0
s(I5
I-10
tp1822
I0
s(I9
I-15
tp1823
I0
s(I-12
I6
tp1824
I0
s(I-6
I-2
tp1825
I0
s(I14
I-5
tp1826
I0
s(I4
I13
tp1827
I0
s(I-16
I3
tp1828
I0
s(I-1
I15
tp1829
I0
s(I10
I-8
tp1830
I0
s(I-2
I7
tp1831
I0
s(I2
I-4
tp1832
I0
s(I-11
I4
tp1833
I0
s(I6
I-11
tp1834
I0
s(I-3
I5
tp1835
I0
s(I9
I11
tp1836
I0
s(I-5
I4
tp1837
I0
s(I-10
I-4
tp1838
I0
s(I-4
I7
tp1839
I0
s(I-2
I-12
tp1840
I0
s(I1
I-12
tp1841
I0
s(I11
I13
tp1842
I0
s(I-3
I6
tp1843
I0
s(I14
I10
tp1844
I0
s(I0
I-11
tp1845
I0
s(I-5
I-2
tp1846
I0
s(I-16
I6
tp1847
I0
s(I-15
I-3
tp1848
I0
s(I-15
I0
tp1849
I0
s(I1
I-18
tp1850
I0
s(I1
I-8
tp1851
I0
s(I-12
I11
tp1852
I0
s(I0
I12
tp1853
I0
s(I-14
I7
tp1854
I0
s(I-10
I11
tp1855
I0
s(I-3
I-9
tp1856
I0
s(I-11
I10
tp1857
I0
s(I1
I9
tp1858
I0
s(I-4
I-6
tp1859
I0
s(I-10
I1
tp1860
I0
s(I-1
I-14
tp1861
I0
s(I15
I-5
tp1862
I0
s(I-5
I-3
tp1863
I0
s(I-9
I4
tp1864
I0
s(I16
I5
tp1865
I0
s(I6
I8
tp1866
I0
s(I8
I-9
tp1867
I0
s(I6
I-12
tp1868
I0
s(I6
I15
tp1869
I0
s(I-17
I-2
tp1870
I0
s(I-9
I10
tp1871
I0
s(I7
I-2
tp1872
I0
s(I8
I-6
tp1873
I0
s(I-1
I-7
tp1874
I0
s(I-7
I-9
tp1875
I0
s(I-6
I16
tp1876
I0
s(I-8
I0
tp1877
I0
s(I9
I12
tp1878
I0
s(I17
I-3
tp1879
I0
s(I10
I11
tp1880
I0
s(I-9
I-6
tp1881
I0
s(I-8
I-2
tp1882
I0
s(I-11
I-7
tp1883
I0
s(I11
I2
tp1884
I0
s(I-5
I5
tp1885
I0
s(I1
I15
tp1886
I0
s(I15
I3
tp1887
I0
s(I14
I-8
tp1888
I0
s(I12
I5
tp1889
I0
s(I-6
I7
tp1890
I0
s(I13
I8
tp1891
I0
s(I7
I-12
tp1892
I0
s(I-11
I-8
tp1893
I0
s(I0
I3
tp1894
I0
s(I3
I14
tp1895
I0
s(I1
I2
tp1896
I0
s(I3
I8
tp1897
I0
s(I-9
I-5
tp1898
I0
s(I4
I9
tp1899
I0
s(I19
I6
tp1900
I0
s(I-1
I-11
tp1901
I0
s(I-2
I-4
tp1902
I0
s(I5
I12
tp1903
I0
s(I-18
I-1
tp1904
I0
s(I4
I-2
tp1905
I0
s(I6
I3
tp1906
I0
s(I8
I-2
tp1907
I0
s(I7
I10
tp1908
I0
s(I4
I3
tp1909
I0
s(I-8
I7
tp1910
I0
s(I-12
I-6
tp1911
I0
s(I10
I-6
tp1912
I0
s(I-7
I6
tp1913
I0
s(I-2
I1
tp1914
I0
s(I-1
I-1
tp1915
I0
s(I11
I-8
tp1916
I0
s(I-6
I5
tp1917
I0
s(I3
I-7
tp1918
I0
s(I-5
I8
tp1919
I0
s(I-1
I7
tp1920
I0
s(I13
I1
tp1921
I0
s(I-1
I5
tp1922
I0
s(I-14
I-7
tp1923
I0
s(I7
I-13
tp1924
I0
s(I0
I-7
tp1925
I0
s(I5
I2
tp1926
I0
s(I-2
I-14
tp1927
I0
s(I13
I3
tp1928
I0
s(I-13
I4
tp1929
I0
s(I-14
I-6
tp1930
I0
s(I9
I-7
tp1931
I0
s(I10
I-17
tp1932
I0
s(I-1
I-4
tp1933
I0
s(I-12
I7
tp1934
I0
s(I-5
I-15
tp1935
I0
s(I-11
I6
tp1936
I0
ss.