(dp0
S'gyr_r'
p1
(dp2
I0
F0.0
sI1
F0.0
sI2
F1.0
sI3
F0.7905694150420949
sI4
F1.5231546211727816
sI5
F1.741048534648015
sI6
F3.060727945367826
sI7
F2.7804308744780664
sI8
F4.086057729474101
sI9
F3.7174104730309243
sI10
F4.630555712464498
sI11
F5.434423470501335
sI12
F5.059135362230935
sI13
F6.400213537907085
sI14
F6.5174004663196685
sI15
F7.3869100409059785
sI16
F7.709787831216036
sI17
F8.00478603712279
sI18
F9.977715968313717
sI19
F9.856669665757437
sI20
F10.098948017942119
sI21
F10.588350632314
sI22
F11.314977611615731
sI23
F13.209939737500896
sI24
F14.392429239369012
sI25
F14.672134319610393
sI26
F15.93067090935396
sI27
F16.942433382213444
sI28
F18.099599040477337
sI29
F17.45239118071895
sI30
F18.88500512441155
sI31
F20.711370081844162
sI32
F20.305492659367157
sI33
F21.070507405908987
sI34
F22.317795029686387
sI35
F22.944102289384652
sI36
F23.736679418807743
sI37
F24.61904349334895
sI38
F26.654617183504723
sI39
F27.1289467418293
sI40
F28.182833615811468
sI41
F28.995883257583984
sI42
F29.959285449957424
sI43
F30.94312111818814
sI44
F31.165061685562243
sI45
F33.35695200796281
sI46
F34.788210794989894
sI47
F34.94605912572668
sI48
F35.761123183018185
sI49
F37.658115220395956
ssS'gens'
p3
(lp4
(lp5
(I0
I0
I0
tp6
aa(lp7
a(lp8
(I2
I0
I2
tp9
aa(lp10
(I1
I0
I3
tp11
a(I2
I1
I3
tp12
aa(lp13
(I3
I1
I4
tp14
aa(lp15
(I0
I1
I5
tp16
a(I1
I1
I5
tp17
a(I4
I1
I5
tp18
aa(lp19
(I-3
I-1
I6
tp20
a(I3
I0
I6
tp21
a(I0
I2
I6
tp22
a(I4
I2
I6
tp23
aa(lp24
(I-1
I0
I7
tp25
a(I2
I-1
I7
tp26
a(I2
I3
I7
tp27
a(I0
I3
I7
tp28
a(I5
I3
I7
tp29
aa(lp30
(I3
I2
I8
tp31
a(I-2
I-3
I8
tp32
a(I5
I2
I8
tp33
a(I2
I4
I8
tp34
a(I7
I3
I8
tp35
aa(lp36
(I4
I-2
I9
tp37
a(I3
I3
I9
tp38
a(I1
I2
I9
tp39
a(I5
I1
I9
tp40
a(I-3
I0
I9
tp41
a(I-1
I2
I9
tp42
a(I-1
I-1
I9
tp43
a(I-3
I-2
I9
tp44
a(I1
I3
I9
tp45
a(I7
I1
I9
tp46
aa(lp47
(I1
I-1
I10
tp48
a(I2
I2
I10
tp49
a(I-4
I-1
I10
tp50
a(I6
I3
I10
tp51
a(I3
I-1
I10
tp52
a(I4
I3
I10
tp53
a(I-4
I-3
I10
tp54
a(I1
I4
I10
tp55
a(I6
I4
I10
tp56
a(I4
I-7
I10
tp57
a(I3
I4
I10
tp58
a(I-2
I0
I10
tp59
a(I-1
I1
I10
tp60
a(I0
I-1
I10
tp61
a(I-3
I-3
I10
tp62
a(I-2
I3
I10
tp63
a(I8
I1
I10
tp64
aa(lp65
(I-3
I3
I11
tp66
a(I-2
I-2
I11
tp67
a(I4
I4
I11
tp68
a(I7
I2
I11
tp69
a(I4
I-3
I11
tp70
a(I-2
I2
I11
tp71
a(I7
I0
I11
tp72
a(I-2
I-1
I11
tp73
a(I-4
I-2
I11
tp74
a(I4
I-9
I11
tp75
a(I0
I-2
I11
tp76
a(I-2
I4
I11
tp77
a(I8
I0
I11
tp78
aa(lp79
(I0
I-4
I12
tp80
a(I4
I-1
I12
tp81
a(I-4
I1
I12
tp82
a(I-3
I2
I12
tp83
a(I9
I2
I12
tp84
a(I1
I6
I12
tp85
a(I3
I-5
I12
tp86
a(I-2
I1
I12
tp87
a(I-3
I-4
I12
tp88
a(I-1
I-3
I12
tp89
a(I5
I4
I12
tp90
a(I3
I-3
I12
tp91
a(I0
I-3
I12
tp92
a(I-3
I4
I12
tp93
aa(lp94
(I-2
I-4
I13
tp95
a(I6
I1
I13
tp96
a(I-4
I0
I13
tp97
a(I-5
I2
I13
tp98
a(I-5
I-1
I13
tp99
a(I-7
I-5
I13
tp100
a(I4
I-6
I13
tp101
a(I10
I0
I13
tp102
a(I-1
I-2
I13
tp103
a(I4
I5
I13
tp104
a(I6
I2
I13
tp105
a(I5
I-8
I13
tp106
a(I-1
I4
I13
tp107
a(I8
I-1
I13
tp108
a(I-4
I2
I13
tp109
a(I-3
I1
I13
tp110
a(I9
I3
I13
tp111
a(I-2
I6
I13
tp112
a(I2
I-6
I13
tp113
a(I-4
I-4
I13
tp114
a(I3
I-4
I13
tp115
a(I-3
I5
I13
tp116
aa(lp117
(I5
I0
I14
tp118
a(I3
I-2
I14
tp119
a(I2
I-2
I14
tp120
a(I-2
I5
I14
tp121
a(I6
I-1
I14
tp122
a(I-4
I3
I14
tp123
a(I7
I-1
I14
tp124
a(I4
I-10
I14
tp125
a(I8
I-4
I14
tp126
a(I4
I0
I14
tp127
a(I2
I7
I14
tp128
a(I5
I5
I14
tp129
a(I3
I-6
I14
tp130
a(I-5
I1
I14
tp131
a(I11
I0
I14
tp132
a(I1
I-2
I14
tp133
a(I8
I2
I14
tp134
a(I3
I-8
I14
tp135
a(I-4
I5
I14
tp136
a(I9
I4
I14
tp137
a(I-2
I7
I14
tp138
a(I2
I-7
I14
tp139
aa(lp140
(I-1
I3
I15
tp141
a(I7
I4
I15
tp142
a(I-1
I5
I15
tp143
a(I8
I3
I15
tp144
a(I4
I-4
I15
tp145
a(I6
I0
I15
tp146
a(I2
I-4
I15
tp147
a(I-1
I6
I15
tp148
a(I4
I-5
I15
tp149
a(I-2
I-5
I15
tp150
a(I-6
I2
I15
tp151
a(I-7
I-6
I15
tp152
a(I10
I-1
I15
tp153
a(I0
I6
I15
tp154
a(I-4
I-5
I15
tp155
a(I-3
I6
I15
tp156
a(I5
I-10
I15
tp157
a(I2
I8
I15
tp158
a(I5
I6
I15
tp159
a(I-6
I1
I15
tp160
a(I11
I-1
I15
tp161
a(I4
I-8
I15
tp162
a(I-4
I6
I15
tp163
a(I-3
I7
I15
tp164
a(I1
I-9
I15
tp165
aa(lp166
(I1
I5
I16
tp167
a(I-3
I-5
I16
tp168
a(I-5
I-2
I16
tp169
a(I3
I-9
I16
tp170
a(I9
I1
I16
tp171
a(I-5
I-5
I16
tp172
a(I6
I-7
I16
tp173
a(I10
I3
I16
tp174
a(I7
I-2
I16
tp175
a(I7
I-4
I16
tp176
a(I11
I1
I16
tp177
a(I-5
I4
I16
tp178
a(I7
I5
I16
tp179
a(I8
I4
I16
tp180
a(I1
I-5
I16
tp181
a(I-2
I-6
I16
tp182
a(I10
I-2
I16
tp183
a(I0
I5
I16
tp184
a(I-4
I-6
I16
tp185
a(I5
I-9
I16
tp186
a(I3
I8
I16
tp187
a(I4
I6
I16
tp188
a(I11
I-2
I16
tp189
a(I-3
I8
I16
tp190
aa(lp191
(I-5
I-3
I17
tp192
a(I5
I-7
I17
tp193
a(I1
I-4
I17
tp194
a(I-5
I0
I17
tp195
a(I1
I7
I17
tp196
a(I-1
I-4
I17
tp197
a(I-6
I-5
I17
tp198
a(I0
I9
I17
tp199
a(I1
I-6
I17
tp200
a(I4
I-11
I17
tp201
a(I8
I-3
I17
tp202
a(I7
I-3
I17
tp203
a(I0
I4
I17
tp204
a(I-5
I5
I17
tp205
a(I2
I-3
I17
tp206
a(I-6
I-6
I17
tp207
a(I-3
I-7
I17
tp208
a(I5
I-11
I17
tp209
a(I9
I7
I17
tp210
a(I0
I-9
I17
tp211
a(I2
I5
I17
tp212
a(I7
I-8
I17
tp213
a(I12
I1
I17
tp214
a(I-5
I3
I17
tp215
a(I7
I6
I17
tp216
a(I-3
I-6
I17
tp217
a(I5
I8
I17
tp218
a(I-4
I7
I17
tp219
aa(lp220
(I3
I5
I18
tp221
a(I-6
I3
I18
tp222
a(I8
I-2
I18
tp223
a(I2
I-5
I18
tp224
a(I0
I-25
I18
tp225
a(I1
I-3
I18
tp226
a(I-4
I4
I18
tp227
a(I6
I-8
I18
tp228
a(I15
I0
I18
tp229
a(I-2
I8
I18
tp230
a(I5
I-1
I18
tp231
a(I6
I-10
I18
tp232
a(I12
I0
I18
tp233
a(I3
I-7
I18
tp234
a(I6
I6
I18
tp235
a(I5
I-4
I18
tp236
a(I5
I-5
I18
tp237
a(I-5
I6
I18
tp238
a(I3
I9
I18
tp239
a(I7
I7
I18
tp240
a(I-6
I-2
I18
tp241
a(I3
I-10
I18
tp242
a(I10
I2
I18
tp243
a(I6
I-2
I18
tp244
a(I8
I5
I18
tp245
a(I-5
I-7
I18
tp246
a(I6
I-9
I18
tp247
a(I4
I9
I18
tp248
a(I11
I-3
I18
tp249
a(I-1
I-6
I18
tp250
a(I-7
I18
I18
tp251
a(I3
I-11
I18
tp252
a(I-6
I-9
I18
tp253
a(I-1
I-11
I18
tp254
a(I5
I-12
I18
tp255
a(I9
I8
I18
tp256
a(I8
I-8
I18
tp257
a(I-4
I8
I18
tp258
aa(lp259
(I-8
I-6
I19
tp260
a(I1
I-7
I19
tp261
a(I6
I5
I19
tp262
a(I2
I6
I19
tp263
a(I-6
I-1
I19
tp264
a(I5
I-6
I19
tp265
a(I1
I9
I19
tp266
a(I3
I6
I19
tp267
a(I11
I3
I19
tp268
a(I5
I-2
I19
tp269
a(I8
I7
I19
tp270
a(I-1
I8
I19
tp271
a(I12
I-1
I19
tp272
a(I-8
I6
I19
tp273
a(I1
I-8
I19
tp274
a(I-5
I-4
I19
tp275
a(I3
I7
I19
tp276
a(I0
I7
I19
tp277
a(I-6
I5
I19
tp278
a(I-2
I-7
I19
tp279
a(I10
I7
I19
tp280
a(I5
I7
I19
tp281
a(I16
I0
I19
tp282
a(I14
I0
I19
tp283
a(I6
I7
I19
tp284
a(I-6
I6
I19
tp285
a(I7
I8
I19
tp286
a(I-6
I-7
I19
tp287
a(I7
I-9
I19
tp288
a(I5
I10
I19
tp289
a(I-1
I-7
I19
tp290
a(I-8
I18
I19
tp291
a(I2
I-11
I19
tp292
a(I-6
I-10
I19
tp293
a(I4
I-12
I19
tp294
aa(lp295
(I-8
I-2
I20
tp296
a(I9
I0
I20
tp297
a(I-9
I5
I20
tp298
a(I2
I-8
I20
tp299
a(I12
I4
I20
tp300
a(I1
I8
I20
tp301
a(I10
I1
I20
tp302
a(I10
I-6
I20
tp303
a(I-6
I4
I20
tp304
a(I0
I-5
I20
tp305
a(I12
I-2
I20
tp306
a(I9
I-3
I20
tp307
a(I-4
I-7
I20
tp308
a(I6
I-11
I20
tp309
a(I8
I6
I20
tp310
a(I0
I-8
I20
tp311
a(I7
I-7
I20
tp312
a(I6
I8
I20
tp313
a(I-7
I2
I20
tp314
a(I8
I-9
I20
tp315
a(I6
I-5
I20
tp316
a(I3
I10
I20
tp317
a(I-6
I-8
I20
tp318
a(I-1
I-12
I20
tp319
a(I8
I8
I20
tp320
a(I8
I-6
I20
tp321
a(I-8
I-7
I20
tp322
a(I2
I9
I20
tp323
a(I12
I3
I20
tp324
a(I0
I8
I20
tp325
a(I10
I-4
I20
tp326
a(I-8
I7
I20
tp327
a(I-7
I5
I20
tp328
a(I-2
I-8
I20
tp329
a(I10
I8
I20
tp330
a(I4
I7
I20
tp331
a(I14
I1
I20
tp332
a(I-6
I7
I20
tp333
a(I5
I9
I20
tp334
a(I-1
I-8
I20
tp335
a(I-8
I17
I20
tp336
a(I2
I-12
I20
tp337
a(I-2
I-11
I20
tp338
aa(lp339
(I9
I-4
I21
tp340
a(I9
I-10
I21
tp341
a(I11
I2
I21
tp342
a(I9
I-2
I21
tp343
a(I4
I8
I21
tp344
a(I-3
I9
I21
tp345
a(I0
I10
I21
tp346
a(I6
I-12
I21
tp347
a(I15
I3
I21
tp348
a(I15
I-1
I21
tp349
a(I10
I-3
I21
tp350
a(I0
I-11
I21
tp351
a(I8
I-7
I21
tp352
a(I6
I-6
I21
tp353
a(I1
I10
I21
tp354
a(I-8
I5
I21
tp355
a(I-7
I-4
I21
tp356
a(I11
I7
I21
tp357
a(I17
I0
I21
tp358
a(I-7
I6
I21
tp359
a(I7
I9
I21
tp360
a(I6
I10
I21
tp361
a(I2
I-10
I21
tp362
a(I-8
I-1
I21
tp363
a(I12
I5
I21
tp364
a(I9
I-6
I21
tp365
a(I-1
I-5
I21
tp366
a(I13
I-2
I21
tp367
a(I7
I-12
I21
tp368
a(I6
I9
I21
tp369
a(I2
I10
I21
tp370
a(I0
I-15
I21
tp371
a(I7
I-5
I21
tp372
a(I14
I2
I21
tp373
a(I-5
I7
I21
tp374
a(I3
I-12
I21
tp375
aa(lp376
(I10
I4
I22
tp377
a(I0
I-7
I22
tp378
a(I-4
I-9
I22
tp379
a(I-1
I7
I22
tp380
a(I-5
I-6
I22
tp381
a(I-6
I0
I22
tp382
a(I0
I-6
I22
tp383
a(I5
I-3
I22
tp384
a(I-5
I-8
I22
tp385
a(I-2
I-9
I22
tp386
a(I7
I-6
I22
tp387
a(I13
I1
I22
tp388
a(I0
I-23
I22
tp389
a(I-6
I-3
I22
tp390
a(I6
I-3
I22
tp391
a(I4
I10
I22
tp392
a(I-8
I-8
I22
tp393
a(I-1
I-10
I22
tp394
a(I-8
I-5
I22
tp395
a(I9
I5
I22
tp396
a(I-7
I-1
I22
tp397
a(I11
I4
I22
tp398
a(I10
I6
I22
tp399
a(I16
I1
I22
tp400
a(I-7
I-7
I22
tp401
a(I-6
I-11
I22
tp402
a(I10
I-5
I22
tp403
a(I-12
I1
I22
tp404
a(I6
I-4
I22
tp405
a(I12
I2
I22
tp406
a(I-9
I7
I22
tp407
a(I-1
I10
I22
tp408
a(I14
I3
I22
tp409
a(I16
I-3
I22
tp410
a(I-9
I4
I22
tp411
a(I16
I-1
I22
tp412
a(I-10
I7
I22
tp413
a(I8
I9
I22
tp414
a(I6
I11
I22
tp415
a(I9
I-7
I22
tp416
a(I14
I-3
I22
tp417
a(I7
I-13
I22
tp418
a(I19
I9
I22
tp419
aa(lp420
(I17
I7
I23
tp421
a(I9
I-1
I23
tp422
a(I-7
I1
I23
tp423
a(I-7
I3
I23
tp424
a(I13
I3
I23
tp425
a(I1
I-25
I23
tp426
a(I-2
I9
I23
tp427
a(I7
I-10
I23
tp428
a(I-7
I17
I23
tp429
a(I-5
I8
I23
tp430
a(I12
I-5
I23
tp431
a(I-11
I6
I23
tp432
a(I14
I4
I23
tp433
a(I-5
I18
I23
tp434
a(I-5
I-10
I23
tp435
a(I4
I-13
I23
tp436
a(I-8
I0
I23
tp437
a(I9
I6
I23
tp438
a(I-1
I-13
I23
tp439
a(I-8
I8
I23
tp440
a(I11
I6
I23
tp441
a(I15
I1
I23
tp442
a(I-1
I-9
I23
tp443
a(I1
I-11
I23
tp444
a(I10
I-10
I23
tp445
a(I-3
I10
I23
tp446
a(I-3
I12
I23
tp447
a(I8
I-12
I23
tp448
a(I16
I3
I23
tp449
a(I0
I-12
I23
tp450
a(I-8
I-4
I23
tp451
a(I11
I8
I23
tp452
a(I9
I9
I23
tp453
a(I13
I6
I23
tp454
a(I10
I5
I23
tp455
a(I-2
I-10
I23
tp456
a(I13
I2
I23
tp457
a(I-2
I-23
I23
tp458
a(I-6
I-4
I23
tp459
a(I-7
I-8
I23
tp460
a(I-9
I-5
I23
tp461
a(I-5
I-12
I23
tp462
a(I11
I-5
I23
tp463
a(I-11
I1
I23
tp464
a(I-9
I9
I23
tp465
a(I-2
I10
I23
tp466
a(I16
I-4
I23
tp467
a(I-10
I3
I23
tp468
a(I-11
I7
I23
tp469
a(I7
I-15
I23
tp470
a(I18
I9
I23
tp471
aa(lp472
(I-9
I-4
I24
tp473
a(I2
I-9
I24
tp474
a(I14
I-2
I24
tp475
a(I0
I-26
I24
tp476
a(I13
I-3
I24
tp477
a(I9
I-8
I24
tp478
a(I-1
I9
I24
tp479
a(I-9
I6
I24
tp480
a(I14
I-1
I24
tp481
a(I-6
I-12
I24
tp482
a(I-9
I-2
I24
tp483
a(I3
I11
I24
tp484
a(I-7
I7
I24
tp485
a(I-4
I-8
I24
tp486
a(I-8
I16
I24
tp487
a(I1
I-12
I24
tp488
a(I-2
I11
I24
tp489
a(I8
I-15
I24
tp490
a(I15
I4
I24
tp491
a(I19
I1
I24
tp492
a(I7
I10
I24
tp493
a(I12
I6
I24
tp494
a(I-2
I-15
I24
tp495
a(I2
I-13
I24
tp496
a(I-5
I-9
I24
tp497
a(I1
I-10
I24
tp498
a(I0
I-24
I24
tp499
a(I16
I2
I24
tp500
a(I-12
I0
I24
tp501
a(I-8
I4
I24
tp502
a(I20
I20
I24
tp503
a(I7
I11
I24
tp504
a(I20
I10
I24
tp505
a(I16
I9
I24
tp506
a(I-7
I0
I24
tp507
a(I-8
I3
I24
tp508
a(I13
I4
I24
tp509
a(I7
I-11
I24
tp510
a(I-5
I9
I24
tp511
a(I13
I-5
I24
tp512
a(I-13
I6
I24
tp513
a(I-5
I17
I24
tp514
a(I-4
I-10
I24
tp515
a(I-8
I9
I24
tp516
a(I10
I-9
I24
tp517
a(I-6
I10
I24
tp518
a(I9
I-12
I24
tp519
a(I9
I10
I24
tp520
a(I13
I8
I24
tp521
a(I-2
I-24
I24
tp522
a(I-7
I-10
I24
tp523
a(I-9
I1
I24
tp524
a(I-11
I3
I24
tp525
a(I6
I-15
I24
tp526
a(I17
I9
I24
tp527
aa(lp528
(I8
I-5
I25
tp529
a(I13
I0
I25
tp530
a(I-7
I-9
I25
tp531
a(I0
I-10
I25
tp532
a(I-9
I-6
I25
tp533
a(I-10
I5
I25
tp534
a(I3
I12
I25
tp535
a(I10
I9
I25
tp536
a(I-2
I-12
I25
tp537
a(I8
I-10
I25
tp538
a(I13
I-1
I25
tp539
a(I-10
I-4
I25
tp540
a(I17
I-1
I25
tp541
a(I11
I5
I25
tp542
a(I-8
I-16
I25
tp543
a(I17
I-18
I25
tp544
a(I1
I-23
I25
tp545
a(I-5
I-11
I25
tp546
a(I16
I-2
I25
tp547
a(I-9
I3
I25
tp548
a(I19
I6
I25
tp549
a(I18
I7
I25
tp550
a(I-10
I6
I25
tp551
a(I-4
I18
I25
tp552
a(I4
I-14
I25
tp553
a(I-8
I1
I25
tp554
a(I-9
I8
I25
tp555
a(I-4
I10
I25
tp556
a(I-2
I12
I25
tp557
a(I16
I4
I25
tp558
a(I-8
I-3
I25
tp559
a(I-3
I-10
I25
tp560
a(I-11
I-6
I25
tp561
a(I11
I-6
I25
tp562
a(I-12
I8
I25
tp563
a(I8
I-14
I25
tp564
a(I17
I8
I25
tp565
a(I-6
I-13
I25
tp566
a(I-9
I-1
I25
tp567
a(I15
I5
I25
tp568
a(I20
I1
I25
tp569
a(I-2
I-14
I25
tp570
a(I-11
I0
I25
tp571
a(I7
I12
I25
tp572
a(I19
I10
I25
tp573
a(I17
I10
I25
tp574
a(I-13
I7
I25
tp575
a(I9
I-9
I25
tp576
a(I-6
I9
I25
tp577
a(I14
I10
I25
tp578
a(I-3
I-25
I25
tp579
a(I7
I-16
I25
tp580
aa(lp581
(I-3
I-8
I26
tp582
a(I13
I-4
I26
tp583
a(I-2
I-26
I26
tp584
a(I-6
I17
I26
tp585
a(I0
I-13
I26
tp586
a(I12
I-3
I26
tp587
a(I-8
I2
I26
tp588
a(I4
I11
I26
tp589
a(I2
I11
I26
tp590
a(I-9
I17
I26
tp591
a(I9
I-11
I26
tp592
a(I-4
I9
I26
tp593
a(I1
I11
I26
tp594
a(I17
I2
I26
tp595
a(I-9
I0
I26
tp596
a(I0
I-16
I26
tp597
a(I-3
I-9
I26
tp598
a(I0
I-22
I26
tp599
a(I-7
I-2
I26
tp600
a(I-9
I-8
I26
tp601
a(I17
I-3
I26
tp602
a(I-10
I4
I26
tp603
a(I6
I12
I26
tp604
a(I10
I-7
I26
tp605
a(I6
I-13
I26
tp606
a(I19
I8
I26
tp607
a(I17
I6
I26
tp608
a(I-10
I0
I26
tp609
a(I2
I-25
I26
tp610
a(I12
I-4
I26
tp611
a(I14
I5
I26
tp612
a(I3
I-13
I26
tp613
a(I-2
I-13
I26
tp614
a(I10
I-11
I26
tp615
a(I13
I7
I26
tp616
a(I-3
I-22
I26
tp617
a(I14
I-5
I26
tp618
a(I-10
I1
I26
tp619
a(I15
I-4
I26
tp620
a(I18
I10
I26
tp621
a(I-1
I-26
I26
tp622
a(I-7
I-12
I26
tp623
a(I-9
I-3
I26
tp624
a(I8
I-17
I26
tp625
a(I18
I0
I26
tp626
a(I1
I-24
I26
tp627
a(I15
I2
I26
tp628
a(I-12
I-1
I26
tp629
a(I20
I21
I26
tp630
a(I21
I10
I26
tp631
a(I8
I-11
I26
tp632
a(I-9
I12
I26
tp633
a(I-4
I17
I26
tp634
a(I-7
I9
I26
tp635
a(I-5
I10
I26
tp636
a(I9
I-13
I26
tp637
a(I13
I10
I26
tp638
a(I-12
I3
I26
tp639
a(I-9
I-7
I26
tp640
a(I3
I13
I26
tp641
a(I7
I15
I26
tp642
a(I11
I10
I26
tp643
a(I-7
I-16
I26
tp644
a(I1
I-22
I26
tp645
a(I-4
I-11
I26
tp646
a(I-9
I2
I26
tp647
a(I22
I6
I26
tp648
a(I18
I6
I26
tp649
a(I-4
I19
I26
tp650
a(I4
I-15
I26
tp651
a(I-3
I11
I26
tp652
a(I16
I5
I26
tp653
a(I-11
I-5
I26
tp654
a(I-12
I6
I26
tp655
a(I18
I8
I26
tp656
a(I20
I0
I26
tp657
a(I-13
I8
I26
tp658
a(I14
I11
I26
tp659
a(I-3
I-26
I26
tp660
aa(lp661
(I-6
I11
I27
tp662
a(I-2
I-25
I27
tp663
a(I11
I-4
I27
tp664
a(I-10
I-3
I27
tp665
a(I10
I11
I27
tp666
a(I-7
I4
I27
tp667
a(I-6
I8
I27
tp668
a(I0
I11
I27
tp669
a(I-7
I-11
I27
tp670
a(I5
I12
I27
tp671
a(I8
I-13
I27
tp672
a(I1
I-26
I27
tp673
a(I-1
I-14
I27
tp674
a(I11
I-10
I27
tp675
a(I11
I9
I27
tp676
a(I-2
I-22
I27
tp677
a(I-10
I9
I27
tp678
a(I4
I-19
I27
tp679
a(I-8
I-11
I27
tp680
a(I-9
I16
I27
tp681
a(I1
I-14
I27
tp682
a(I19
I2
I27
tp683
a(I12
I7
I27
tp684
a(I1
I-13
I27
tp685
a(I19
I20
I27
tp686
a(I19
I12
I27
tp687
a(I15
I10
I27
tp688
a(I13
I5
I27
tp689
a(I-14
I7
I27
tp690
a(I-4
I16
I27
tp691
a(I-8
I10
I27
tp692
a(I-8
I-10
I27
tp693
a(I6
I-14
I27
tp694
a(I-10
I-6
I27
tp695
a(I-11
I-4
I27
tp696
a(I17
I-2
I27
tp697
a(I-8
I-15
I27
tp698
a(I18
I-18
I27
tp699
a(I19
I7
I27
tp700
a(I17
I3
I27
tp701
a(I-12
I9
I27
tp702
a(I-10
I-1
I27
tp703
a(I15
I6
I27
tp704
a(I-3
I-14
I27
tp705
a(I8
I13
I27
tp706
a(I13
I-10
I27
tp707
a(I-6
I18
I27
tp708
a(I-10
I17
I27
tp709
a(I10
I-15
I27
tp710
a(I18
I1
I27
tp711
a(I-9
I-9
I27
tp712
a(I6
I13
I27
tp713
a(I17
I4
I27
tp714
a(I2
I-24
I27
tp715
a(I14
I6
I27
tp716
a(I-4
I-22
I27
tp717
a(I-10
I2
I27
tp718
a(I14
I-4
I27
tp719
a(I0
I-27
I27
tp720
a(I-8
I-12
I27
tp721
a(I5
I-17
I27
tp722
a(I21
I21
I27
tp723
a(I22
I10
I27
tp724
a(I-7
I8
I27
tp725
a(I10
I-13
I27
tp726
a(I13
I9
I27
tp727
a(I-12
I4
I27
tp728
a(I4
I13
I27
tp729
a(I6
I15
I27
tp730
a(I12
I10
I27
tp731
a(I2
I-22
I27
tp732
a(I23
I6
I27
tp733
a(I-4
I20
I27
tp734
a(I5
I-15
I27
tp735
a(I16
I6
I27
tp736
a(I-10
I-5
I27
tp737
a(I-12
I5
I27
tp738
a(I-14
I8
I27
tp739
a(I13
I11
I27
tp740
a(I-4
I-26
I27
tp741
aa(lp742
(I5
I-13
I28
tp743
a(I15
I-2
I28
tp744
a(I-9
I18
I28
tp745
a(I9
I-5
I28
tp746
a(I-1
I-15
I28
tp747
a(I-1
I-24
I28
tp748
a(I15
I-3
I28
tp749
a(I7
I-14
I28
tp750
a(I-5
I12
I28
tp751
a(I-5
I19
I28
tp752
a(I20
I8
I28
tp753
a(I-9
I-13
I28
tp754
a(I19
I3
I28
tp755
a(I-2
I-16
I28
tp756
a(I18
I11
I28
tp757
a(I-13
I5
I28
tp758
a(I2
I12
I28
tp759
a(I10
I10
I28
tp760
a(I17
I-19
I28
tp761
a(I9
I-14
I28
tp762
a(I-7
I-13
I28
tp763
a(I16
I7
I28
tp764
a(I-1
I-27
I28
tp765
a(I-1
I-22
I28
tp766
a(I18
I-3
I28
tp767
a(I10
I-8
I28
tp768
a(I-3
I-13
I28
tp769
a(I10
I-12
I28
tp770
a(I14
I7
I28
tp771
a(I-1
I-25
I28
tp772
a(I8
I-16
I28
tp773
a(I19
I0
I28
tp774
a(I-13
I-1
I28
tp775
a(I25
I10
I28
tp776
a(I-9
I11
I28
tp777
a(I-3
I17
I28
tp778
a(I-14
I2
I28
tp779
a(I2
I13
I28
tp780
a(I6
I14
I28
tp781
a(I-7
I-15
I28
tp782
a(I1
I-21
I28
tp783
a(I3
I-14
I28
tp784
a(I-12
I-5
I28
tp785
a(I-13
I9
I28
tp786
a(I15
I11
I28
tp787
a(I-11
I-3
I28
tp788
a(I-5
I11
I28
tp789
a(I2
I-14
I28
tp790
a(I-9
I10
I28
tp791
a(I1
I-19
I28
tp792
a(I-10
I-10
I28
tp793
a(I20
I2
I28
tp794
a(I18
I20
I28
tp795
a(I19
I13
I28
tp796
a(I-14
I6
I28
tp797
a(I-8
I-14
I28
tp798
a(I18
I-16
I28
tp799
a(I10
I17
I28
tp800
a(I14
I-10
I28
tp801
a(I-10
I16
I28
tp802
a(I10
I-14
I28
tp803
a(I2
I-23
I28
tp804
a(I1
I-27
I28
tp805
a(I21
I20
I28
tp806
a(I11
I-13
I28
tp807
a(I-11
I4
I28
tp808
a(I3
I-23
I28
tp809
a(I-4
I23
I28
tp810
a(I-14
I9
I28
tp811
a(I-4
I-27
I28
tp812
aa(lp813
(I-3
I-11
I29
tp814
a(I1
I-15
I29
tp815
a(I-7
I-3
I29
tp816
a(I17
I1
I29
tp817
a(I-12
I2
I29
tp818
a(I-7
I16
I29
tp819
a(I-4
I12
I29
tp820
a(I12
I8
I29
tp821
a(I-2
I-21
I29
tp822
a(I-11
I2
I29
tp823
a(I16
I-5
I29
tp824
a(I-12
I7
I29
tp825
a(I-10
I-2
I29
tp826
a(I20
I18
I29
tp827
a(I11
I12
I29
tp828
a(I21
I9
I29
tp829
a(I9
I11
I29
tp830
a(I14
I8
I29
tp831
a(I19
I5
I29
tp832
a(I-7
I12
I29
tp833
a(I0
I12
I29
tp834
a(I12
I-6
I29
tp835
a(I-5
I-13
I29
tp836
a(I15
I7
I29
tp837
a(I20
I5
I29
tp838
a(I14
I9
I29
tp839
a(I-8
I-25
I29
tp840
a(I0
I-21
I29
tp841
a(I12
I-7
I29
tp842
a(I14
I-6
I29
tp843
a(I11
I-19
I29
tp844
a(I-11
I-1
I29
tp845
a(I-10
I12
I29
tp846
a(I-10
I-7
I29
tp847
a(I8
I15
I29
tp848
a(I11
I11
I29
tp849
a(I5
I-14
I29
tp850
a(I5
I11
I29
tp851
a(I0
I-17
I29
tp852
a(I1
I-28
I29
tp853
a(I12
I-10
I29
tp854
a(I11
I14
I29
tp855
a(I-10
I10
I29
tp856
a(I2
I-21
I29
tp857
a(I-10
I-11
I29
tp858
a(I19
I19
I29
tp859
a(I18
I12
I29
tp860
a(I-3
I16
I29
tp861
a(I-11
I-2
I29
tp862
a(I18
I-2
I29
tp863
a(I18
I-17
I29
tp864
a(I8
I14
I29
tp865
a(I13
I-11
I29
tp866
a(I10
I-18
I29
tp867
a(I-8
I-9
I29
tp868
a(I17
I5
I29
tp869
a(I0
I-30
I29
tp870
a(I-8
I-13
I29
tp871
a(I6
I-17
I29
tp872
a(I22
I11
I29
tp873
a(I-13
I3
I29
tp874
a(I5
I13
I29
tp875
a(I5
I15
I29
tp876
a(I23
I3
I29
tp877
a(I5
I-16
I29
tp878
a(I-4
I-25
I29
tp879
a(I-1
I-16
I29
tp880
a(I21
I8
I29
tp881
a(I-9
I-14
I29
tp882
a(I11
I-12
I29
tp883
a(I-13
I-2
I29
tp884
a(I25
I11
I29
tp885
a(I-13
I1
I29
tp886
a(I4
I12
I29
tp887
a(I7
I14
I29
tp888
a(I1
I-20
I29
tp889
a(I-13
I-3
I29
tp890
a(I16
I11
I29
tp891
a(I-12
I-10
I29
tp892
a(I-9
I-18
I29
tp893
a(I11
I17
I29
tp894
a(I15
I-10
I29
tp895
a(I12
I-12
I29
tp896
a(I3
I-21
I29
tp897
a(I-4
I25
I29
tp898
aa(lp899
(I4
I-16
I30
tp900
a(I-7
I19
I30
tp901
a(I-11
I-21
I30
tp902
a(I3
I-25
I30
tp903
a(I-3
I13
I30
tp904
a(I-3
I-23
I30
tp905
a(I-6
I-14
I30
tp906
a(I-1
I-23
I30
tp907
a(I-13
I0
I30
tp908
a(I-11
I5
I30
tp909
a(I-9
I-15
I30
tp910
a(I-3
I18
I30
tp911
a(I-2
I13
I30
tp912
a(I16
I8
I30
tp913
a(I-4
I-12
I30
tp914
a(I7
I13
I30
tp915
a(I19
I11
I30
tp916
a(I0
I-14
I30
tp917
a(I-11
I-9
I30
tp918
a(I8
I12
I30
tp919
a(I11
I-11
I30
tp920
a(I7
I-17
I30
tp921
a(I21
I11
I30
tp922
a(I-12
I14
I30
tp923
a(I12
I9
I30
tp924
a(I21
I6
I30
tp925
a(I19
I-1
I30
tp926
a(I-7
I11
I30
tp927
a(I-11
I9
I30
tp928
a(I5
I-19
I30
tp929
a(I-5
I-17
I30
tp930
a(I18
I2
I30
tp931
a(I-15
I9
I30
tp932
a(I-6
I15
I30
tp933
a(I-4
I-13
I30
tp934
a(I-16
I18
I30
tp935
a(I10
I-16
I30
tp936
a(I18
I4
I30
tp937
a(I-9
I-12
I30
tp938
a(I21
I22
I30
tp939
a(I22
I9
I30
tp940
a(I5
I14
I30
tp941
a(I24
I6
I30
tp942
a(I-9
I19
I30
tp943
a(I-6
I12
I30
tp944
a(I-6
I20
I30
tp945
a(I-3
I-16
I30
tp946
a(I17
I11
I30
tp947
a(I-14
I5
I30
tp948
a(I9
I-15
I30
tp949
a(I25
I9
I30
tp950
a(I-11
I10
I30
tp951
a(I-13
I2
I30
tp952
a(I2
I15
I30
tp953
a(I-12
I-4
I30
tp954
a(I-12
I-3
I30
tp955
a(I1
I-18
I30
tp956
a(I-10
I-9
I30
tp957
a(I18
I19
I30
tp958
a(I-7
I-14
I30
tp959
a(I9
I17
I30
tp960
a(I3
I-22
I30
tp961
a(I1
I-16
I30
tp962
a(I-7
I15
I30
tp963
a(I-4
I11
I30
tp964
a(I19
I18
I30
tp965
a(I11
I13
I30
tp966
a(I15
I8
I30
tp967
a(I-5
I16
I30
tp968
a(I-1
I12
I30
tp969
a(I-11
I12
I30
tp970
a(I-11
I-7
I30
tp971
a(I8
I16
I30
tp972
a(I1
I-17
I30
tp973
a(I2
I-20
I30
tp974
a(I20
I19
I30
tp975
a(I-1
I17
I30
tp976
a(I21
I-18
I30
tp977
a(I-1
I-30
I30
tp978
a(I6
I-16
I30
tp979
a(I23
I10
I30
tp980
a(I5
I16
I30
tp981
a(I-4
I-24
I30
tp982
a(I21
I7
I30
tp983
a(I26
I11
I30
tp984
a(I-13
I-4
I30
tp985
a(I-12
I-9
I30
tp986
a(I12
I17
I30
tp987
a(I13
I-12
I30
tp988
a(I4
I-21
I30
tp989
a(I-4
I24
I30
tp990
aa(lp991
(I-13
I13
I31
tp992
a(I20
I9
I31
tp993
a(I2
I-27
I31
tp994
a(I22
I20
I31
tp995
a(I15
I9
I31
tp996
a(I18
I-1
I31
tp997
a(I16
I-18
I31
tp998
a(I-3
I-15
I31
tp999
a(I-3
I-21
I31
tp1000
a(I15
I-5
I31
tp1001
a(I8
I-18
I31
tp1002
a(I-12
I-2
I31
tp1003
a(I20
I23
I31
tp1004
a(I3
I14
I31
tp1005
a(I7
I16
I31
tp1006
a(I18
I5
I31
tp1007
a(I-3
I-27
I31
tp1008
a(I0
I-29
I31
tp1009
a(I-9
I15
I31
tp1010
a(I19
I21
I31
tp1011
a(I20
I12
I31
tp1012
a(I-15
I7
I31
tp1013
a(I-4
I15
I31
tp1014
a(I14
I-11
I31
tp1015
a(I-10
I18
I31
tp1016
a(I2
I-31
I31
tp1017
a(I-4
I-21
I31
tp1018
a(I-13
I4
I31
tp1019
a(I-5
I20
I31
tp1020
a(I-5
I-27
I31
tp1021
a(I-10
I-13
I31
tp1022
a(I20
I3
I31
tp1023
a(I10
I12
I31
tp1024
a(I16
I-19
I31
tp1025
a(I-1
I-21
I31
tp1026
a(I19
I-3
I31
tp1027
a(I11
I-15
I31
tp1028
a(I9
I-16
I31
tp1029
a(I-14
I11
I31
tp1030
a(I17
I20
I31
tp1031
a(I19
I14
I31
tp1032
a(I18
I-15
I31
tp1033
a(I-11
I16
I31
tp1034
a(I6
I-20
I31
tp1035
a(I0
I-28
I31
tp1036
a(I12
I-13
I31
tp1037
a(I4
I-23
I31
tp1038
a(I-3
I23
I31
tp1039
a(I-3
I-12
I31
tp1040
a(I-2
I-20
I31
tp1041
a(I9
I12
I31
tp1042
a(I-5
I-14
I31
tp1043
a(I15
I-6
I31
tp1044
a(I10
I-21
I31
tp1045
a(I-1
I-18
I31
tp1046
a(I1
I-29
I31
tp1047
a(I10
I-17
I31
tp1048
a(I23
I11
I31
tp1049
a(I4
I15
I31
tp1050
a(I23
I2
I31
tp1051
a(I22
I8
I31
tp1052
a(I-14
I1
I31
tp1053
a(I0
I-20
I31
tp1054
a(I16
I10
I31
tp1055
a(I11
I16
I31
tp1056
a(I3
I-20
I31
tp1057
a(I-4
I26
I31
tp1058
a(I-11
I-19
I31
tp1059
a(I3
I-24
I31
tp1060
a(I-3
I-24
I31
tp1061
a(I-2
I-19
I31
tp1062
a(I-15
I0
I31
tp1063
a(I-1
I13
I31
tp1064
a(I-11
I-10
I31
tp1065
a(I7
I-18
I31
tp1066
a(I-12
I15
I31
tp1067
a(I-5
I-18
I31
tp1068
a(I-5
I15
I31
tp1069
a(I-4
I-14
I31
tp1070
a(I-15
I18
I31
tp1071
a(I21
I4
I31
tp1072
a(I21
I24
I31
tp1073
a(I25
I6
I31
tp1074
a(I-7
I20
I31
tp1075
a(I-4
I-16
I31
tp1076
a(I-15
I6
I31
tp1077
a(I25
I8
I31
tp1078
a(I0
I-18
I31
tp1079
a(I-8
I15
I31
tp1080
a(I18
I18
I31
tp1081
a(I-6
I16
I31
tp1082
a(I-11
I11
I31
tp1083
a(I3
I-19
I31
tp1084
a(I21
I18
I31
tp1085
a(I21
I-17
I31
tp1086
a(I-4
I-29
I31
tp1087
a(I-13
I-5
I31
tp1088
a(I12
I16
I31
tp1089
aa(lp1090
(I-10
I13
I32
tp1091
a(I2
I-15
I32
tp1092
a(I8
I10
I32
tp1093
a(I20
I11
I32
tp1094
a(I24
I7
I32
tp1095
a(I11
I-9
I32
tp1096
a(I-11
I8
I32
tp1097
a(I-2
I-27
I32
tp1098
a(I-11
I18
I32
tp1099
a(I1
I12
I32
tp1100
a(I22
I2
I32
tp1101
a(I2
I-26
I32
tp1102
a(I7
I-19
I32
tp1103
a(I-8
I12
I32
tp1104
a(I22
I1
I32
tp1105
a(I-21
I7
I32
tp1106
a(I18
I3
I32
tp1107
a(I9
I13
I32
tp1108
a(I-11
I17
I32
tp1109
a(I11
I-16
I32
tp1110
a(I12
I11
I32
tp1111
a(I-12
I19
I32
tp1112
a(I19
I4
I32
tp1113
a(I18
I15
I32
tp1114
a(I11
I-8
I32
tp1115
a(I26
I9
I32
tp1116
a(I2
I14
I32
tp1117
a(I15
I12
I32
tp1118
a(I18
I21
I32
tp1119
a(I17
I12
I32
tp1120
a(I-14
I4
I32
tp1121
a(I10
I18
I32
tp1122
a(I-5
I23
I32
tp1123
a(I-4
I-28
I32
tp1124
a(I17
I-5
I32
tp1125
a(I12
I12
I32
tp1126
a(I0
I13
I32
tp1127
a(I-8
I-24
I32
tp1128
a(I11
I-7
I32
tp1129
a(I13
I-6
I32
tp1130
a(I11
I-18
I32
tp1131
a(I9
I16
I32
tp1132
a(I-1
I-17
I32
tp1133
a(I12
I14
I32
tp1134
a(I-10
I11
I32
tp1135
a(I-9
I-10
I32
tp1136
a(I14
I-15
I32
tp1137
a(I12
I-11
I32
tp1138
a(I1
I-30
I32
tp1139
a(I23
I4
I32
tp1140
a(I-9
I-17
I32
tp1141
a(I16
I-8
I32
tp1142
a(I-6
I19
I32
tp1143
a(I-11
I-22
I32
tp1144
a(I4
I-24
I32
tp1145
a(I-3
I14
I32
tp1146
a(I-4
I-23
I32
tp1147
a(I-9
I-16
I32
tp1148
a(I8
I11
I32
tp1149
a(I5
I-20
I32
tp1150
a(I-6
I14
I32
tp1151
a(I-16
I19
I32
tp1152
a(I-10
I20
I32
tp1153
a(I2
I-17
I32
tp1154
a(I8
I17
I32
tp1155
a(I-7
I14
I32
tp1156
a(I2
I-18
I32
tp1157
a(I23
I17
I32
tp1158
a(I-1
I20
I32
tp1159
a(I12
I18
I32
tp1160
a(I13
I-14
I32
tp1161
a(I3
I-18
I32
tp1162
a(I-13
I14
I32
tp1163
a(I9
I-17
I32
tp1164
a(I21
I23
I32
tp1165
a(I-9
I14
I32
tp1166
a(I20
I13
I32
tp1167
a(I-16
I7
I32
tp1168
a(I3
I-31
I32
tp1169
a(I-4
I-20
I32
tp1170
a(I-8
I19
I32
tp1171
a(I-11
I-14
I32
tp1172
a(I17
I-16
I32
tp1173
a(I-14
I12
I32
tp1174
a(I-2
I23
I32
tp1175
a(I-3
I-20
I32
tp1176
a(I10
I-22
I32
tp1177
a(I-2
I-18
I32
tp1178
a(I-14
I0
I32
tp1179
a(I-4
I27
I32
tp1180
a(I-4
I-18
I32
tp1181
a(I-15
I19
I32
tp1182
a(I-4
I-15
I32
tp1183
a(I0
I-19
I32
tp1184
a(I17
I18
I32
tp1185
a(I-3
I-29
I32
tp1186
aa(lp1187
(I17
I-4
I33
tp1188
a(I29
I10
I33
tp1189
a(I12
I-9
I33
tp1190
a(I-7
I10
I33
tp1191
a(I-15
I-8
I33
tp1192
a(I21
I0
I33
tp1193
a(I11
I-21
I33
tp1194
a(I4
I14
I33
tp1195
a(I-5
I-22
I33
tp1196
a(I22
I21
I33
tp1197
a(I23
I7
I33
tp1198
a(I-3
I20
I33
tp1199
a(I3
I-15
I33
tp1200
a(I18
I-19
I33
tp1201
a(I-1
I-28
I33
tp1202
a(I18
I-4
I33
tp1203
a(I26
I10
I33
tp1204
a(I-14
I3
I33
tp1205
a(I1
I13
I33
tp1206
a(I-13
I10
I33
tp1207
a(I21
I2
I33
tp1208
a(I19
I-15
I33
tp1209
a(I14
I-9
I33
tp1210
a(I-12
I16
I33
tp1211
a(I12
I-14
I33
tp1212
a(I20
I17
I33
tp1213
a(I20
I6
I33
tp1214
a(I-8
I-23
I33
tp1215
a(I12
I-8
I33
tp1216
a(I14
I-7
I33
tp1217
a(I11
I-20
I33
tp1218
a(I-12
I-7
I33
tp1219
a(I9
I15
I33
tp1220
a(I-9
I-11
I33
tp1221
a(I16
I12
I33
tp1222
a(I-2
I16
I33
tp1223
a(I19
I-2
I33
tp1224
a(I1
I-32
I33
tp1225
a(I24
I3
I33
tp1226
a(I-5
I-25
I33
tp1227
a(I-14
I-2
I33
tp1228
a(I15
I-11
I33
tp1229
a(I4
I-17
I33
tp1230
a(I-10
I-21
I33
tp1231
a(I3
I-26
I33
tp1232
a(I-5
I-16
I33
tp1233
a(I-15
I17
I33
tp1234
a(I9
I21
I33
tp1235
a(I22
I7
I33
tp1236
a(I-10
I-8
I33
tp1237
a(I17
I19
I33
tp1238
a(I-11
I13
I33
tp1239
a(I21
I19
I33
tp1240
a(I-1
I16
I33
tp1241
a(I-5
I-24
I33
tp1242
a(I27
I11
I33
tp1243
a(I14
I-12
I33
tp1244
a(I5
I-21
I33
tp1245
a(I-12
I13
I33
tp1246
a(I3
I-28
I33
tp1247
a(I23
I20
I33
tp1248
a(I3
I15
I33
tp1249
a(I5
I18
I33
tp1250
a(I19
I22
I33
tp1251
a(I-10
I14
I33
tp1252
a(I16
I-11
I33
tp1253
a(I-10
I-12
I33
tp1254
a(I10
I13
I33
tp1255
a(I16
I-20
I33
tp1256
a(I-15
I11
I33
tp1257
a(I15
I20
I33
tp1258
a(I-11
I15
I33
tp1259
a(I7
I-20
I33
tp1260
a(I5
I-24
I33
tp1261
a(I9
I-21
I33
tp1262
a(I23
I1
I33
tp1263
a(I-1
I-20
I33
tp1264
a(I-10
I-19
I33
tp1265
a(I-1
I-19
I33
tp1266
a(I-13
I15
I33
tp1267
a(I-6
I-18
I33
tp1268
a(I21
I3
I33
tp1269
a(I21
I26
I33
tp1270
a(I25
I7
I33
tp1271
a(I-7
I21
I33
tp1272
a(I-15
I5
I33
tp1273
a(I18
I17
I33
tp1274
a(I-12
I11
I33
tp1275
a(I21
I-16
I33
tp1276
a(I-14
I-5
I33
tp1277
a(I13
I15
I33
tp1278
a(I-10
I8
I33
tp1279
a(I21
I1
I33
tp1280
a(I-22
I7
I33
tp1281
a(I-13
I19
I33
tp1282
a(I17
I15
I33
tp1283
a(I14
I12
I33
tp1284
a(I17
I13
I33
tp1285
a(I10
I19
I33
tp1286
a(I13
I12
I33
tp1287
a(I12
I-18
I33
tp1288
a(I13
I-15
I33
tp1289
a(I23
I5
I33
tp1290
a(I16
I-7
I33
tp1291
a(I-6
I13
I33
tp1292
a(I-11
I20
I33
tp1293
a(I-1
I19
I33
tp1294
a(I12
I19
I33
tp1295
a(I3
I-17
I33
tp1296
a(I5
I-25
I33
tp1297
a(I27
I26
I33
tp1298
a(I-16
I8
I33
tp1299
a(I3
I-30
I33
tp1300
a(I-11
I-15
I33
tp1301
a(I17
I-15
I33
tp1302
a(I-1
I23
I33
tp1303
a(I-5
I27
I33
tp1304
a(I2
I-19
I33
tp1305
aa(lp1306
(I-2
I-28
I34
tp1307
a(I-8
I11
I34
tp1308
a(I-6
I-16
I34
tp1309
a(I6
I-19
I34
tp1310
a(I23
I12
I34
tp1311
a(I14
I-18
I34
tp1312
a(I17
I-24
I34
tp1313
a(I20
I-1
I34
tp1314
a(I24
I12
I34
tp1315
a(I-6
I-15
I34
tp1316
a(I18
I13
I34
tp1317
a(I-4
I22
I34
tp1318
a(I15
I13
I34
tp1319
a(I-9
I-25
I34
tp1320
a(I13
I-8
I34
tp1321
a(I-5
I13
I34
tp1322
a(I-12
I-8
I34
tp1323
a(I-8
I-18
I34
tp1324
a(I13
I16
I34
tp1325
a(I-10
I-20
I34
tp1326
a(I4
I-25
I34
tp1327
a(I-11
I-8
I34
tp1328
a(I-16
I3
I34
tp1329
a(I5
I-18
I34
tp1330
a(I-17
I18
I34
tp1331
a(I5
I-22
I34
tp1332
a(I2
I-16
I34
tp1333
a(I12
I13
I34
tp1334
a(I-13
I-8
I34
tp1335
a(I18
I22
I34
tp1336
a(I-2
I17
I34
tp1337
a(I20
I-18
I34
tp1338
a(I-2
I-30
I34
tp1339
a(I24
I10
I34
tp1340
a(I17
I-12
I34
tp1341
a(I4
I-20
I34
tp1342
a(I-5
I24
I34
tp1343
a(I-13
I12
I34
tp1344
a(I3
I-27
I34
tp1345
a(I19
I-4
I34
tp1346
a(I15
I-18
I34
tp1347
a(I8
I-21
I34
tp1348
a(I-17
I-2
I34
tp1349
a(I20
I24
I34
tp1350
a(I20
I15
I34
tp1351
a(I-5
I21
I34
tp1352
a(I-7
I-25
I34
tp1353
a(I-10
I-14
I34
tp1354
a(I12
I-15
I34
tp1355
a(I-13
I11
I34
tp1356
a(I13
I-13
I34
tp1357
a(I5
I-23
I34
tp1358
a(I11
I-17
I34
tp1359
a(I12
I15
I34
tp1360
a(I-3
I-19
I34
tp1361
a(I-15
I1
I34
tp1362
a(I-11
I14
I34
tp1363
a(I-5
I-19
I34
tp1364
a(I20
I4
I34
tp1365
a(I25
I5
I34
tp1366
a(I-4
I-17
I34
tp1367
a(I27
I8
I34
tp1368
a(I8
I-19
I34
tp1369
a(I-8
I13
I34
tp1370
a(I-21
I8
I34
tp1371
a(I-12
I18
I34
tp1372
a(I18
I14
I34
tp1373
a(I9
I18
I34
tp1374
a(I19
I-5
I34
tp1375
a(I0
I14
I34
tp1376
a(I15
I-15
I34
tp1377
a(I15
I-8
I34
tp1378
a(I-11
I-23
I34
tp1379
a(I-3
I15
I34
tp1380
a(I-16
I20
I34
tp1381
a(I-13
I20
I34
tp1382
a(I0
I19
I34
tp1383
a(I13
I18
I34
tp1384
a(I-14
I14
I34
tp1385
a(I5
I-31
I34
tp1386
a(I-8
I20
I34
tp1387
a(I-11
I-13
I34
tp1388
a(I-16
I1
I34
tp1389
a(I-5
I26
I34
tp1390
a(I-16
I21
I34
tp1391
a(I17
I17
I34
tp1392
a(I30
I9
I34
tp1393
a(I-15
I-7
I34
tp1394
a(I23
I21
I34
tp1395
a(I-3
I21
I34
tp1396
a(I-1
I-29
I34
tp1397
a(I26
I12
I34
tp1398
a(I19
I-16
I34
tp1399
a(I20
I16
I34
tp1400
a(I-13
I-31
I34
tp1401
a(I9
I14
I34
tp1402
a(I16
I13
I34
tp1403
a(I20
I-2
I34
tp1404
a(I0
I-33
I34
tp1405
a(I-6
I-25
I34
tp1406
a(I-10
I-22
I34
tp1407
a(I9
I22
I34
tp1408
a(I16
I19
I34
tp1409
a(I0
I16
I34
tp1410
a(I-5
I-23
I34
tp1411
a(I15
I-12
I34
tp1412
a(I3
I16
I34
tp1413
a(I-10
I15
I34
tp1414
a(I14
I-20
I34
tp1415
a(I8
I-20
I34
tp1416
a(I24
I1
I34
tp1417
a(I-9
I-19
I34
tp1418
a(I22
I26
I34
tp1419
a(I-15
I4
I34
tp1420
a(I19
I17
I34
tp1421
a(I22
I-16
I34
tp1422
a(I-19
I2
I34
tp1423
a(I13
I14
I34
tp1424
a(I-22
I8
I34
tp1425
a(I17
I16
I34
tp1426
a(I-2
I18
I34
tp1427
a(I11
I19
I34
tp1428
a(I6
I-25
I34
tp1429
a(I25
I26
I34
tp1430
a(I-16
I9
I34
tp1431
a(I2
I-30
I34
tp1432
a(I-12
I-16
I34
tp1433
a(I-1
I22
I34
tp1434
a(I-5
I28
I34
tp1435
aa(lp1436
(I17
I-17
I35
tp1437
a(I-3
I19
I35
tp1438
a(I6
I16
I35
tp1439
a(I-5
I-26
I35
tp1440
a(I-2
I-17
I35
tp1441
a(I-17
I9
I35
tp1442
a(I21
I5
I35
tp1443
a(I-11
I-11
I35
tp1444
a(I19
I-17
I35
tp1445
a(I10
I-19
I35
tp1446
a(I27
I10
I35
tp1447
a(I-5
I25
I35
tp1448
a(I-12
I-21
I35
tp1449
a(I21
I12
I35
tp1450
a(I2
I16
I35
tp1451
a(I0
I17
I35
tp1452
a(I6
I-18
I35
tp1453
a(I6
I17
I35
tp1454
a(I23
I9
I35
tp1455
a(I13
I17
I35
tp1456
a(I-3
I24
I35
tp1457
a(I2
I-28
I35
tp1458
a(I16
I-17
I35
tp1459
a(I3
I-29
I35
tp1460
a(I11
I-14
I35
tp1461
a(I6
I-21
I35
tp1462
a(I-5
I-15
I35
tp1463
a(I11
I15
I35
tp1464
a(I-12
I-19
I35
tp1465
a(I-16
I0
I35
tp1466
a(I-5
I14
I35
tp1467
a(I-15
I16
I35
tp1468
a(I22
I24
I35
tp1469
a(I26
I7
I35
tp1470
a(I-18
I4
I35
tp1471
a(I26
I8
I35
tp1472
a(I21
I17
I35
tp1473
a(I-5
I-29
I35
tp1474
a(I12
I-16
I35
tp1475
a(I16
I15
I35
tp1476
a(I9
I19
I35
tp1477
a(I18
I-5
I35
tp1478
a(I10
I16
I35
tp1479
a(I1
I-31
I35
tp1480
a(I26
I1
I35
tp1481
a(I16
I-9
I35
tp1482
a(I-11
I-24
I35
tp1483
a(I23
I18
I35
tp1484
a(I4
I-18
I35
tp1485
a(I22
I23
I35
tp1486
a(I-8
I14
I35
tp1487
a(I21
I13
I35
tp1488
a(I16
I-13
I35
tp1489
a(I-15
I13
I35
tp1490
a(I-2
I24
I35
tp1491
a(I11
I-22
I35
tp1492
a(I-3
I-30
I35
tp1493
a(I29
I11
I35
tp1494
a(I15
I-9
I35
tp1495
a(I21
I-2
I35
tp1496
a(I18
I-20
I35
tp1497
a(I-14
I10
I35
tp1498
a(I25
I2
I35
tp1499
a(I-7
I-23
I35
tp1500
a(I-2
I15
I35
tp1501
a(I0
I-32
I35
tp1502
a(I24
I4
I35
tp1503
a(I4
I-26
I35
tp1504
a(I9
I20
I35
tp1505
a(I22
I19
I35
tp1506
a(I4
I18
I35
tp1507
a(I19
I23
I35
tp1508
a(I17
I-20
I35
tp1509
a(I23
I0
I35
tp1510
a(I-10
I-18
I35
tp1511
a(I-6
I-17
I35
tp1512
a(I21
I25
I35
tp1513
a(I-16
I5
I35
tp1514
a(I-15
I-6
I35
tp1515
a(I-22
I6
I35
tp1516
a(I17
I14
I35
tp1517
a(I14
I14
I35
tp1518
a(I24
I5
I35
tp1519
a(I16
I-6
I35
tp1520
a(I-11
I19
I35
tp1521
a(I33
I23
I35
tp1522
a(I-11
I-16
I35
tp1523
a(I17
I-14
I35
tp1524
a(I-9
I27
I35
tp1525
a(I14
I-17
I35
tp1526
a(I19
I-23
I35
tp1527
a(I25
I12
I35
tp1528
a(I14
I13
I35
tp1529
a(I-9
I-24
I35
tp1530
a(I14
I-8
I35
tp1531
a(I-4
I13
I35
tp1532
a(I14
I16
I35
tp1533
a(I-26
I-2
I35
tp1534
a(I-17
I19
I35
tp1535
a(I4
I-22
I35
tp1536
a(I13
I13
I35
tp1537
a(I19
I-18
I35
tp1538
a(I18
I-12
I35
tp1539
a(I9
I-22
I35
tp1540
a(I-17
I-3
I35
tp1541
a(I-4
I-19
I35
tp1542
a(I-5
I-20
I35
tp1543
a(I26
I5
I35
tp1544
a(I27
I7
I35
tp1545
a(I-9
I13
I35
tp1546
a(I-20
I8
I35
tp1547
a(I-13
I18
I35
tp1548
a(I1
I17
I35
tp1549
a(I-14
I20
I35
tp1550
a(I-14
I15
I35
tp1551
a(I4
I-31
I35
tp1552
a(I-12
I-11
I35
tp1553
a(I-17
I1
I35
tp1554
a(I16
I17
I35
tp1555
a(I29
I9
I35
tp1556
a(I23
I22
I35
tp1557
a(I27
I12
I35
tp1558
a(I-7
I-31
I35
tp1559
a(I20
I-3
I35
tp1560
a(I-8
I-22
I35
tp1561
a(I14
I-13
I35
tp1562
a(I14
I-19
I35
tp1563
a(I21
I27
I35
tp1564
a(I-16
I4
I35
tp1565
a(I-18
I2
I35
tp1566
a(I14
I15
I35
tp1567
a(I6
I-26
I35
tp1568
a(I26
I26
I35
tp1569
a(I-16
I10
I35
tp1570
a(I-13
I-16
I35
tp1571
a(I-1
I21
I35
tp1572
aa(lp1573
(I26
I-1
I36
tp1574
a(I20
I7
I36
tp1575
a(I-4
I21
I36
tp1576
a(I3
I-16
I36
tp1577
a(I12
I-19
I36
tp1578
a(I22
I3
I36
tp1579
a(I24
I11
I36
tp1580
a(I-10
I-17
I36
tp1581
a(I-2
I26
I36
tp1582
a(I-12
I-22
I36
tp1583
a(I-16
I17
I36
tp1584
a(I24
I9
I36
tp1585
a(I19
I16
I36
tp1586
a(I-1
I11
I36
tp1587
a(I-12
I12
I36
tp1588
a(I25
I-20
I36
tp1589
a(I-3
I-28
I36
tp1590
a(I2
I-33
I36
tp1591
a(I-3
I-18
I36
tp1592
a(I-15
I-1
I36
tp1593
a(I-8
I22
I36
tp1594
a(I24
I8
I36
tp1595
a(I-15
I-4
I36
tp1596
a(I22
I12
I36
tp1597
a(I17
I21
I36
tp1598
a(I-15
I10
I36
tp1599
a(I11
I18
I36
tp1600
a(I-6
I23
I36
tp1601
a(I6
I-24
I36
tp1602
a(I-7
I13
I36
tp1603
a(I15
I-14
I36
tp1604
a(I-17
I7
I36
tp1605
a(I3
I-32
I36
tp1606
a(I17
I-13
I36
tp1607
a(I-2
I22
I36
tp1608
a(I-4
I28
I36
tp1609
a(I-14
I19
I36
tp1610
a(I-2
I-29
I36
tp1611
a(I22
I0
I36
tp1612
a(I4
I17
I36
tp1613
a(I22
I22
I36
tp1614
a(I19
I-19
I36
tp1615
a(I1
I14
I36
tp1616
a(I19
I-14
I36
tp1617
a(I-14
I16
I36
tp1618
a(I18
I-14
I36
tp1619
a(I12
I-20
I36
tp1620
a(I-12
I-6
I36
tp1621
a(I1
I-33
I36
tp1622
a(I25
I3
I36
tp1623
a(I-14
I-3
I36
tp1624
a(I10
I21
I36
tp1625
a(I7
I-21
I36
tp1626
a(I23
I19
I36
tp1627
a(I6
I18
I36
tp1628
a(I16
I-12
I36
tp1629
a(I15
I19
I36
tp1630
a(I22
I4
I36
tp1631
a(I-12
I10
I36
tp1632
a(I21
I-15
I36
tp1633
a(I-14
I-6
I36
tp1634
a(I17
I-7
I36
tp1635
a(I-10
I21
I36
tp1636
a(I12
I20
I36
tp1637
a(I2
I-29
I36
tp1638
a(I-6
I27
I36
tp1639
a(I23
I13
I36
tp1640
a(I16
I-24
I36
tp1641
a(I-16
I2
I36
tp1642
a(I19
I24
I36
tp1643
a(I20
I14
I36
tp1644
a(I14
I-14
I36
tp1645
a(I-6
I-19
I36
tp1646
a(I28
I7
I36
tp1647
a(I-1
I14
I36
tp1648
a(I16
I-15
I36
tp1649
a(I-12
I-23
I36
tp1650
a(I-17
I20
I36
tp1651
a(I-13
I21
I36
tp1652
a(I0
I18
I36
tp1653
a(I-14
I13
I36
tp1654
a(I5
I-30
I36
tp1655
a(I-12
I-13
I36
tp1656
a(I-15
I21
I36
tp1657
a(I-17
I-8
I36
tp1658
a(I-3
I22
I36
tp1659
a(I21
I16
I36
tp1660
a(I-13
I-32
I36
tp1661
a(I10
I14
I36
tp1662
a(I8
I21
I36
tp1663
a(I1
I16
I36
tp1664
a(I23
I26
I36
tp1665
a(I-23
I8
I36
tp1666
a(I5
I-26
I36
tp1667
a(I-1
I28
I36
tp1668
a(I-18
I9
I36
tp1669
a(I20
I-17
I36
tp1670
a(I9
I-19
I36
tp1671
a(I27
I9
I36
tp1672
a(I-6
I25
I36
tp1673
a(I21
I14
I36
tp1674
a(I15
I-17
I36
tp1675
a(I23
I23
I36
tp1676
a(I26
I6
I36
tp1677
a(I-19
I4
I36
tp1678
a(I16
I14
I36
tp1679
a(I0
I-31
I36
tp1680
a(I26
I0
I36
tp1681
a(I-10
I-24
I36
tp1682
a(I22
I18
I36
tp1683
a(I22
I13
I36
tp1684
a(I15
I-13
I36
tp1685
a(I30
I11
I36
tp1686
a(I-7
I-22
I36
tp1687
a(I-1
I15
I36
tp1688
a(I4
I-27
I36
tp1689
a(I17
I-21
I36
tp1690
a(I24
I0
I36
tp1691
a(I20
I25
I36
tp1692
a(I-16
I6
I36
tp1693
a(I-15
I-5
I36
tp1694
a(I-22
I5
I36
tp1695
a(I17
I-6
I36
tp1696
a(I33
I22
I36
tp1697
a(I-10
I-16
I36
tp1698
a(I16
I-14
I36
tp1699
a(I-10
I27
I36
tp1700
a(I21
I-22
I36
tp1701
a(I-18
I-3
I36
tp1702
a(I-5
I-21
I36
tp1703
a(I27
I5
I36
tp1704
a(I-14
I18
I36
tp1705
a(I-13
I22
I36
tp1706
a(I-16
I13
I36
tp1707
a(I-7
I-32
I36
tp1708
a(I-17
I2
I36
tp1709
a(I15
I15
I36
tp1710
a(I26
I25
I36
tp1711
a(I-2
I21
I36
tp1712
aa(lp1713
(I13
I-9
I37
tp1714
a(I-14
I-1
I37
tp1715
a(I16
I18
I37
tp1716
a(I-7
I-19
I37
tp1717
a(I-3
I25
I37
tp1718
a(I-8
I-17
I37
tp1719
a(I20
I22
I37
tp1720
a(I5
I17
I37
tp1721
a(I9
I-18
I37
tp1722
a(I4
I16
I37
tp1723
a(I-11
I-20
I37
tp1724
a(I-4
I-30
I37
tp1725
a(I-20
I7
I37
tp1726
a(I19
I15
I37
tp1727
a(I13
I-16
I37
tp1728
a(I7
I17
I37
tp1729
a(I0
I21
I37
tp1730
a(I-12
I17
I37
tp1731
a(I31
I11
I37
tp1732
a(I-15
I-9
I37
tp1733
a(I21
I-1
I37
tp1734
a(I26
I3
I37
tp1735
a(I17
I-9
I37
tp1736
a(I5
I19
I37
tp1737
a(I16
I-10
I37
tp1738
a(I-11
I-12
I37
tp1739
a(I-15
I12
I37
tp1740
a(I15
I21
I37
tp1741
a(I-8
I21
I37
tp1742
a(I-23
I7
I37
tp1743
a(I18
I16
I37
tp1744
a(I10
I20
I37
tp1745
a(I13
I-18
I37
tp1746
a(I17
I-23
I37
tp1747
a(I-11
I-25
I37
tp1748
a(I-15
I3
I37
tp1749
a(I-18
I18
I37
tp1750
a(I18
I23
I37
tp1751
a(I22
I-18
I37
tp1752
a(I15
I-19
I37
tp1753
a(I-17
I-1
I37
tp1754
a(I-15
I2
I37
tp1755
a(I-3
I-17
I37
tp1756
a(I-21
I9
I37
tp1757
a(I-2
I14
I37
tp1758
a(I15
I-7
I37
tp1759
a(I-17
I21
I37
tp1760
a(I30
I8
I37
tp1761
a(I26
I13
I37
tp1762
a(I20
I-16
I37
tp1763
a(I-12
I-31
I37
tp1764
a(I-2
I-34
I37
tp1765
a(I-9
I-22
I37
tp1766
a(I0
I15
I37
tp1767
a(I9
I-20
I37
tp1768
a(I24
I2
I37
tp1769
a(I20
I27
I37
tp1770
a(I21
I-14
I37
tp1771
a(I-19
I3
I37
tp1772
a(I11
I20
I37
tp1773
a(I24
I26
I37
tp1774
a(I-19
I11
I37
tp1775
a(I-5
I29
I37
tp1776
a(I2
I17
I37
tp1777
a(I-5
I-28
I37
tp1778
a(I25
I1
I37
tp1779
a(I12
I-22
I37
tp1780
a(I29
I12
I37
tp1781
a(I8
I-27
I37
tp1782
a(I16
I-21
I37
tp1783
a(I33
I25
I37
tp1784
a(I-9
I28
I37
tp1785
a(I18
I-23
I37
tp1786
a(I-6
I-21
I37
tp1787
a(I14
I17
I37
tp1788
a(I-27
I-2
I37
tp1789
a(I19
I-20
I37
tp1790
a(I-16
I-3
I37
tp1791
a(I-6
I-20
I37
tp1792
a(I-13
I16
I37
tp1793
a(I4
I-30
I37
tp1794
a(I16
I16
I37
tp1795
a(I25
I22
I37
tp1796
a(I-7
I-30
I37
tp1797
a(I21
I-3
I37
tp1798
a(I13
I-19
I37
tp1799
a(I22
I27
I37
tp1800
a(I7
I-26
I37
tp1801
a(I-17
I10
I37
tp1802
a(I-12
I-18
I37
tp1803
a(I-13
I-22
I37
tp1804
a(I-16
I16
I37
tp1805
a(I24
I-20
I37
tp1806
a(I-9
I22
I37
tp1807
a(I-15
I-3
I37
tp1808
a(I-17
I6
I37
tp1809
a(I17
I-11
I37
tp1810
a(I-1
I24
I37
tp1811
a(I-15
I20
I37
tp1812
a(I22
I-1
I37
tp1813
a(I20
I-19
I37
tp1814
a(I18
I-13
I37
tp1815
a(I13
I-20
I37
tp1816
a(I-14
I-7
I37
tp1817
a(I6
I19
I37
tp1818
a(I23
I8
I37
tp1819
a(I17
I-8
I37
tp1820
a(I20
I26
I37
tp1821
a(I-14
I21
I37
tp1822
a(I-1
I18
I37
tp1823
a(I6
I-30
I37
tp1824
a(I-17
I-9
I37
tp1825
a(I22
I16
I37
tp1826
a(I-12
I-32
I37
tp1827
a(I8
I20
I37
tp1828
a(I23
I27
I37
tp1829
a(I6
I-27
I37
tp1830
a(I0
I28
I37
tp1831
a(I21
I15
I37
tp1832
a(I24
I23
I37
tp1833
a(I-19
I5
I37
tp1834
a(I22
I15
I37
tp1835
a(I-6
I-22
I37
tp1836
a(I17
I-22
I37
tp1837
a(I25
I0
I37
tp1838
a(I-23
I6
I37
tp1839
a(I32
I22
I37
tp1840
a(I22
I-22
I37
tp1841
a(I27
I4
I37
tp1842
a(I-8
I-32
I37
tp1843
a(I25
I25
I37
tp1844
a(I1
I21
I37
tp1845
aa(lp1846
(I-7
I-18
I38
tp1847
a(I-13
I17
I38
tp1848
a(I29
I61
I38
tp1849
a(I-6
I22
I38
tp1850
a(I7
I20
I38
tp1851
a(I-7
I-17
I38
tp1852
a(I20
I-4
I38
tp1853
a(I-12
I-12
I38
tp1854
a(I35
I3
I38
tp1855
a(I23
I-18
I38
tp1856
a(I2
I-32
I38
tp1857
a(I-6
I-27
I38
tp1858
a(I10
I-20
I38
tp1859
a(I33
I5
I38
tp1860
a(I18
I-22
I38
tp1861
a(I15
I-16
I38
tp1862
a(I6
I22
I38
tp1863
a(I7
I-23
I38
tp1864
a(I28
I10
I38
tp1865
a(I-16
I-8
I38
tp1866
a(I24
I21
I38
tp1867
a(I25
I19
I38
tp1868
a(I28
I11
I38
tp1869
a(I4
I-28
I38
tp1870
a(I25
I20
I38
tp1871
a(I16
I20
I38
tp1872
a(I-9
I-20
I38
tp1873
a(I-12
I-15
I38
tp1874
a(I-5
I22
I38
tp1875
a(I-4
I14
I38
tp1876
a(I6
I-22
I38
tp1877
a(I22
I-15
I38
tp1878
a(I-2
I-31
I38
tp1879
a(I5
I-27
I38
tp1880
a(I8
I-22
I38
tp1881
a(I-16
I-1
I38
tp1882
a(I-7
I-24
I38
tp1883
a(I6
I-23
I38
tp1884
a(I28
I8
I38
tp1885
a(I7
I18
I38
tp1886
a(I2
I19
I38
tp1887
a(I-9
I20
I38
tp1888
a(I-13
I-7
I38
tp1889
a(I14
I-21
I38
tp1890
a(I22
I-17
I38
tp1891
a(I11
I21
I38
tp1892
a(I-15
I15
I38
tp1893
a(I-6
I-29
I38
tp1894
a(I19
I-9
I38
tp1895
a(I-10
I-25
I38
tp1896
a(I24
I18
I38
tp1897
a(I0
I24
I38
tp1898
a(I26
I2
I38
tp1899
a(I-6
I-23
I38
tp1900
a(I15
I14
I38
tp1901
a(I-10
I19
I38
tp1902
a(I32
I23
I38
tp1903
a(I-18
I-4
I38
tp1904
a(I1
I19
I38
tp1905
a(I-6
I-30
I38
tp1906
a(I21
I-4
I38
tp1907
a(I27
I28
I38
tp1908
a(I0
I22
I38
tp1909
a(I25
I-1
I38
tp1910
a(I-11
I-17
I38
tp1911
a(I-17
I17
I38
tp1912
a(I2
I-36
I38
tp1913
a(I-8
I23
I38
tp1914
a(I-14
I-4
I38
tp1915
a(I4
I-32
I38
tp1916
a(I1
I-34
I38
tp1917
a(I10
I22
I38
tp1918
a(I24
I19
I38
tp1919
a(I-10
I22
I38
tp1920
a(I23
I14
I38
tp1921
a(I16
I-25
I38
tp1922
a(I18
I24
I38
tp1923
a(I28
I6
I38
tp1924
a(I-13
I-24
I38
tp1925
a(I-18
I19
I38
tp1926
a(I-20
I-6
I38
tp1927
a(I-13
I-34
I38
tp1928
a(I-6
I24
I38
tp1929
a(I23
I24
I38
tp1930
a(I27
I6
I38
tp1931
a(I27
I2
I38
tp1932
a(I28
I15
I38
tp1933
a(I19
I25
I38
tp1934
a(I-16
I-5
I38
tp1935
a(I-21
I5
I38
tp1936
a(I-10
I26
I38
tp1937
a(I21
I-20
I38
tp1938
a(I-12
I22
I38
tp1939
a(I-17
I14
I38
tp1940
a(I26
I24
I38
tp1941
a(I-7
I-20
I38
tp1942
a(I-13
I27
I38
tp1943
a(I-5
I-30
I38
tp1944
a(I-19
I7
I38
tp1945
a(I14
I-16
I38
tp1946
a(I1
I22
I38
tp1947
a(I31
I10
I38
tp1948
a(I-15
I-10
I38
tp1949
a(I-16
I12
I38
tp1950
a(I15
I22
I38
tp1951
a(I-24
I6
I38
tp1952
a(I13
I-17
I38
tp1953
a(I15
I-20
I38
tp1954
a(I20
I-14
I38
tp1955
a(I-12
I-29
I38
tp1956
a(I-1
I-34
I38
tp1957
a(I-9
I-23
I38
tp1958
a(I18
I26
I38
tp1959
a(I21
I-12
I38
tp1960
a(I-18
I3
I38
tp1961
a(I-6
I29
I38
tp1962
a(I2
I18
I38
tp1963
a(I12
I-21
I38
tp1964
a(I29
I13
I38
tp1965
a(I33
I26
I38
tp1966
a(I-10
I28
I38
tp1967
a(I-28
I-2
I38
tp1968
a(I-8
I-20
I38
tp1969
a(I5
I-29
I38
tp1970
a(I25
I23
I38
tp1971
a(I-18
I10
I38
tp1972
a(I24
I-21
I38
tp1973
a(I-9
I21
I38
tp1974
a(I-17
I8
I38
tp1975
a(I18
I-11
I38
tp1976
a(I19
I26
I38
tp1977
a(I-18
I-9
I38
tp1978
a(I-11
I-32
I38
tp1979
a(I8
I18
I38
tp1980
a(I23
I28
I38
tp1981
a(I24
I22
I38
tp1982
a(I31
I22
I38
tp1983
a(I27
I3
I38
tp1984
a(I-8
I-31
I38
tp1985
a(I25
I24
I38
tp1986
a(I1
I20
I38
tp1987
aa(lp1988
(I27
I0
I39
tp1989
a(I21
I-19
I39
tp1990
a(I2
I-34
I39
tp1991
a(I-13
I-9
I39
tp1992
a(I17
I22
I39
tp1993
a(I-13
I-6
I39
tp1994
a(I-12
I20
I39
tp1995
a(I0
I20
I39
tp1996
a(I24
I20
I39
tp1997
a(I24
I-1
I39
tp1998
a(I-6
I21
I39
tp1999
a(I-11
I21
I39
tp2000
a(I27
I25
I39
tp2001
a(I-8
I-19
I39
tp2002
a(I-10
I-15
I39
tp2003
a(I-10
I-23
I39
tp2004
a(I14
I18
I39
tp2005
a(I-17
I3
I39
tp2006
a(I-6
I28
I39
tp2007
a(I22
I5
I39
tp2008
a(I-12
I-20
I39
tp2009
a(I4
I-29
I39
tp2010
a(I10
I23
I39
tp2011
a(I18
I-6
I39
tp2012
a(I-1
I-31
I39
tp2013
a(I25
I4
I39
tp2014
a(I-17
I5
I39
tp2015
a(I30
I24
I39
tp2016
a(I-9
I26
I39
tp2017
a(I-26
I-1
I39
tp2018
a(I19
I-12
I39
tp2019
a(I9
I-23
I39
tp2020
a(I-17
I-4
I39
tp2021
a(I1
I18
I39
tp2022
a(I-15
I-11
I39
tp2023
a(I15
I17
I39
tp2024
a(I29
I8
I39
tp2025
a(I28
I12
I39
tp2026
a(I21
I28
I39
tp2027
a(I-16
I11
I39
tp2028
a(I24
I13
I39
tp2029
a(I-2
I25
I39
tp2030
a(I26
I-20
I39
tp2031
a(I4
I-33
I39
tp2032
a(I-15
I-2
I39
tp2033
a(I3
I-33
I39
tp2034
a(I18
I-7
I39
tp2035
a(I13
I20
I39
tp2036
a(I-7
I28
I39
tp2037
a(I23
I15
I39
tp2038
a(I16
I-26
I39
tp2039
a(I-19
I13
I39
tp2040
a(I10
I15
I39
tp2041
a(I1
I15
I39
tp2042
a(I-18
I11
I39
tp2043
a(I28
I9
I39
tp2044
a(I-6
I26
I39
tp2045
a(I22
I14
I39
tp2046
a(I32
I11
I39
tp2047
a(I32
I21
I39
tp2048
a(I-13
I24
I39
tp2049
a(I20
I-23
I39
tp2050
a(I-18
I-2
I39
tp2051
a(I29
I4
I39
tp2052
a(I-14
I17
I39
tp2053
a(I-16
I14
I39
tp2054
a(I-6
I-32
I39
tp2055
a(I26
I28
I39
tp2056
a(I15
I18
I39
tp2057
a(I18
I-9
I39
tp2058
a(I16
I21
I39
tp2059
a(I22
I-19
I39
tp2060
a(I15
I-22
I39
tp2061
a(I33
I6
I39
tp2062
a(I25
I13
I39
tp2063
a(I-3
I-34
I39
tp2064
a(I23
I-14
I39
tp2065
a(I-25
I-4
I39
tp2066
a(I-16
I-4
I39
tp2067
a(I6
I-29
I39
tp2068
a(I25
I21
I39
tp2069
a(I-13
I-18
I39
tp2070
a(I-13
I-23
I39
tp2071
a(I6
I-31
I39
tp2072
a(I-10
I-32
I39
tp2073
a(I-19
I6
I39
tp2074
a(I21
I-23
I39
tp2075
a(I-10
I-31
I39
tp2076
a(I24
I25
I39
tp2077
a(I3
I21
I39
tp2078
a(I30
I62
I39
tp2079
a(I7
I19
I39
tp2080
a(I23
I-17
I39
tp2081
a(I33
I4
I39
tp2082
a(I6
I23
I39
tp2083
a(I7
I-22
I39
tp2084
a(I-16
I-2
I39
tp2085
a(I2
I20
I39
tp2086
a(I11
I22
I39
tp2087
a(I24
I17
I39
tp2088
a(I-6
I-24
I39
tp2089
a(I-19
I-5
I39
tp2090
a(I29
I27
I39
tp2091
a(I25
I-2
I39
tp2092
a(I1
I-35
I39
tp2093
a(I-7
I23
I39
tp2094
a(I10
I24
I39
tp2095
a(I24
I14
I39
tp2096
a(I17
I-25
I39
tp2097
a(I18
I25
I39
tp2098
a(I-14
I-24
I39
tp2099
a(I-20
I-5
I39
tp2100
a(I-12
I-34
I39
tp2101
a(I23
I25
I39
tp2102
a(I27
I1
I39
tp2103
a(I27
I14
I39
tp2104
a(I-20
I0
I39
tp2105
a(I-10
I25
I39
tp2106
a(I-12
I23
I39
tp2107
a(I-18
I14
I39
tp2108
a(I27
I24
I39
tp2109
a(I-14
I27
I39
tp2110
a(I-20
I6
I39
tp2111
a(I12
I-17
I39
tp2112
a(I2
I22
I39
tp2113
a(I16
I22
I39
tp2114
a(I-25
I6
I39
tp2115
a(I15
I-21
I39
tp2116
a(I-11
I-29
I39
tp2117
a(I-1
I-33
I39
tp2118
a(I17
I26
I39
tp2119
a(I22
I-12
I39
tp2120
a(I33
I27
I39
tp2121
a(I-11
I29
I39
tp2122
a(I-27
I1
I39
tp2123
a(I-15
I8
I39
tp2124
a(I8
I19
I39
tp2125
a(I24
I31
I39
tp2126
aa(lp2127
(I23
I-3
I40
tp2128
a(I25
I-19
I40
tp2129
a(I-14
I-21
I40
tp2130
a(I22
I17
I40
tp2131
a(I-3
I27
I40
tp2132
a(I-9
I-21
I40
tp2133
a(I-11
I-18
I40
tp2134
a(I26
I27
I40
tp2135
a(I0
I23
I40
tp2136
a(I7
I-27
I40
tp2137
a(I-19
I19
I40
tp2138
a(I7
I-25
I40
tp2139
a(I6
I-32
I40
tp2140
a(I-12
I28
I40
tp2141
a(I30
I10
I40
tp2142
a(I-14
I-31
I40
tp2143
a(I3
I17
I40
tp2144
a(I8
I-23
I40
tp2145
a(I16
I-16
I40
tp2146
a(I-18
I8
I40
tp2147
a(I-17
I0
I40
tp2148
a(I-12
I-24
I40
tp2149
a(I-15
I14
I40
tp2150
a(I3
I23
I40
tp2151
a(I-21
I6
I40
tp2152
a(I34
I23
I40
tp2153
a(I-11
I27
I40
tp2154
a(I-26
I-3
I40
tp2155
a(I26
I4
I40
tp2156
a(I-20
I9
I40
tp2157
a(I25
I27
I40
tp2158
a(I-17
I4
I40
tp2159
a(I27
I-1
I40
tp2160
a(I-3
I26
I40
tp2161
a(I25
I-21
I40
tp2162
a(I19
I-13
I40
tp2163
a(I28
I19
I40
tp2164
a(I-2
I28
I40
tp2165
a(I15
I16
I40
tp2166
a(I-2
I19
I40
tp2167
a(I-14
I-20
I40
tp2168
a(I-16
I-9
I40
tp2169
a(I-24
I7
I40
tp2170
a(I-11
I-26
I40
tp2171
a(I-18
I-1
I40
tp2172
a(I19
I27
I40
tp2173
a(I-19
I10
I40
tp2174
a(I13
I-22
I40
tp2175
a(I9
I-26
I40
tp2176
a(I-9
I29
I40
tp2177
a(I-7
I-21
I40
tp2178
a(I20
I-20
I40
tp2179
a(I26
I22
I40
tp2180
a(I23
I-20
I40
tp2181
a(I-1
I25
I40
tp2182
a(I22
I-2
I40
tp2183
a(I22
I-14
I40
tp2184
a(I13
I-21
I40
tp2185
a(I3
I18
I40
tp2186
a(I-19
I-10
I40
tp2187
a(I-12
I-33
I40
tp2188
a(I1
I28
I40
tp2189
a(I22
I-23
I40
tp2190
a(I4
I22
I40
tp2191
a(I6
I20
I40
tp2192
a(I-6
I-26
I40
tp2193
a(I19
I-22
I40
tp2194
a(I7
I23
I40
tp2195
a(I26
I19
I40
tp2196
a(I24
I-15
I40
tp2197
a(I30
I7
I40
tp2198
a(I3
I20
I40
tp2199
a(I-7
I-29
I40
tp2200
a(I20
I-9
I40
tp2201
a(I0
I25
I40
tp2202
a(I31
I21
I40
tp2203
a(I-19
I-4
I40
tp2204
a(I2
I-35
I40
tp2205
a(I-9
I23
I40
tp2206
a(I0
I-34
I40
tp2207
a(I-10
I23
I40
tp2208
a(I18
I-25
I40
tp2209
a(I-13
I-25
I40
tp2210
a(I-19
I18
I40
tp2211
a(I-19
I-6
I40
tp2212
a(I-14
I-34
I40
tp2213
a(I28
I16
I40
tp2214
a(I-20
I5
I40
tp2215
a(I-12
I21
I40
tp2216
a(I-17
I13
I40
tp2217
a(I-13
I28
I40
tp2218
a(I-5
I-31
I40
tp2219
a(I1
I23
I40
tp2220
a(I14
I23
I40
tp2221
a(I12
I-25
I40
tp2222
a(I-10
I29
I40
tp2223
a(I18
I-10
I40
tp2224
a(I13
I30
I40
tp2225
a(I22
I28
I40
tp2226
a(I-11
I22
I40
tp2227
a(I-4
I29
I40
tp2228
a(I-18
I5
I40
tp2229
a(I30
I23
I40
tp2230
a(I-9
I25
I40
tp2231
a(I-25
I-1
I40
tp2232
a(I20
I-12
I40
tp2233
a(I9
I-24
I40
tp2234
a(I-18
I-14
I40
tp2235
a(I27
I-20
I40
tp2236
a(I8
I-32
I40
tp2237
a(I14
I21
I40
tp2238
a(I-18
I13
I40
tp2239
a(I-7
I26
I40
tp2240
a(I33
I21
I40
tp2241
a(I-14
I24
I40
tp2242
a(I19
I-24
I40
tp2243
a(I29
I3
I40
tp2244
a(I-5
I-32
I40
tp2245
a(I17
I-10
I40
tp2246
a(I23
I-19
I40
tp2247
a(I34
I6
I40
tp2248
a(I24
I-14
I40
tp2249
a(I-25
I-3
I40
tp2250
a(I6
I-28
I40
tp2251
a(I26
I20
I40
tp2252
a(I-13
I-17
I40
tp2253
a(I2
I21
I40
tp2254
a(I30
I63
I40
tp2255
a(I23
I-16
I40
tp2256
a(I35
I4
I40
tp2257
a(I5
I23
I40
tp2258
a(I26
I16
I40
tp2259
a(I30
I27
I40
tp2260
a(I0
I-35
I40
tp2261
a(I25
I14
I40
tp2262
a(I17
I-26
I40
tp2263
a(I-14
I-23
I40
tp2264
a(I-12
I-35
I40
tp2265
a(I28
I1
I40
tp2266
a(I27
I13
I40
tp2267
a(I-20
I-1
I40
tp2268
a(I-12
I24
I40
tp2269
a(I-15
I27
I40
tp2270
a(I2
I23
I40
tp2271
a(I-27
I6
I40
tp2272
a(I-11
I-28
I40
tp2273
a(I16
I26
I40
tp2274
a(I33
I29
I40
tp2275
a(I-29
I1
I40
tp2276
a(I25
I31
I40
tp2277
aa(lp2278
(I24
I27
I41
tp2279
a(I13
I-7
I41
tp2280
a(I5
I-28
I41
tp2281
a(I-13
I-10
I41
tp2282
a(I25
I-22
I41
tp2283
a(I13
I19
I41
tp2284
a(I-2
I20
I41
tp2285
a(I-7
I22
I41
tp2286
a(I19
I-6
I41
tp2287
a(I27
I27
I41
tp2288
a(I-13
I-15
I41
tp2289
a(I-8
I-27
I41
tp2290
a(I-16
I15
I41
tp2291
a(I-22
I9
I41
tp2292
a(I-13
I-21
I41
tp2293
a(I-17
I16
I41
tp2294
a(I17
I24
I41
tp2295
a(I18
I-24
I41
tp2296
a(I-25
I-2
I41
tp2297
a(I-9
I-31
I41
tp2298
a(I-18
I0
I41
tp2299
a(I12
I21
I41
tp2300
a(I-17
I-5
I41
tp2301
a(I19
I-7
I41
tp2302
a(I25
I15
I41
tp2303
a(I-18
I20
I41
tp2304
a(I-13
I-33
I41
tp2305
a(I-20
I4
I41
tp2306
a(I-9
I-26
I41
tp2307
a(I18
I-21
I41
tp2308
a(I20
I-22
I41
tp2309
a(I-14
I22
I41
tp2310
a(I-7
I-33
I41
tp2311
a(I32
I8
I41
tp2312
a(I16
I-23
I41
tp2313
a(I16
I23
I41
tp2314
a(I-17
I22
I41
tp2315
a(I31
I8
I41
tp2316
a(I-11
I-31
I41
tp2317
a(I-3
I-31
I41
tp2318
a(I-20
I11
I41
tp2319
a(I26
I15
I41
tp2320
a(I11
I-27
I41
tp2321
a(I33
I24
I41
tp2322
a(I23
I-1
I41
tp2323
a(I1
I29
I41
tp2324
a(I-23
I5
I41
tp2325
a(I29
I62
I41
tp2326
a(I35
I5
I41
tp2327
a(I34
I5
I41
tp2328
a(I25
I18
I41
tp2329
a(I-4
I-31
I41
tp2330
a(I7
I-24
I41
tp2331
a(I14
I-22
I41
tp2332
a(I19
I-10
I41
tp2333
a(I32
I24
I41
tp2334
a(I-6
I-31
I41
tp2335
a(I27
I29
I41
tp2336
a(I28
I5
I41
tp2337
a(I27
I15
I41
tp2338
a(I-17
I15
I41
tp2339
a(I-12
I25
I41
tp2340
a(I-19
I8
I41
tp2341
a(I-17
I12
I41
tp2342
a(I-24
I5
I41
tp2343
a(I-12
I-28
I41
tp2344
a(I21
I-11
I41
tp2345
a(I30
I13
I41
tp2346
a(I-28
I-1
I41
tp2347
a(I-18
I-8
I41
tp2348
a(I-11
I-33
I41
tp2349
a(I-14
I-9
I41
tp2350
a(I28
I24
I41
tp2351
a(I-13
I-20
I41
tp2352
a(I-15
I-12
I41
tp2353
a(I26
I-19
I41
tp2354
a(I-8
I24
I41
tp2355
a(I24
I15
I41
tp2356
a(I-20
I13
I41
tp2357
a(I32
I12
I41
tp2358
a(I28
I4
I41
tp2359
a(I26
I29
I41
tp2360
a(I15
I23
I41
tp2361
a(I-9
I-33
I41
tp2362
a(I24
I-17
I41
tp2363
a(I34
I3
I41
tp2364
a(I6
I24
I41
tp2365
a(I-18
I-5
I41
tp2366
a(I29
I26
I41
tp2367
a(I-21
I-5
I41
tp2368
a(I22
I25
I41
tp2369
a(I-11
I25
I41
tp2370
a(I-15
I28
I41
tp2371
a(I-25
I5
I41
tp2372
a(I17
I25
I41
tp2373
a(I24
I30
I41
tp2374
a(I24
I-3
I41
tp2375
a(I-15
I-21
I41
tp2376
a(I-3
I28
I41
tp2377
a(I-19
I20
I41
tp2378
a(I-12
I29
I41
tp2379
a(I3
I19
I41
tp2380
a(I10
I-23
I41
tp2381
a(I3
I24
I41
tp2382
a(I-21
I4
I41
tp2383
a(I-12
I27
I41
tp2384
a(I28
I0
I41
tp2385
a(I27
I20
I41
tp2386
a(I-15
I-20
I41
tp2387
a(I-24
I8
I41
tp2388
a(I-12
I-26
I41
tp2389
a(I20
I28
I41
tp2390
a(I13
I-23
I41
tp2391
a(I8
I-26
I41
tp2392
a(I-9
I30
I41
tp2393
a(I26
I21
I41
tp2394
a(I22
I-13
I41
tp2395
a(I-18
I-10
I41
tp2396
a(I2
I28
I41
tp2397
a(I22
I-24
I41
tp2398
a(I4
I23
I41
tp2399
a(I8
I23
I41
tp2400
a(I29
I7
I41
tp2401
a(I-7
I-28
I41
tp2402
a(I1
I25
I41
tp2403
a(I-20
I-4
I41
tp2404
a(I3
I-35
I41
tp2405
a(I-9
I24
I41
tp2406
a(I-14
I-25
I41
tp2407
a(I-17
I-7
I41
tp2408
a(I29
I16
I41
tp2409
a(I-21
I3
I41
tp2410
a(I3
I25
I41
tp2411
a(I13
I-25
I41
tp2412
a(I31
I23
I41
tp2413
a(I-27
I-1
I41
tp2414
a(I20
I-13
I41
tp2415
a(I10
I-24
I41
tp2416
a(I-18
I-15
I41
tp2417
a(I27
I-21
I41
tp2418
a(I-8
I26
I41
tp2419
a(I30
I3
I41
tp2420
a(I-4
I-32
I41
tp2421
a(I32
I5
I41
tp2422
a(I-24
I-3
I41
tp2423
a(I29
I64
I41
tp2424
a(I23
I-15
I41
tp2425
a(I1
I-36
I41
tp2426
a(I-20
I1
I41
tp2427
a(I2
I24
I41
tp2428
a(I-26
I6
I41
tp2429
a(I16
I27
I41
tp2430
a(I34
I29
I41
tp2431
a(I-28
I0
I41
tp2432
aa(lp2433
(I-26
I-16
I42
tp2434
a(I30
I17
I42
tp2435
a(I-18
I12
I42
tp2436
a(I-1
I-32
I42
tp2437
a(I26
I-3
I42
tp2438
a(I14
I20
I42
tp2439
a(I20
I-15
I42
tp2440
a(I-7
I-27
I42
tp2441
a(I-16
I-7
I42
tp2442
a(I9
I23
I42
tp2443
a(I-12
I-17
I42
tp2444
a(I-22
I3
I42
tp2445
a(I-18
I1
I42
tp2446
a(I29
I6
I42
tp2447
a(I-8
I-21
I42
tp2448
a(I-14
I-16
I42
tp2449
a(I-1
I29
I42
tp2450
a(I15
I-24
I42
tp2451
a(I-13
I23
I42
tp2452
a(I4
I21
I42
tp2453
a(I17
I23
I42
tp2454
a(I26
I14
I42
tp2455
a(I-5
I30
I42
tp2456
a(I12
I-23
I42
tp2457
a(I-14
I-18
I42
tp2458
a(I-25
I8
I42
tp2459
a(I20
I-21
I42
tp2460
a(I1
I31
I42
tp2461
a(I-24
I3
I42
tp2462
a(I-8
I-33
I42
tp2463
a(I30
I61
I42
tp2464
a(I22
I-20
I42
tp2465
a(I5
I22
I42
tp2466
a(I-16
I-13
I42
tp2467
a(I-6
I-28
I42
tp2468
a(I3
I-36
I42
tp2469
a(I30
I6
I42
tp2470
a(I-13
I-35
I42
tp2471
a(I31
I9
I42
tp2472
a(I-14
I-10
I42
tp2473
a(I-17
I11
I42
tp2474
a(I-7
I29
I42
tp2475
a(I31
I26
I42
tp2476
a(I-11
I28
I42
tp2477
a(I-28
I-3
I42
tp2478
a(I18
I27
I42
tp2479
a(I28
I21
I42
tp2480
a(I30
I22
I42
tp2481
a(I28
I3
I42
tp2482
a(I-9
I-30
I42
tp2483
a(I24
I24
I42
tp2484
a(I3
I-34
I42
tp2485
a(I28
I-11
I42
tp2486
a(I11
I23
I42
tp2487
a(I29
I24
I42
tp2488
a(I9
I-25
I42
tp2489
a(I4
I-34
I42
tp2490
a(I32
I9
I42
tp2491
a(I20
I-24
I42
tp2492
a(I18
I-8
I42
tp2493
a(I24
I-19
I42
tp2494
a(I-13
I-19
I42
tp2495
a(I24
I-23
I42
tp2496
a(I3
I22
I42
tp2497
a(I24
I-2
I42
tp2498
a(I-7
I24
I42
tp2499
a(I9
I24
I42
tp2500
a(I28
I14
I42
tp2501
a(I-21
I0
I42
tp2502
a(I-19
I14
I42
tp2503
a(I-14
I28
I42
tp2504
a(I-25
I7
I42
tp2505
a(I-10
I-29
I42
tp2506
a(I-27
I2
I42
tp2507
a(I22
I-3
I42
tp2508
a(I-15
I-22
I42
tp2509
a(I23
I16
I42
tp2510
a(I-2
I27
I42
tp2511
a(I-20
I19
I42
tp2512
a(I-14
I-30
I42
tp2513
a(I-12
I-25
I42
tp2514
a(I35
I23
I42
tp2515
a(I26
I-21
I42
tp2516
a(I28
I20
I42
tp2517
a(I-3
I29
I42
tp2518
a(I-10
I-26
I42
tp2519
a(I9
I-27
I42
tp2520
a(I7
I22
I42
tp2521
a(I20
I-10
I42
tp2522
a(I0
I26
I42
tp2523
a(I31
I20
I42
tp2524
a(I-11
I26
I42
tp2525
a(I18
I-26
I42
tp2526
a(I-13
I-26
I42
tp2527
a(I28
I17
I42
tp2528
a(I12
I-26
I42
tp2529
a(I21
I-9
I42
tp2530
a(I13
I29
I42
tp2531
a(I22
I29
I42
tp2532
a(I-11
I23
I42
tp2533
a(I33
I20
I42
tp2534
a(I-14
I25
I42
tp2535
a(I-5
I-33
I42
tp2536
a(I34
I7
I42
tp2537
a(I7
I-28
I42
tp2538
a(I29
I63
I42
tp2539
a(I26
I17
I42
tp2540
a(I31
I27
I42
tp2541
a(I28
I2
I42
tp2542
a(I-20
I-2
I42
tp2543
a(I-11
I24
I42
tp2544
a(I34
I25
I42
tp2545
a(I-29
I0
I42
tp2546
a(I25
I29
I42
tp2547
a(I24
I28
I42
tp2548
a(I-13
I-11
I42
tp2549
a(I-21
I10
I42
tp2550
a(I25
I16
I42
tp2551
a(I19
I-21
I42
tp2552
a(I-16
I22
I42
tp2553
a(I-21
I11
I42
tp2554
a(I8
I-25
I42
tp2555
a(I32
I29
I42
tp2556
a(I29
I5
I42
tp2557
a(I22
I-11
I42
tp2558
a(I-31
I-3
I42
tp2559
a(I-28
I-8
I42
tp2560
a(I-10
I-33
I42
tp2561
a(I27
I23
I42
tp2562
a(I-16
I-12
I42
tp2563
a(I-21
I12
I42
tp2564
a(I26
I30
I42
tp2565
a(I15
I24
I42
tp2566
a(I-9
I-34
I42
tp2567
a(I25
I-16
I42
tp2568
a(I37
I3
I42
tp2569
a(I28
I26
I42
tp2570
a(I-22
I-5
I42
tp2571
a(I16
I25
I42
tp2572
a(I24
I-4
I42
tp2573
a(I-17
I-21
I42
tp2574
a(I-19
I21
I42
tp2575
a(I4
I19
I42
tp2576
a(I-20
I3
I42
tp2577
a(I29
I0
I42
tp2578
a(I27
I18
I42
tp2579
a(I13
I-24
I42
tp2580
a(I21
I-13
I42
tp2581
a(I-18
I-11
I42
tp2582
a(I4
I24
I42
tp2583
a(I-20
I-3
I42
tp2584
a(I4
I-35
I42
tp2585
a(I-8
I25
I42
tp2586
a(I-19
I-7
I42
tp2587
a(I-23
I1
I42
tp2588
a(I4
I25
I42
tp2589
a(I14
I-25
I42
tp2590
a(I-26
I0
I42
tp2591
a(I11
I-24
I42
tp2592
a(I-18
I-16
I42
tp2593
a(I30
I2
I42
tp2594
a(I-3
I-32
I42
tp2595
a(I-24
I-2
I42
tp2596
a(I28
I64
I42
tp2597
a(I0
I-37
I42
tp2598
a(I34
I30
I42
tp2599
aa(lp2600
(I12
I23
I43
tp2601
a(I-12
I-14
I43
tp2602
a(I8
I22
I43
tp2603
a(I-14
I-8
I43
tp2604
a(I-20
I2
I43
tp2605
a(I11
I-23
I43
tp2606
a(I-34
I-1
I43
tp2607
a(I-8
I-30
I43
tp2608
a(I-7
I27
I43
tp2609
a(I-23
I4
I43
tp2610
a(I-19
I-3
I43
tp2611
a(I31
I12
I43
tp2612
a(I-18
I21
I43
tp2613
a(I-12
I-30
I43
tp2614
a(I-1
I-35
I43
tp2615
a(I31
I14
I43
tp2616
a(I-18
I6
I43
tp2617
a(I29
I60
I43
tp2618
a(I-14
I-13
I43
tp2619
a(I35
I2
I43
tp2620
a(I1
I24
I43
tp2621
a(I-18
I17
I43
tp2622
a(I-20
I-7
I43
tp2623
a(I-14
I-33
I43
tp2624
a(I29
I15
I43
tp2625
a(I-16
I-6
I43
tp2626
a(I-13
I26
I43
tp2627
a(I32
I10
I43
tp2628
a(I-16
I-10
I43
tp2629
a(I-6
I30
I43
tp2630
a(I28
I13
I43
tp2631
a(I19
I-11
I43
tp2632
a(I30
I25
I43
tp2633
a(I-16
I-11
I43
tp2634
a(I21
I29
I43
tp2635
a(I5
I-33
I43
tp2636
a(I-7
I30
I43
tp2637
a(I33
I11
I43
tp2638
a(I-13
I25
I43
tp2639
a(I15
I-23
I43
tp2640
a(I32
I6
I43
tp2641
a(I-25
I-5
I43
tp2642
a(I-9
I-32
I43
tp2643
a(I38
I9
I43
tp2644
a(I12
I22
I43
tp2645
a(I28
I27
I43
tp2646
a(I-11
I-34
I43
tp2647
a(I-10
I24
I43
tp2648
a(I-2
I-33
I43
tp2649
a(I22
I-10
I43
tp2650
a(I32
I26
I43
tp2651
a(I-28
I1
I43
tp2652
a(I6
I-33
I43
tp2653
a(I-14
I-32
I43
tp2654
a(I34
I24
I43
tp2655
a(I27
I-2
I43
tp2656
a(I27
I17
I43
tp2657
a(I-19
I-1
I43
tp2658
a(I-19
I9
I43
tp2659
a(I11
I-26
I43
tp2660
a(I21
I-5
I43
tp2661
a(I3
I29
I43
tp2662
a(I-5
I-35
I43
tp2663
a(I14
I24
I43
tp2664
a(I13
I31
I43
tp2665
a(I-4
I30
I43
tp2666
a(I-25
I0
I43
tp2667
a(I13
I21
I43
tp2668
a(I-18
I15
I43
tp2669
a(I-11
I30
I43
tp2670
a(I29
I2
I43
tp2671
a(I-23
I-3
I43
tp2672
a(I0
I-36
I43
tp2673
a(I-14
I-22
I43
tp2674
a(I-21
I-1
I43
tp2675
a(I33
I28
I43
tp2676
a(I-29
I-1
I43
tp2677
a(I25
I32
I43
tp2678
a(I21
I31
I43
tp2679
a(I-14
I-15
I43
tp2680
a(I-19
I0
I43
tp2681
a(I19
I-8
I43
tp2682
a(I-8
I-26
I43
tp2683
a(I-14
I23
I43
tp2684
a(I33
I8
I43
tp2685
a(I-18
I22
I43
tp2686
a(I-20
I10
I43
tp2687
a(I31
I62
I43
tp2688
a(I35
I6
I43
tp2689
a(I-6
I-33
I43
tp2690
a(I28
I29
I43
tp2691
a(I-19
I-8
I43
tp2692
a(I28
I25
I43
tp2693
a(I-14
I-12
I43
tp2694
a(I27
I-19
I43
tp2695
a(I-20
I15
I43
tp2696
a(I34
I13
I43
tp2697
a(I7
I24
I43
tp2698
a(I29
I25
I43
tp2699
a(I-16
I-20
I43
tp2700
a(I-23
I9
I43
tp2701
a(I-10
I30
I43
tp2702
a(I27
I21
I43
tp2703
a(I23
I-13
I43
tp2704
a(I3
I28
I43
tp2705
a(I23
I-24
I43
tp2706
a(I-8
I-28
I43
tp2707
a(I2
I26
I43
tp2708
a(I15
I-25
I43
tp2709
a(I28
I-21
I43
tp2710
a(I32
I3
I43
tp2711
a(I31
I5
I43
tp2712
a(I29
I65
I43
tp2713
a(I-21
I1
I43
tp2714
a(I17
I27
I43
tp2715
a(I-26
I-17
I43
tp2716
a(I31
I18
I43
tp2717
a(I-7
I-26
I43
tp2718
a(I-22
I2
I43
tp2719
a(I-1
I30
I43
tp2720
a(I13
I-28
I43
tp2721
a(I-6
I31
I43
tp2722
a(I12
I-24
I43
tp2723
a(I-26
I9
I43
tp2724
a(I-24
I4
I43
tp2725
a(I5
I21
I43
tp2726
a(I4
I-37
I43
tp2727
a(I30
I26
I43
tp2728
a(I-9
I-29
I43
tp2729
a(I28
I-12
I43
tp2730
a(I29
I23
I43
tp2731
a(I33
I9
I43
tp2732
a(I20
I-25
I43
tp2733
a(I-22
I1
I43
tp2734
a(I-19
I15
I43
tp2735
a(I-10
I-28
I43
tp2736
a(I-31
I-1
I43
tp2737
a(I-14
I-29
I43
tp2738
a(I-10
I-27
I43
tp2739
a(I-12
I26
I43
tp2740
a(I12
I-27
I43
tp2741
a(I14
I29
I43
tp2742
a(I35
I20
I43
tp2743
a(I-15
I25
I43
tp2744
a(I-5
I-34
I43
tp2745
a(I33
I7
I43
tp2746
a(I25
I17
I43
tp2747
a(I31
I28
I43
tp2748
a(I-21
I-2
I43
tp2749
a(I-29
I2
I43
tp2750
a(I25
I28
I43
tp2751
a(I24
I16
I43
tp2752
a(I-16
I23
I43
tp2753
a(I-30
I-9
I43
tp2754
a(I26
I23
I43
tp2755
a(I-22
I12
I43
tp2756
a(I-10
I-34
I43
tp2757
a(I38
I3
I43
tp2758
a(I24
I-5
I43
tp2759
a(I-16
I-17
I43
tp2760
a(I-20
I21
I43
tp2761
a(I29
I-1
I43
tp2762
a(I28
I18
I43
tp2763
a(I-17
I-10
I43
tp2764
a(I4
I-36
I43
tp2765
a(I-26
I2
I43
tp2766
a(I-17
I-16
I43
tp2767
a(I31
I2
I43
tp2768
a(I36
I27
I43
tp2769
aa(lp2770
(I20
I-6
I44
tp2771
a(I-27
I7
I44
tp2772
a(I-13
I-13
I44
tp2773
a(I-24
I9
I44
tp2774
a(I5
I-32
I44
tp2775
a(I-18
I7
I44
tp2776
a(I-13
I-30
I44
tp2777
a(I-26
I4
I44
tp2778
a(I30
I12
I44
tp2779
a(I10
I-26
I44
tp2780
a(I34
I26
I44
tp2781
a(I-18
I30
I44
tp2782
a(I5
I20
I44
tp2783
a(I7
I21
I44
tp2784
a(I-9
I-27
I44
tp2785
a(I6
I21
I44
tp2786
a(I15
I-26
I44
tp2787
a(I29
I14
I44
tp2788
a(I-32
I14
I44
tp2789
a(I-29
I-2
I44
tp2790
a(I15
I-27
I44
tp2791
a(I-3
I-35
I44
tp2792
a(I33
I3
I44
tp2793
a(I14
I31
I44
tp2794
a(I-26
I5
I44
tp2795
a(I28
I31
I44
tp2796
a(I23
I-2
I44
tp2797
a(I10
I-25
I44
tp2798
a(I7
I-32
I44
tp2799
a(I8
I-24
I44
tp2800
a(I34
I22
I44
tp2801
a(I29
I19
I44
tp2802
a(I15
I29
I44
tp2803
a(I23
I-21
I44
tp2804
a(I-19
I-11
I44
tp2805
a(I25
I-14
I44
tp2806
a(I-23
I-9
I44
tp2807
a(I-13
I29
I44
tp2808
a(I12
I30
I44
tp2809
a(I-18
I-12
I44
tp2810
a(I9
I-31
I44
tp2811
a(I-15
I24
I44
tp2812
a(I24
I-13
I44
tp2813
a(I31
I63
I44
tp2814
a(I36
I4
I44
tp2815
a(I27
I16
I44
tp2816
a(I-16
I-23
I44
tp2817
a(I-28
I5
I44
tp2818
a(I-30
I1
I44
tp2819
a(I26
I-22
I44
tp2820
a(I20
I-7
I44
tp2821
a(I10
I-27
I44
tp2822
a(I2
I29
I44
tp2823
a(I30
I14
I44
tp2824
a(I-33
I1
I44
tp2825
a(I-18
I-7
I44
tp2826
a(I-16
I-14
I44
tp2827
a(I-21
I13
I44
tp2828
a(I24
I-16
I44
tp2829
a(I6
I25
I44
tp2830
a(I-18
I-6
I44
tp2831
a(I-16
I28
I44
tp2832
a(I25
I-3
I44
tp2833
a(I-20
I20
I44
tp2834
a(I-22
I4
I44
tp2835
a(I20
I29
I44
tp2836
a(I5
I25
I44
tp2837
a(I1
I26
I44
tp2838
a(I-15
I-25
I44
tp2839
a(I3
I26
I44
tp2840
a(I13
I-26
I44
tp2841
a(I-17
I-15
I44
tp2842
a(I-4
I-33
I44
tp2843
a(I-23
I-4
I44
tp2844
a(I-25
I-16
I44
tp2845
a(I-2
I-32
I44
tp2846
a(I25
I-4
I44
tp2847
a(I30
I5
I44
tp2848
a(I-15
I-16
I44
tp2849
a(I-2
I29
I44
tp2850
a(I2
I30
I44
tp2851
a(I-25
I3
I44
tp2852
a(I-8
I-34
I44
tp2853
a(I3
I-37
I44
tp2854
a(I29
I-11
I44
tp2855
a(I24
I-24
I44
tp2856
a(I-21
I2
I44
tp2857
a(I-10
I-30
I44
tp2858
a(I-27
I3
I44
tp2859
a(I-20
I18
I44
tp2860
a(I-1
I26
I44
tp2861
a(I-14
I26
I44
tp2862
a(I-30
I0
I44
tp2863
a(I-22
I10
I44
tp2864
a(I21
I-21
I44
tp2865
a(I-28
I-7
I44
tp2866
a(I-17
I-12
I44
tp2867
a(I-20
I12
I44
tp2868
a(I36
I3
I44
tp2869
a(I23
I-4
I44
tp2870
a(I27
I19
I44
tp2871
a(I3
I27
I44
tp2872
a(I-26
I1
I44
tp2873
a(I-19
I-16
I44
tp2874
a(I-3
I-33
I44
tp2875
a(I-23
I-2
I44
tp2876
a(I0
I-40
I44
tp2877
a(I14
I19
I44
tp2878
a(I-35
I-1
I44
tp2879
a(I31
I13
I44
tp2880
a(I30
I15
I44
tp2881
a(I34
I2
I44
tp2882
a(I-19
I17
I44
tp2883
a(I33
I10
I44
tp2884
a(I20
I-11
I44
tp2885
a(I33
I12
I44
tp2886
a(I-25
I-6
I44
tp2887
a(I37
I9
I44
tp2888
a(I32
I27
I44
tp2889
a(I7
I-33
I44
tp2890
a(I-15
I-32
I44
tp2891
a(I4
I29
I44
tp2892
a(I-27
I0
I44
tp2893
a(I-22
I-3
I44
tp2894
a(I32
I28
I44
tp2895
a(I24
I32
I44
tp2896
a(I21
I32
I44
tp2897
a(I-14
I-14
I44
tp2898
a(I-19
I22
I44
tp2899
a(I31
I29
I44
tp2900
a(I34
I12
I44
tp2901
a(I7
I25
I44
tp2902
a(I-10
I31
I44
tp2903
a(I4
I28
I44
tp2904
a(I23
I-27
I44
tp2905
a(I6
I27
I44
tp2906
a(I29
I-22
I44
tp2907
a(I32
I2
I44
tp2908
a(I30
I65
I44
tp2909
a(I-25
I-17
I44
tp2910
a(I12
I-28
I44
tp2911
a(I-5
I31
I44
tp2912
a(I-25
I9
I44
tp2913
a(I4
I-38
I44
tp2914
a(I-8
I-29
I44
tp2915
a(I29
I-12
I44
tp2916
a(I34
I9
I44
tp2917
a(I-9
I-28
I44
tp2918
a(I-32
I-1
I44
tp2919
a(I-15
I-29
I44
tp2920
a(I-11
I-27
I44
tp2921
a(I14
I30
I44
tp2922
a(I34
I21
I44
tp2923
a(I-30
I2
I44
tp2924
a(I-30
I-10
I44
tp2925
a(I38
I4
I44
tp2926
a(I-21
I22
I44
tp2927
a(I37
I27
I44
tp2928
aa(lp2929
(I-13
I-12
I45
tp2930
a(I18
I29
I45
tp2931
a(I-8
I27
I45
tp2932
a(I26
I-2
I45
tp2933
a(I35
I22
I45
tp2934
a(I-29
I-3
I45
tp2935
a(I7
I-30
I45
tp2936
a(I0
I30
I45
tp2937
a(I32
I20
I45
tp2938
a(I22
I-21
I45
tp2939
a(I-20
I-10
I45
tp2940
a(I-8
I28
I45
tp2941
a(I33
I13
I45
tp2942
a(I30
I4
I45
tp2943
a(I23
I-11
I45
tp2944
a(I34
I4
I45
tp2945
a(I4
I20
I45
tp2946
a(I14
I22
I45
tp2947
a(I40
I5
I45
tp2948
a(I-13
I-28
I45
tp2949
a(I27
I22
I45
tp2950
a(I-21
I-10
I45
tp2951
a(I1
I27
I45
tp2952
a(I22
I-9
I45
tp2953
a(I30
I20
I45
tp2954
a(I13
I23
I45
tp2955
a(I-19
I-14
I45
tp2956
a(I28
I-20
I45
tp2957
a(I8
I-33
I45
tp2958
a(I-17
I-17
I45
tp2959
a(I5
I24
I45
tp2960
a(I30
I28
I45
tp2961
a(I-15
I-23
I45
tp2962
a(I-12
I-36
I45
tp2963
a(I-27
I5
I45
tp2964
a(I32
I7
I45
tp2965
a(I0
I29
I45
tp2966
a(I28
I62
I45
tp2967
a(I-15
I-13
I45
tp2968
a(I28
I-19
I45
tp2969
a(I-23
I-5
I45
tp2970
a(I-14
I29
I45
tp2971
a(I-12
I-27
I45
tp2972
a(I-26
I-15
I45
tp2973
a(I29
I17
I45
tp2974
a(I27
I-4
I45
tp2975
a(I-14
I-19
I45
tp2976
a(I1
I32
I45
tp2977
a(I-6
I-34
I45
tp2978
a(I31
I3
I45
tp2979
a(I5
I-34
I45
tp2980
a(I21
I-24
I45
tp2981
a(I29
I-19
I45
tp2982
a(I-22
I0
I45
tp2983
a(I38
I24
I45
tp2984
a(I26
I-28
I45
tp2985
a(I-3
I30
I45
tp2986
a(I21
I-10
I45
tp2987
a(I10
I29
I45
tp2988
a(I23
I29
I45
tp2989
a(I7
I-29
I45
tp2990
a(I31
I68
I45
tp2991
a(I35
I25
I45
tp2992
a(I29
I-10
I45
tp2993
a(I-32
I-3
I45
tp2994
a(I26
I-15
I45
tp2995
a(I15
I26
I45
tp2996
a(I-17
I-23
I45
tp2997
a(I-20
I22
I45
tp2998
a(I29
I1
I45
tp2999
a(I26
I18
I45
tp3000
a(I-21
I-3
I45
tp3001
a(I5
I-35
I45
tp3002
a(I-19
I-9
I45
tp3003
a(I-24
I2
I45
tp3004
a(I-2
I-37
I45
tp3005
a(I-34
I0
I45
tp3006
a(I31
I16
I45
tp3007
a(I29
I59
I45
tp3008
a(I36
I2
I45
tp3009
a(I-18
I16
I45
tp3010
a(I29
I18
I45
tp3011
a(I-17
I-6
I45
tp3012
a(I31
I25
I45
tp3013
a(I-17
I-11
I45
tp3014
a(I38
I8
I45
tp3015
a(I-8
I-37
I45
tp3016
a(I21
I-6
I45
tp3017
a(I3
I30
I45
tp3018
a(I-5
I-36
I45
tp3019
a(I12
I31
I45
tp3020
a(I-1
I-36
I45
tp3021
a(I26
I32
I45
tp3022
a(I27
I62
I45
tp3023
a(I-6
I-35
I45
tp3024
a(I27
I-18
I45
tp3025
a(I-20
I16
I45
tp3026
a(I34
I14
I45
tp3027
a(I8
I24
I45
tp3028
a(I23
I-23
I45
tp3029
a(I2
I25
I45
tp3030
a(I19
I-25
I45
tp3031
a(I29
I-21
I45
tp3032
a(I31
I6
I45
tp3033
a(I28
I65
I45
tp3034
a(I30
I18
I45
tp3035
a(I-23
I2
I45
tp3036
a(I-2
I30
I45
tp3037
a(I13
I-29
I45
tp3038
a(I-23
I3
I45
tp3039
a(I-15
I23
I45
tp3040
a(I-23
I12
I45
tp3041
a(I23
I-5
I45
tp3042
a(I30
I-1
I45
tp3043
a(I-25
I2
I45
tp3044
a(I-20
I-16
I45
tp3045
a(I-27
I8
I45
tp3046
a(I-13
I-29
I45
tp3047
a(I14
I-30
I45
tp3048
a(I40
I26
I45
tp3049
a(I-18
I31
I45
tp3050
a(I-32
I15
I45
tp3051
a(I33
I2
I45
tp3052
a(I15
I31
I45
tp3053
a(I-26
I7
I45
tp3054
a(I28
I32
I45
tp3055
a(I15
I30
I45
tp3056
a(I-20
I-11
I45
tp3057
a(I25
I-13
I45
tp3058
a(I-22
I-10
I45
tp3059
a(I11
I31
I45
tp3060
a(I-19
I-12
I45
tp3061
a(I11
I-34
I45
tp3062
a(I24
I-12
I45
tp3063
a(I32
I63
I45
tp3064
a(I-16
I-24
I45
tp3065
a(I-31
I1
I45
tp3066
a(I10
I-28
I45
tp3067
a(I2
I31
I45
tp3068
a(I-35
I1
I45
tp3069
a(I6
I26
I45
tp3070
a(I-16
I27
I45
tp3071
a(I20
I30
I45
tp3072
a(I5
I26
I45
tp3073
a(I-16
I-25
I45
tp3074
a(I-16
I-15
I45
tp3075
a(I-24
I-4
I45
tp3076
a(I26
I-4
I45
tp3077
a(I4
I30
I45
tp3078
a(I-8
I-35
I45
tp3079
a(I24
I-25
I45
tp3080
a(I-26
I3
I45
tp3081
a(I-15
I26
I45
tp3082
a(I-22
I11
I45
tp3083
a(I-27
I-6
I45
tp3084
a(I4
I27
I45
tp3085
a(I-18
I-18
I45
tp3086
a(I0
I-41
I45
tp3087
a(I-35
I-2
I45
tp3088
a(I32
I13
I45
tp3089
a(I34
I1
I45
tp3090
a(I-20
I17
I45
tp3091
a(I-26
I-7
I45
tp3092
a(I37
I8
I45
tp3093
a(I-16
I-32
I45
tp3094
a(I23
I34
I45
tp3095
a(I-15
I-14
I45
tp3096
a(I31
I30
I45
tp3097
a(I-11
I31
I45
tp3098
a(I23
I-26
I45
tp3099
a(I30
I-22
I45
tp3100
a(I32
I1
I45
tp3101
a(I30
I66
I45
tp3102
a(I3
I-38
I45
tp3103
a(I30
I-11
I45
tp3104
a(I34
I10
I45
tp3105
a(I-15
I-30
I45
tp3106
a(I14
I32
I45
tp3107
a(I38
I25
I45
tp3108
a(I38
I27
I45
tp3109
aa(lp3110
(I-23
I10
I46
tp3111
a(I30
I21
I46
tp3112
a(I0
I27
I46
tp3113
a(I28
I61
I46
tp3114
a(I20
I-5
I46
tp3115
a(I28
I28
I46
tp3116
a(I35
I26
I46
tp3117
a(I24
I-22
I46
tp3118
a(I-19
I12
I46
tp3119
a(I-4
I-34
I46
tp3120
a(I25
I-11
I46
tp3121
a(I21
I-26
I46
tp3122
a(I23
I-12
I46
tp3123
a(I23
I31
I46
tp3124
a(I7
I-31
I46
tp3125
a(I25
I-15
I46
tp3126
a(I-14
I-26
I46
tp3127
a(I-21
I16
I46
tp3128
a(I-24
I-5
I46
tp3129
a(I-14
I-35
I46
tp3130
a(I18
I-27
I46
tp3131
a(I-11
I-35
I46
tp3132
a(I30
I1
I46
tp3133
a(I16
I24
I46
tp3134
a(I-19
I24
I46
tp3135
a(I26
I31
I46
tp3136
a(I-9
I-36
I46
tp3137
a(I-21
I-6
I46
tp3138
a(I-15
I29
I46
tp3139
a(I25
I30
I46
tp3140
a(I-16
I-21
I46
tp3141
a(I-12
I30
I46
tp3142
a(I19
I28
I46
tp3143
a(I-9
I31
I46
tp3144
a(I-21
I-4
I46
tp3145
a(I30
I64
I46
tp3146
a(I15
I27
I46
tp3147
a(I34
I28
I46
tp3148
a(I14
I-24
I46
tp3149
a(I-15
I-18
I46
tp3150
a(I-24
I1
I46
tp3151
a(I30
I60
I46
tp3152
a(I-17
I-13
I46
tp3153
a(I28
I-10
I46
tp3154
a(I-7
I25
I46
tp3155
a(I26
I-7
I46
tp3156
a(I-16
I-22
I46
tp3157
a(I9
I-28
I46
tp3158
a(I34
I8
I46
tp3159
a(I-10
I-35
I46
tp3160
a(I26
I-16
I46
tp3161
a(I-17
I-20
I46
tp3162
a(I-23
I0
I46
tp3163
a(I-18
I-17
I46
tp3164
a(I33
I30
I46
tp3165
a(I11
I24
I46
tp3166
a(I-34
I-2
I46
tp3167
a(I31
I15
I46
tp3168
a(I34
I11
I46
tp3169
a(I14
I-23
I46
tp3170
a(I-26
I-5
I46
tp3171
a(I36
I24
I46
tp3172
a(I29
I-2
I46
tp3173
a(I22
I-5
I46
tp3174
a(I14
I26
I46
tp3175
a(I13
I32
I46
tp3176
a(I-4
I31
I46
tp3177
a(I-7
I32
I46
tp3178
a(I-22
I-1
I46
tp3179
a(I38
I33
I46
tp3180
a(I20
I31
I46
tp3181
a(I31
I61
I46
tp3182
a(I36
I8
I46
tp3183
a(I26
I-6
I46
tp3184
a(I28
I-22
I46
tp3185
a(I-27
I-18
I46
tp3186
a(I31
I19
I46
tp3187
a(I-7
I31
I46
tp3188
a(I-28
I9
I46
tp3189
a(I5
I-37
I46
tp3190
a(I20
I-26
I46
tp3191
a(I-31
I-2
I46
tp3192
a(I13
I-27
I46
tp3193
a(I-22
I-2
I46
tp3194
a(I37
I2
I46
tp3195
a(I24
I-6
I46
tp3196
a(I36
I26
I46
tp3197
a(I-28
I7
I46
tp3198
a(I-13
I-14
I46
tp3199
a(I-31
I14
I46
tp3200
a(I16
I-27
I46
tp3201
a(I-2
I-35
I46
tp3202
a(I29
I31
I46
tp3203
a(I34
I20
I46
tp3204
a(I-22
I-8
I46
tp3205
a(I12
I29
I46
tp3206
a(I36
I5
I46
tp3207
a(I-28
I6
I46
tp3208
a(I-32
I1
I46
tp3209
a(I-17
I-14
I46
tp3210
a(I25
I-25
I46
tp3211
a(I-28
I3
I46
tp3212
a(I-28
I-6
I46
tp3213
a(I-19
I-17
I46
tp3214
a(I0
I-39
I46
tp3215
a(I-36
I-1
I46
tp3216
a(I35
I10
I46
tp3217
a(I35
I12
I46
tp3218
a(I-26
I-6
I46
tp3219
a(I23
I32
I46
tp3220
a(I22
I32
I46
tp3221
a(I24
I-28
I46
tp3222
a(I7
I27
I46
tp3223
a(I42
I12
I46
tp3224
a(I-29
I-18
I46
tp3225
a(I-29
I-10
I46
tp3226
a(I39
I2
I46
tp3227
a(I13
I22
I46
tp3228
a(I40
I4
I46
tp3229
a(I-21
I-9
I46
tp3230
a(I29
I28
I46
tp3231
a(I-15
I-24
I46
tp3232
a(I-13
I-36
I46
tp3233
a(I30
I-19
I46
tp3234
a(I-13
I-27
I46
tp3235
a(I35
I13
I46
tp3236
a(I-15
I-19
I46
tp3237
a(I1
I33
I46
tp3238
a(I-7
I-35
I46
tp3239
a(I6
I-35
I46
tp3240
a(I26
I-29
I46
tp3241
a(I23
I-10
I46
tp3242
a(I10
I30
I46
tp3243
a(I32
I68
I46
tp3244
a(I-32
I-2
I46
tp3245
a(I-20
I-9
I46
tp3246
a(I-35
I0
I46
tp3247
a(I31
I17
I46
tp3248
a(I32
I25
I46
tp3249
a(I38
I7
I46
tp3250
a(I-8
I-38
I46
tp3251
a(I4
I31
I46
tp3252
a(I-4
I-36
I46
tp3253
a(I26
I62
I46
tp3254
a(I12
I-29
I46
tp3255
a(I23
I-7
I46
tp3256
a(I-20
I-15
I46
tp3257
a(I13
I-30
I46
tp3258
a(I40
I27
I46
tp3259
a(I-19
I32
I46
tp3260
a(I15
I32
I46
tp3261
a(I28
I33
I46
tp3262
a(I-22
I-11
I46
tp3263
a(I26
I-13
I46
tp3264
a(I-22
I-9
I46
tp3265
a(I11
I32
I46
tp3266
a(I-20
I-12
I46
tp3267
a(I12
I-34
I46
tp3268
a(I31
I64
I46
tp3269
a(I-17
I-24
I46
tp3270
a(I11
I-28
I46
tp3271
a(I2
I32
I46
tp3272
a(I-35
I2
I46
tp3273
a(I4
I26
I46
tp3274
a(I26
I-5
I46
tp3275
a(I-8
I-36
I46
tp3276
a(I23
I-25
I46
tp3277
a(I-25
I11
I46
tp3278
a(I-28
I-5
I46
tp3279
a(I-19
I-19
I46
tp3280
a(I34
I0
I46
tp3281
a(I-16
I-31
I46
tp3282
a(I-15
I-15
I46
tp3283
a(I29
I30
I46
tp3284
a(I30
I-23
I46
tp3285
a(I30
I68
I46
tp3286
a(I14
I33
I46
tp3287
a(I39
I25
I46
tp3288
a(I39
I26
I46
tp3289
aa(lp3290
(I-15
I22
I47
tp3291
a(I31
I-1
I47
tp3292
a(I16
I-22
I47
tp3293
a(I8
I-28
I47
tp3294
a(I31
I24
I47
tp3295
a(I-26
I-4
I47
tp3296
a(I10
I25
I47
tp3297
a(I25
I-18
I47
tp3298
a(I11
I-25
I47
tp3299
a(I-18
I-13
I47
tp3300
a(I29
I-20
I47
tp3301
a(I8
I-31
I47
tp3302
a(I37
I4
I47
tp3303
a(I25
I-17
I47
tp3304
a(I-25
I4
I47
tp3305
a(I7
I26
I47
tp3306
a(I27
I-22
I47
tp3307
a(I14
I27
I47
tp3308
a(I36
I31
I47
tp3309
a(I-8
I29
I47
tp3310
a(I-27
I-3
I47
tp3311
a(I-11
I-30
I47
tp3312
a(I9
I25
I47
tp3313
a(I-27
I4
I47
tp3314
a(I35
I7
I47
tp3315
a(I-28
I-9
I47
tp3316
a(I15
I25
I47
tp3317
a(I-9
I-35
I47
tp3318
a(I30
I-2
I47
tp3319
a(I14
I-26
I47
tp3320
a(I34
I31
I47
tp3321
a(I12
I24
I47
tp3322
a(I-20
I-8
I47
tp3323
a(I21
I30
I47
tp3324
a(I26
I33
I47
tp3325
a(I22
I31
I47
tp3326
a(I-14
I-11
I47
tp3327
a(I2
I27
I47
tp3328
a(I31
I4
I47
tp3329
a(I-24
I-17
I47
tp3330
a(I-26
I10
I47
tp3331
a(I34
I19
I47
tp3332
a(I38
I2
I47
tp3333
a(I-16
I-18
I47
tp3334
a(I5
I-36
I47
tp3335
a(I34
I27
I47
tp3336
a(I-17
I30
I47
tp3337
a(I29
I20
I47
tp3338
a(I-23
I-10
I47
tp3339
a(I10
I-35
I47
tp3340
a(I37
I5
I47
tp3341
a(I-28
I4
I47
tp3342
a(I-34
I1
I47
tp3343
a(I-22
I13
I47
tp3344
a(I-15
I-26
I47
tp3345
a(I-25
I-15
I47
tp3346
a(I-16
I-16
I47
tp3347
a(I-21
I18
I47
tp3348
a(I22
I-4
I47
tp3349
a(I-20
I-17
I47
tp3350
a(I-23
I-1
I47
tp3351
a(I-15
I-33
I47
tp3352
a(I3
I31
I47
tp3353
a(I-22
I-6
I47
tp3354
a(I-19
I23
I47
tp3355
a(I24
I-27
I47
tp3356
a(I29
I-23
I47
tp3357
a(I30
I-12
I47
tp3358
a(I-31
I-9
I47
tp3359
a(I39
I4
I47
tp3360
a(I-21
I23
I47
tp3361
a(I37
I26
I47
tp3362
a(I17
I29
I47
tp3363
a(I-27
I-4
I47
tp3364
a(I0
I31
I47
tp3365
a(I41
I5
I47
tp3366
a(I22
I-8
I47
tp3367
a(I-19
I-15
I47
tp3368
a(I-29
I3
I47
tp3369
a(I28
I60
I47
tp3370
a(I-26
I-14
I47
tp3371
a(I32
I4
I47
tp3372
a(I38
I23
I47
tp3373
a(I10
I28
I47
tp3374
a(I32
I69
I47
tp3375
a(I30
I-10
I47
tp3376
a(I-3
I-37
I47
tp3377
a(I-33
I0
I47
tp3378
a(I30
I16
I47
tp3379
a(I30
I58
I47
tp3380
a(I37
I10
I47
tp3381
a(I-7
I-38
I47
tp3382
a(I22
I-6
I47
tp3383
a(I13
I28
I47
tp3384
a(I-1
I-37
I47
tp3385
a(I-19
I16
I47
tp3386
a(I31
I7
I47
tp3387
a(I16
I-29
I47
tp3388
a(I-24
I12
I47
tp3389
a(I14
I-29
I47
tp3390
a(I-19
I30
I47
tp3391
a(I-32
I16
I47
tp3392
a(I33
I0
I47
tp3393
a(I10
I-34
I47
tp3394
a(I5
I27
I47
tp3395
a(I-17
I-25
I47
tp3396
a(I5
I30
I47
tp3397
a(I-11
I35
I47
tp3398
a(I-18
I-19
I47
tp3399
a(I0
I-43
I47
tp3400
a(I-25
I-7
I47
tp3401
a(I38
I6
I47
tp3402
a(I-17
I-32
I47
tp3403
a(I22
I34
I47
tp3404
a(I30
I30
I47
tp3405
a(I30
I67
I47
tp3406
a(I-24
I11
I47
tp3407
a(I26
I-11
I47
tp3408
a(I22
I-27
I47
tp3409
a(I27
I-12
I47
tp3410
a(I-24
I-6
I47
tp3411
a(I-15
I-35
I47
tp3412
a(I17
I-27
I47
tp3413
a(I30
I0
I47
tp3414
a(I-19
I25
I47
tp3415
a(I27
I31
I47
tp3416
a(I19
I29
I47
tp3417
a(I16
I28
I47
tp3418
a(I-19
I-18
I47
tp3419
a(I31
I60
I47
tp3420
a(I25
I-7
I47
tp3421
a(I27
I-16
I47
tp3422
a(I-17
I-19
I47
tp3423
a(I11
I25
I47
tp3424
a(I37
I24
I47
tp3425
a(I13
I35
I47
tp3426
a(I-3
I31
I47
tp3427
a(I-6
I32
I47
tp3428
a(I38
I34
I47
tp3429
a(I32
I61
I47
tp3430
a(I36
I10
I47
tp3431
a(I-27
I-19
I47
tp3432
a(I-27
I10
I47
tp3433
a(I-29
I6
I47
tp3434
a(I-31
I13
I47
tp3435
a(I29
I32
I47
tp3436
a(I35
I21
I47
tp3437
a(I-36
I-2
I47
tp3438
a(I22
I33
I47
tp3439
a(I8
I26
I47
tp3440
a(I41
I12
I47
tp3441
a(I-28
I-10
I47
tp3442
a(I40
I2
I47
tp3443
a(I-21
I-7
I47
tp3444
a(I31
I-19
I47
tp3445
a(I-14
I-27
I47
tp3446
a(I-16
I-19
I47
tp3447
a(I0
I33
I47
tp3448
a(I-7
I-34
I47
tp3449
a(I7
I-35
I47
tp3450
a(I32
I17
I47
tp3451
a(I-4
I-35
I47
tp3452
a(I25
I62
I47
tp3453
a(I23
I-6
I47
tp3454
a(I12
I-30
I47
tp3455
a(I-20
I32
I47
tp3456
a(I15
I33
I47
tp3457
a(I27
I32
I47
tp3458
a(I-22
I-12
I47
tp3459
a(I1
I36
I47
tp3460
a(I27
I-27
I47
tp3461
a(I-25
I10
I47
tp3462
a(I33
I1
I47
tp3463
a(I31
I-23
I47
tp3464
a(I30
I69
I47
tp3465
a(I14
I34
I47
tp3466
a(I40
I25
I47
tp3467
aa(lp3468
(I-1
I27
I48
tp3469
a(I2
I-38
I48
tp3470
a(I36
I25
I48
tp3471
a(I33
I14
I48
tp3472
a(I-15
I-31
I48
tp3473
a(I9
I-32
I48
tp3474
a(I26
I-14
I48
tp3475
a(I-14
I-17
I48
tp3476
a(I25
I-23
I48
tp3477
a(I36
I6
I48
tp3478
a(I-14
I-28
I48
tp3479
a(I-20
I14
I48
tp3480
a(I-16
I29
I48
tp3481
a(I24
I29
I48
tp3482
a(I22
I-25
I48
tp3483
a(I27
I65
I48
tp3484
a(I16
I29
I48
tp3485
a(I35
I29
I48
tp3486
a(I-27
I-16
I48
tp3487
a(I1
I30
I48
tp3488
a(I35
I24
I48
tp3489
a(I19
I-26
I48
tp3490
a(I21
I-8
I48
tp3491
a(I13
I33
I48
tp3492
a(I22
I30
I48
tp3493
a(I35
I8
I48
tp3494
a(I-27
I-7
I48
tp3495
a(I26
I-17
I48
tp3496
a(I-22
I-4
I48
tp3497
a(I27
I-3
I48
tp3498
a(I13
I24
I48
tp3499
a(I-8
I30
I48
tp3500
a(I-19
I-2
I48
tp3501
a(I14
I25
I48
tp3502
a(I12
I32
I48
tp3503
a(I-25
I1
I48
tp3504
a(I20
I-8
I48
tp3505
a(I-1
I31
I48
tp3506
a(I14
I28
I48
tp3507
a(I36
I20
I48
tp3508
a(I-28
I2
I48
tp3509
a(I-17
I23
I48
tp3510
a(I-23
I13
I48
tp3511
a(I25
I-5
I48
tp3512
a(I28
I-2
I48
tp3513
a(I35
I27
I48
tp3514
a(I-32
I13
I48
tp3515
a(I9
I-30
I48
tp3516
a(I-17
I28
I48
tp3517
a(I-30
I-1
I48
tp3518
a(I1
I-40
I48
tp3519
a(I-25
I-8
I48
tp3520
a(I37
I12
I48
tp3521
a(I21
I33
I48
tp3522
a(I-10
I32
I48
tp3523
a(I22
I-28
I48
tp3524
a(I6
I28
I48
tp3525
a(I29
I-13
I48
tp3526
a(I-33
I-1
I48
tp3527
a(I-16
I-29
I48
tp3528
a(I-31
I2
I48
tp3529
a(I-30
I-11
I48
tp3530
a(I18
I30
I48
tp3531
a(I8
I-30
I48
tp3532
a(I40
I6
I48
tp3533
a(I28
I22
I48
tp3534
a(I-19
I-13
I48
tp3535
a(I9
I-33
I48
tp3536
a(I28
I63
I48
tp3537
a(I28
I-18
I48
tp3538
a(I-24
I0
I48
tp3539
a(I25
I-28
I48
tp3540
a(I-1
I-41
I48
tp3541
a(I31
I69
I48
tp3542
a(I-33
I-3
I48
tp3543
a(I29
I58
I48
tp3544
a(I39
I9
I48
tp3545
a(I8
I25
I48
tp3546
a(I27
I66
I48
tp3547
a(I-18
I32
I48
tp3548
a(I16
I31
I48
tp3549
a(I16
I30
I48
tp3550
a(I25
I-12
I48
tp3551
a(I-16
I-27
I48
tp3552
a(I-18
I27
I48
tp3553
a(I-23
I11
I48
tp3554
a(I30
I-24
I48
tp3555
a(I32
I0
I48
tp3556
a(I-15
I-28
I48
tp3557
a(I37
I25
I48
tp3558
a(I-24
I10
I48
tp3559
a(I-23
I16
I48
tp3560
a(I19
I-27
I48
tp3561
a(I17
I28
I48
tp3562
a(I-9
I32
I48
tp3563
a(I35
I28
I48
tp3564
a(I30
I59
I48
tp3565
a(I-10
I-36
I48
tp3566
a(I33
I32
I48
tp3567
a(I-34
I-3
I48
tp3568
a(I39
I11
I48
tp3569
a(I13
I26
I48
tp3570
a(I-5
I32
I48
tp3571
a(I38
I32
I48
tp3572
a(I20
I32
I48
tp3573
a(I-28
I-18
I48
tp3574
a(I-8
I31
I48
tp3575
a(I-28
I10
I48
tp3576
a(I6
I-37
I48
tp3577
a(I-30
I-3
I48
tp3578
a(I-29
I7
I48
tp3579
a(I12
I28
I48
tp3580
a(I-32
I2
I48
tp3581
a(I26
I-25
I48
tp3582
a(I0
I-38
I48
tp3583
a(I35
I9
I48
tp3584
a(I36
I12
I48
tp3585
a(I41
I14
I48
tp3586
a(I-30
I-17
I48
tp3587
a(I-29
I-9
I48
tp3588
a(I39
I1
I48
tp3589
a(I40
I3
I48
tp3590
a(I30
I-18
I48
tp3591
a(I-16
I-28
I48
tp3592
a(I2
I33
I48
tp3593
a(I6
I-34
I48
tp3594
a(I27
I-29
I48
tp3595
a(I23
I-9
I48
tp3596
a(I7
I28
I48
tp3597
a(I-30
I-2
I48
tp3598
a(I33
I19
I48
tp3599
a(I-8
I-39
I48
tp3600
a(I-21
I-17
I48
tp3601
a(I29
I33
I48
tp3602
a(I26
I-12
I48
tp3603
a(I-20
I-13
I48
tp3604
a(I12
I-35
I48
tp3605
a(I-36
I3
I48
tp3606
a(I27
I-5
I48
tp3607
a(I-22
I15
I48
tp3608
a(I-17
I-31
I48
tp3609
a(I16
I33
I48
tp3610
a(I31
I0
I48
tp3611
a(I24
I-18
I48
tp3612
a(I36
I32
I48
tp3613
a(I26
I34
I48
tp3614
a(I-24
I-18
I48
tp3615
a(I35
I19
I48
tp3616
a(I-17
I29
I48
tp3617
a(I-24
I-10
I48
tp3618
a(I11
I-35
I48
tp3619
a(I37
I6
I48
tp3620
a(I-21
I19
I48
tp3621
a(I-23
I-6
I48
tp3622
a(I-32
I-9
I48
tp3623
a(I38
I26
I48
tp3624
a(I41
I6
I48
tp3625
a(I40
I23
I48
tp3626
a(I9
I28
I48
tp3627
a(I-4
I-37
I48
tp3628
a(I30
I57
I48
tp3629
a(I22
I-7
I48
tp3630
a(I13
I27
I48
tp3631
a(I-33
I16
I48
tp3632
a(I33
I-1
I48
tp3633
a(I10
I-33
I48
tp3634
a(I5
I28
I48
tp3635
a(I-16
I-26
I48
tp3636
a(I-11
I36
I48
tp3637
a(I-18
I-20
I48
tp3638
a(I0
I-42
I48
tp3639
a(I21
I34
I48
tp3640
a(I26
I-10
I48
tp3641
a(I-16
I-38
I48
tp3642
a(I30
I-4
I48
tp3643
a(I-18
I25
I48
tp3644
a(I27
I-8
I48
tp3645
a(I-17
I-18
I48
tp3646
a(I-3
I32
I48
tp3647
a(I-26
I-19
I48
tp3648
a(I-29
I10
I48
tp3649
a(I-37
I-3
I48
tp3650
a(I40
I12
I48
tp3651
a(I-28
I-11
I48
tp3652
a(I-15
I-27
I48
tp3653
a(I33
I17
I48
tp3654
a(I24
I62
I48
tp3655
a(I-22
I32
I48
tp3656
a(I16
I34
I48
tp3657
a(I0
I36
I48
tp3658
a(I24
I-26
I48
tp3659
a(I32
I-22
I48
tp3660
a(I30
I70
I48
tp3661
a(I14
I35
I48
tp3662
aa(lp3663
(I-14
I31
I49
tp3664
a(I23
I-22
I49
tp3665
a(I-24
I-1
I49
tp3666
a(I-16
I40
I49
tp3667
a(I-2
I31
I49
tp3668
a(I10
I-31
I49
tp3669
a(I-16
I24
I49
tp3670
a(I23
I30
I49
tp3671
a(I-23
I23
I49
tp3672
a(I32
I30
I49
tp3673
a(I31
I-5
I49
tp3674
a(I27
I64
I49
tp3675
a(I-13
I-44
I49
tp3676
a(I35
I30
I49
tp3677
a(I32
I14
I49
tp3678
a(I28
I30
I49
tp3679
a(I-26
I8
I49
tp3680
a(I21
I-25
I49
tp3681
a(I-21
I20
I49
tp3682
a(I28
I-1
I49
tp3683
a(I-18
I29
I49
tp3684
a(I30
I31
I49
tp3685
a(I15
I28
I49
tp3686
a(I-23
I-8
I49
tp3687
a(I26
I-23
I49
tp3688
a(I21
I-7
I49
tp3689
a(I-12
I31
I49
tp3690
a(I25
I-24
I49
tp3691
a(I-1
I32
I49
tp3692
a(I-4
I32
I49
tp3693
a(I-32
I-10
I49
tp3694
a(I-27
I-5
I49
tp3695
a(I24
I-11
I49
tp3696
a(I39
I5
I49
tp3697
a(I30
I-20
I49
tp3698
a(I8
I-29
I49
tp3699
a(I33
I69
I49
tp3700
a(I29
I-8
I49
tp3701
a(I27
I-15
I49
tp3702
a(I-21
I21
I49
tp3703
a(I11
I30
I49
tp3704
a(I-2
I-36
I49
tp3705
a(I27
I61
I49
tp3706
a(I26
I-18
I49
tp3707
a(I33
I15
I49
tp3708
a(I32
I18
I49
tp3709
a(I-2
I32
I49
tp3710
a(I32
I62
I49
tp3711
a(I3
I33
I49
tp3712
a(I-17
I-26
I49
tp3713
a(I1
I-41
I49
tp3714
a(I-35
I-3
I49
tp3715
a(I23
I33
I49
tp3716
a(I31
I31
I49
tp3717
a(I31
I1
I49
tp3718
a(I-18
I-27
I49
tp3719
a(I36
I23
I49
tp3720
a(I-21
I17
I49
tp3721
a(I-9
I-37
I49
tp3722
a(I33
I31
I49
tp3723
a(I-27
I-8
I49
tp3724
a(I-8
I32
I49
tp3725
a(I19
I31
I49
tp3726
a(I-26
I-18
I49
tp3727
a(I30
I19
I49
tp3728
a(I5
I-38
I49
tp3729
a(I24
I-7
I49
tp3730
a(I-28
I8
I49
tp3731
a(I14
I-28
I49
tp3732
a(I-32
I0
I49
tp3733
a(I-1
I-39
I49
tp3734
a(I24
I-29
I49
tp3735
a(I-29
I-19
I49
tp3736
a(I-29
I-11
I49
tp3737
a(I-21
I-8
I49
tp3738
a(I29
I29
I49
tp3739
a(I2
I35
I49
tp3740
a(I-9
I-40
I49
tp3741
a(I-3
I-36
I49
tp3742
a(I26
I61
I49
tp3743
a(I-22
I-17
I49
tp3744
a(I27
I33
I49
tp3745
a(I27
I-13
I49
tp3746
a(I31
I65
I49
tp3747
a(I-20
I-24
I49
tp3748
a(I-35
I3
I49
tp3749
a(I23
I-28
I49
tp3750
a(I-26
I11
I49
tp3751
a(I34
I-1
I49
tp3752
a(I39
I24
I49
tp3753
a(I39
I27
I49
tp3754
a(I10
I26
I49
tp3755
a(I27
I-17
I49
tp3756
a(I37
I31
I49
tp3757
a(I9
I26
I49
tp3758
a(I-24
I-16
I49
tp3759
a(I-16
I30
I49
tp3760
a(I-26
I-13
I49
tp3761
a(I25
I-27
I49
tp3762
a(I29
I-24
I49
tp3763
a(I39
I3
I49
tp3764
a(I37
I23
I49
tp3765
a(I-1
I-38
I49
tp3766
a(I-20
I30
I49
tp3767
a(I6
I29
I49
tp3768
a(I30
I29
I49
tp3769
a(I24
I64
I49
tp3770
a(I27
I-11
I49
tp3771
a(I-20
I-19
I49
tp3772
a(I31
I59
I49
tp3773
a(I25
I-8
I49
tp3774
a(I12
I34
I49
tp3775
a(I-6
I33
I49
tp3776
a(I-27
I-20
I49
tp3777
a(I30
I32
I49
tp3778
a(I-27
I-10
I49
tp3779
a(I-22
I-7
I49
tp3780
a(I7
I-34
I49
tp3781
a(I25
I61
I49
tp3782
a(I12
I-31
I49
tp3783
a(I-20
I31
I49
tp3784
a(I30
I36
I49
tp3785
a(I-21
I-12
I49
tp3786
a(I26
I-27
I49
tp3787
a(I32
I-23
I49
tp3788
a(I15
I34
I49
tp3789
a(I1
I-38
I49
tp3790
a(I22
I-26
I49
tp3791
a(I36
I28
I49
tp3792
a(I-27
I-15
I49
tp3793
a(I37
I21
I49
tp3794
a(I36
I19
I49
tp3795
a(I-17
I24
I49
tp3796
a(I-18
I28
I49
tp3797
a(I2
I-40
I49
tp3798
a(I21
I-28
I49
tp3799
a(I28
I-13
I49
tp3800
a(I-33
I-2
I49
tp3801
a(I-30
I-12
I49
tp3802
a(I27
I63
I49
tp3803
a(I28
I-17
I49
tp3804
a(I-2
I-41
I49
tp3805
a(I38
I10
I49
tp3806
a(I26
I65
I49
tp3807
a(I-18
I33
I49
tp3808
a(I18
I31
I49
tp3809
a(I30
I-25
I49
tp3810
a(I-24
I16
I49
tp3811
a(I18
I28
I49
tp3812
a(I32
I32
I49
tp3813
a(I41
I11
I49
tp3814
a(I13
I25
I49
tp3815
a(I38
I31
I49
tp3816
a(I-28
I-17
I49
tp3817
a(I-30
I-4
I49
tp3818
a(I-29
I8
I49
tp3819
a(I-32
I3
I49
tp3820
a(I36
I13
I49
tp3821
a(I38
I12
I49
tp3822
a(I38
I0
I49
tp3823
a(I43
I4
I49
tp3824
a(I31
I-18
I49
tp3825
a(I2
I34
I49
tp3826
a(I29
I-29
I49
tp3827
a(I30
I33
I49
tp3828
a(I13
I-35
I49
tp3829
a(I-37
I3
I49
tp3830
a(I-21
I15
I49
tp3831
a(I-17
I-30
I49
tp3832
a(I27
I34
I49
tp3833
a(I-25
I-18
I49
tp3834
a(I36
I7
I49
tp3835
a(I-22
I19
I49
tp3836
a(I42
I6
I49
tp3837
a(I41
I23
I49
tp3838
a(I8
I28
I49
tp3839
a(I32
I-1
I49
tp3840
a(I12
I-33
I49
tp3841
a(I-11
I37
I49
tp3842
a(I-2
I-42
I49
tp3843
a(I20
I34
I49
tp3844
a(I-16
I-39
I49
tp3845
a(I31
I-3
I49
tp3846
a(I-17
I25
I49
tp3847
a(I-27
I-17
I49
tp3848
a(I-29
I-12
I49
tp3849
a(I33
I18
I49
tp3850
a(I-22
I31
I49
tp3851
a(I25
I-26
I49
tp3852
a(I33
I-21
I49
tp3853
a(I31
I70
I49
tp3854
aasS'pop'
p3855
(dp3856
I0
I1
sI1
I1
sI2
I2
sI3
I4
sI4
I5
sI5
I8
sI6
I12
sI7
I17
sI8
I22
sI9
I32
sI10
I49
sI11
I62
sI12
I76
sI13
I98
sI14
I120
sI15
I145
sI16
I169
sI17
I197
sI18
I235
sI19
I270
sI20
I313
sI21
I349
sI22
I392
sI23
I443
sI24
I498
sI25
I550
sI26
I629
sI27
I709
sI28
I779
sI29
I864
sI30
I955
sI31
I1053
sI32
I1149
sI33
I1267
sI34
I1396
sI35
I1532
sI36
I1671
sI37
I1803
sI38
I1944
sI39
I2082
sI40
I2232
sI41
I2386
sI42
I2552
sI43
I2721
sI44
I2879
sI45
I3059
sI46
I3238
sI47
I3415
sI48
I3609
sI49
I3800
ssS'max_r'
p3857
(dp3858
I0
F0.0
sI1
I0
sI2
F1.0
sI3
F1.0606601717798212
sI4
F1.5231546211727816
sI5
F2.404423007708918
sI6
F4.7206696794228495
sI7
F4.0860129380734715
sI8
F5.595895780549961
sI9
F5.522150000226361
sI10
F8.177665869634517
sI11
F9.881780394590313
sI12
F7.806092247551608
sI13
F9.734977320136576
sI14
F10.443462202630782
sI15
F10.748027499260102
sI16
F9.626455165493395
sI17
F11.377540459663656
sI18
F24.700208109851754
sI19
F20.70801982440646
sI20
F19.87672200380105
sI21
F14.940383110733974
sI22
F22.759269374509245
sI23
F24.647367528350472
sI24
F27.037887978399468
sI25
F25.05001265237799
sI26
F27.866843798960844
sI27
F28.48200347785305
sI28
F27.840205073366352
sI29
F29.227986136768152
sI30
F29.50000566350017
sI31
F30.832498032057224
sI32
F30.212180541477938
sI33
F35.87204734194962
sI34
F34.52235346272302
sI35
F37.93168445167043
sI36
F37.10797157359987
sI37
F38.86486513156134
sI38
F66.27718169026028
sI39
F67.33934182425722
sI40
F68.1274493193447
sI41
F68.53784915293876
sI42
F68.0275296165424
sI43
F69.16149996758303
sI44
F69.51850502385574
sI45
F72.47186542845893
sI46
F72.71002193408577
sI47
F73.40594334118025
sI48
F73.35215107974233
sI49
F73.41842282641707
ssS'params'
p3859
(F1.8
I50
tp3860
sS'infected'
p3861
(lp3862
g6
ag9
ag11
ag12
ag14
ag16
ag17
ag18
ag20
ag21
ag22
ag23
ag25
ag26
ag27
ag28
ag29
ag31
ag32
ag33
ag34
ag35
ag37
ag38
ag39
ag40
ag41
ag42
ag43
ag44
ag45
ag46
ag48
ag49
ag50
ag51
ag52
ag53
ag54
ag55
ag56
ag57
ag58
ag59
ag60
ag61
ag62
ag63
ag64
ag66
ag67
ag68
ag69
ag70
ag71
ag72
ag73
ag74
ag75
ag76
ag77
ag78
ag80
ag81
ag82
ag83
ag84
ag85
ag86
ag87
ag88
ag89
ag90
ag91
ag92
ag93
ag95
ag96
ag97
ag98
ag99
ag100
ag101
ag102
ag103
ag104
ag105
ag106
ag107
ag108
ag109
ag110
ag111
ag112
ag113
ag114
ag115
ag116
ag118
ag119
ag120
ag121
ag122
ag123
ag124
ag125
ag126
ag127
ag128
ag129
ag130
ag131
ag132
ag133
ag134
ag135
ag136
ag137
ag138
ag139
ag141
ag142
ag143
ag144
ag145
ag146
ag147
ag148
ag149
ag150
ag151
ag152
ag153
ag154
ag155
ag156
ag157
ag158
ag159
ag160
ag161
ag162
ag163
ag164
ag165
ag167
ag168
ag169
ag170
ag171
ag172
ag173
ag174
ag175
ag176
ag177
ag178
ag179
ag180
ag181
ag182
ag183
ag184
ag185
ag186
ag187
ag188
ag189
ag190
ag192
ag193
ag194
ag195
ag196
ag197
ag198
ag199
ag200
ag201
ag202
ag203
ag204
ag205
ag206
ag207
ag208
ag209
ag210
ag211
ag212
ag213
ag214
ag215
ag216
ag217
ag218
ag219
ag221
ag222
ag223
ag224
ag225
ag226
ag227
ag228
ag229
ag230
ag231
ag232
ag233
ag234
ag235
ag236
ag237
ag238
ag239
ag240
ag241
ag242
ag243
ag244
ag245
ag246
ag247
ag248
ag249
ag250
ag251
ag252
ag253
ag254
ag255
ag256
ag257
ag258
ag260
ag261
ag262
ag263
ag264
ag265
ag266
ag267
ag268
ag269
ag270
ag271
ag272
ag273
ag274
ag275
ag276
ag277
ag278
ag279
ag280
ag281
ag282
ag283
ag284
ag285
ag286
ag287
ag288
ag289
ag290
ag291
ag292
ag293
ag294
ag296
ag297
ag298
ag299
ag300
ag301
ag302
ag303
ag304
ag305
ag306
ag307
ag308
ag309
ag310
ag311
ag312
ag313
ag314
ag315
ag316
ag317
ag318
ag319
ag320
ag321
ag322
ag323
ag324
ag325
ag326
ag327
ag328
ag329
ag330
ag331
ag332
ag333
ag334
ag335
ag336
ag337
ag338
ag340
ag341
ag342
ag343
ag344
ag345
ag346
ag347
ag348
ag349
ag350
ag351
ag352
ag353
ag354
ag355
ag356
ag357
ag358
ag359
ag360
ag361
ag362
ag363
ag364
ag365
ag366
ag367
ag368
ag369
ag370
ag371
ag372
ag373
ag374
ag375
ag377
ag378
ag379
ag380
ag381
ag382
ag383
ag384
ag385
ag386
ag387
ag388
ag389
ag390
ag391
ag392
ag393
ag394
ag395
ag396
ag397
ag398
ag399
ag400
ag401
ag402
ag403
ag404
ag405
ag406
ag407
ag408
ag409
ag410
ag411
ag412
ag413
ag414
ag415
ag416
ag417
ag418
ag419
ag421
ag422
ag423
ag424
ag425
ag426
ag427
ag428
ag429
ag430
ag431
ag432
ag433
ag434
ag435
ag436
ag437
ag438
ag439
ag440
ag441
ag442
ag443
ag444
ag445
ag446
ag447
ag448
ag449
ag450
ag451
ag452
ag453
ag454
ag455
ag456
ag457
ag458
ag459
ag460
ag461
ag462
ag463
ag464
ag465
ag466
ag467
ag468
ag469
ag470
ag471
ag473
ag474
ag475
ag476
ag477
ag478
ag479
ag480
ag481
ag482
ag483
ag484
ag485
ag486
ag487
ag488
ag489
ag490
ag491
ag492
ag493
ag494
ag495
ag496
ag497
ag498
ag499
ag500
ag501
ag502
ag503
ag504
ag505
ag506
ag507
ag508
ag509
ag510
ag511
ag512
ag513
ag514
ag515
ag516
ag517
ag518
ag519
ag520
ag521
ag522
ag523
ag524
ag525
ag526
ag527
ag529
ag530
ag531
ag532
ag533
ag534
ag535
ag536
ag537
ag538
ag539
ag540
ag541
ag542
ag543
ag544
ag545
ag546
ag547
ag548
ag549
ag550
ag551
ag552
ag553
ag554
ag555
ag556
ag557
ag558
ag559
ag560
ag561
ag562
ag563
ag564
ag565
ag566
ag567
ag568
ag569
ag570
ag571
ag572
ag573
ag574
ag575
ag576
ag577
ag578
ag579
ag580
ag582
ag583
ag584
ag585
ag586
ag587
ag588
ag589
ag590
ag591
ag592
ag593
ag594
ag595
ag596
ag597
ag598
ag599
ag600
ag601
ag602
ag603
ag604
ag605
ag606
ag607
ag608
ag609
ag610
ag611
ag612
ag613
ag614
ag615
ag616
ag617
ag618
ag619
ag620
ag621
ag622
ag623
ag624
ag625
ag626
ag627
ag628
ag629
ag630
ag631
ag632
ag633
ag634
ag635
ag636
ag637
ag638
ag639
ag640
ag641
ag642
ag643
ag644
ag645
ag646
ag647
ag648
ag649
ag650
ag651
ag652
ag653
ag654
ag655
ag656
ag657
ag658
ag659
ag660
ag662
ag663
ag664
ag665
ag666
ag667
ag668
ag669
ag670
ag671
ag672
ag673
ag674
ag675
ag676
ag677
ag678
ag679
ag680
ag681
ag682
ag683
ag684
ag685
ag686
ag687
ag688
ag689
ag690
ag691
ag692
ag693
ag694
ag695
ag696
ag697
ag698
ag699
ag700
ag701
ag702
ag703
ag704
ag705
ag706
ag707
ag708
ag709
ag710
ag711
ag712
ag713
ag714
ag715
ag716
ag717
ag718
ag719
ag720
ag721
ag722
ag723
ag724
ag725
ag726
ag727
ag728
ag729
ag730
ag731
ag732
ag733
ag734
ag735
ag736
ag737
ag738
ag739
ag740
ag741
ag743
ag744
ag745
ag746
ag747
ag748
ag749
ag750
ag751
ag752
ag753
ag754
ag755
ag756
ag757
ag758
ag759
ag760
ag761
ag762
ag763
ag764
ag765
ag766
ag767
ag768
ag769
ag770
ag771
ag772
ag773
ag774
ag775
ag776
ag777
ag778
ag779
ag780
ag781
ag782
ag783
ag784
ag785
ag786
ag787
ag788
ag789
ag790
ag791
ag792
ag793
ag794
ag795
ag796
ag797
ag798
ag799
ag800
ag801
ag802
ag803
ag804
ag805
ag806
ag807
ag808
ag809
ag810
ag811
ag812
ag814
ag815
ag816
ag817
ag818
ag819
ag820
ag821
ag822
ag823
ag824
ag825
ag826
ag827
ag828
ag829
ag830
ag831
ag832
ag833
ag834
ag835
ag836
ag837
ag838
ag839
ag840
ag841
ag842
ag843
ag844
ag845
ag846
ag847
ag848
ag849
ag850
ag851
ag852
ag853
ag854
ag855
ag856
ag857
ag858
ag859
ag860
ag861
ag862
ag863
ag864
ag865
ag866
ag867
ag868
ag869
ag870
ag871
ag872
ag873
ag874
ag875
ag876
ag877
ag878
ag879
ag880
ag881
ag882
ag883
ag884
ag885
ag886
ag887
ag888
ag889
ag890
ag891
ag892
ag893
ag894
ag895
ag896
ag897
ag898
ag900
ag901
ag902
ag903
ag904
ag905
ag906
ag907
ag908
ag909
ag910
ag911
ag912
ag913
ag914
ag915
ag916
ag917
ag918
ag919
ag920
ag921
ag922
ag923
ag924
ag925
ag926
ag927
ag928
ag929
ag930
ag931
ag932
ag933
ag934
ag935
ag936
ag937
ag938
ag939
ag940
ag941
ag942
ag943
ag944
ag945
ag946
ag947
ag948
ag949
ag950
ag951
ag952
ag953
ag954
ag955
ag956
ag957
ag958
ag959
ag960
ag961
ag962
ag963
ag964
ag965
ag966
ag967
ag968
ag969
ag970
ag971
ag972
ag973
ag974
ag975
ag976
ag977
ag978
ag979
ag980
ag981
ag982
ag983
ag984
ag985
ag986
ag987
ag988
ag989
ag990
ag992
ag993
ag994
ag995
ag996
ag997
ag998
ag999
ag1000
ag1001
ag1002
ag1003
ag1004
ag1005
ag1006
ag1007
ag1008
ag1009
ag1010
ag1011
ag1012
ag1013
ag1014
ag1015
ag1016
ag1017
ag1018
ag1019
ag1020
ag1021
ag1022
ag1023
ag1024
ag1025
ag1026
ag1027
ag1028
ag1029
ag1030
ag1031
ag1032
ag1033
ag1034
ag1035
ag1036
ag1037
ag1038
ag1039
ag1040
ag1041
ag1042
ag1043
ag1044
ag1045
ag1046
ag1047
ag1048
ag1049
ag1050
ag1051
ag1052
ag1053
ag1054
ag1055
ag1056
ag1057
ag1058
ag1059
ag1060
ag1061
ag1062
ag1063
ag1064
ag1065
ag1066
ag1067
ag1068
ag1069
ag1070
ag1071
ag1072
ag1073
ag1074
ag1075
ag1076
ag1077
ag1078
ag1079
ag1080
ag1081
ag1082
ag1083
ag1084
ag1085
ag1086
ag1087
ag1088
ag1089
ag1091
ag1092
ag1093
ag1094
ag1095
ag1096
ag1097
ag1098
ag1099
ag1100
ag1101
ag1102
ag1103
ag1104
ag1105
ag1106
ag1107
ag1108
ag1109
ag1110
ag1111
ag1112
ag1113
ag1114
ag1115
ag1116
ag1117
ag1118
ag1119
ag1120
ag1121
ag1122
ag1123
ag1124
ag1125
ag1126
ag1127
ag1128
ag1129
ag1130
ag1131
ag1132
ag1133
ag1134
ag1135
ag1136
ag1137
ag1138
ag1139
ag1140
ag1141
ag1142
ag1143
ag1144
ag1145
ag1146
ag1147
ag1148
ag1149
ag1150
ag1151
ag1152
ag1153
ag1154
ag1155
ag1156
ag1157
ag1158
ag1159
ag1160
ag1161
ag1162
ag1163
ag1164
ag1165
ag1166
ag1167
ag1168
ag1169
ag1170
ag1171
ag1172
ag1173
ag1174
ag1175
ag1176
ag1177
ag1178
ag1179
ag1180
ag1181
ag1182
ag1183
ag1184
ag1185
ag1186
ag1188
ag1189
ag1190
ag1191
ag1192
ag1193
ag1194
ag1195
ag1196
ag1197
ag1198
ag1199
ag1200
ag1201
ag1202
ag1203
ag1204
ag1205
ag1206
ag1207
ag1208
ag1209
ag1210
ag1211
ag1212
ag1213
ag1214
ag1215
ag1216
ag1217
ag1218
ag1219
ag1220
ag1221
ag1222
ag1223
ag1224
ag1225
ag1226
ag1227
ag1228
ag1229
ag1230
ag1231
ag1232
ag1233
ag1234
ag1235
ag1236
ag1237
ag1238
ag1239
ag1240
ag1241
ag1242
ag1243
ag1244
ag1245
ag1246
ag1247
ag1248
ag1249
ag1250
ag1251
ag1252
ag1253
ag1254
ag1255
ag1256
ag1257
ag1258
ag1259
ag1260
ag1261
ag1262
ag1263
ag1264
ag1265
ag1266
ag1267
ag1268
ag1269
ag1270
ag1271
ag1272
ag1273
ag1274
ag1275
ag1276
ag1277
ag1278
ag1279
ag1280
ag1281
ag1282
ag1283
ag1284
ag1285
ag1286
ag1287
ag1288
ag1289
ag1290
ag1291
ag1292
ag1293
ag1294
ag1295
ag1296
ag1297
ag1298
ag1299
ag1300
ag1301
ag1302
ag1303
ag1304
ag1305
ag1307
ag1308
ag1309
ag1310
ag1311
ag1312
ag1313
ag1314
ag1315
ag1316
ag1317
ag1318
ag1319
ag1320
ag1321
ag1322
ag1323
ag1324
ag1325
ag1326
ag1327
ag1328
ag1329
ag1330
ag1331
ag1332
ag1333
ag1334
ag1335
ag1336
ag1337
ag1338
ag1339
ag1340
ag1341
ag1342
ag1343
ag1344
ag1345
ag1346
ag1347
ag1348
ag1349
ag1350
ag1351
ag1352
ag1353
ag1354
ag1355
ag1356
ag1357
ag1358
ag1359
ag1360
ag1361
ag1362
ag1363
ag1364
ag1365
ag1366
ag1367
ag1368
ag1369
ag1370
ag1371
ag1372
ag1373
ag1374
ag1375
ag1376
ag1377
ag1378
ag1379
ag1380
ag1381
ag1382
ag1383
ag1384
ag1385
ag1386
ag1387
ag1388
ag1389
ag1390
ag1391
ag1392
ag1393
ag1394
ag1395
ag1396
ag1397
ag1398
ag1399
ag1400
ag1401
ag1402
ag1403
ag1404
ag1405
ag1406
ag1407
ag1408
ag1409
ag1410
ag1411
ag1412
ag1413
ag1414
ag1415
ag1416
ag1417
ag1418
ag1419
ag1420
ag1421
ag1422
ag1423
ag1424
ag1425
ag1426
ag1427
ag1428
ag1429
ag1430
ag1431
ag1432
ag1433
ag1434
ag1435
ag1437
ag1438
ag1439
ag1440
ag1441
ag1442
ag1443
ag1444
ag1445
ag1446
ag1447
ag1448
ag1449
ag1450
ag1451
ag1452
ag1453
ag1454
ag1455
ag1456
ag1457
ag1458
ag1459
ag1460
ag1461
ag1462
ag1463
ag1464
ag1465
ag1466
ag1467
ag1468
ag1469
ag1470
ag1471
ag1472
ag1473
ag1474
ag1475
ag1476
ag1477
ag1478
ag1479
ag1480
ag1481
ag1482
ag1483
ag1484
ag1485
ag1486
ag1487
ag1488
ag1489
ag1490
ag1491
ag1492
ag1493
ag1494
ag1495
ag1496
ag1497
ag1498
ag1499
ag1500
ag1501
ag1502
ag1503
ag1504
ag1505
ag1506
ag1507
ag1508
ag1509
ag1510
ag1511
ag1512
ag1513
ag1514
ag1515
ag1516
ag1517
ag1518
ag1519
ag1520
ag1521
ag1522
ag1523
ag1524
ag1525
ag1526
ag1527
ag1528
ag1529
ag1530
ag1531
ag1532
ag1533
ag1534
ag1535
ag1536
ag1537
ag1538
ag1539
ag1540
ag1541
ag1542
ag1543
ag1544
ag1545
ag1546
ag1547
ag1548
ag1549
ag1550
ag1551
ag1552
ag1553
ag1554
ag1555
ag1556
ag1557
ag1558
ag1559
ag1560
ag1561
ag1562
ag1563
ag1564
ag1565
ag1566
ag1567
ag1568
ag1569
ag1570
ag1571
ag1572
ag1574
ag1575
ag1576
ag1577
ag1578
ag1579
ag1580
ag1581
ag1582
ag1583
ag1584
ag1585
ag1586
ag1587
ag1588
ag1589
ag1590
ag1591
ag1592
ag1593
ag1594
ag1595
ag1596
ag1597
ag1598
ag1599
ag1600
ag1601
ag1602
ag1603
ag1604
ag1605
ag1606
ag1607
ag1608
ag1609
ag1610
ag1611
ag1612
ag1613
ag1614
ag1615
ag1616
ag1617
ag1618
ag1619
ag1620
ag1621
ag1622
ag1623
ag1624
ag1625
ag1626
ag1627
ag1628
ag1629
ag1630
ag1631
ag1632
ag1633
ag1634
ag1635
ag1636
ag1637
ag1638
ag1639
ag1640
ag1641
ag1642
ag1643
ag1644
ag1645
ag1646
ag1647
ag1648
ag1649
ag1650
ag1651
ag1652
ag1653
ag1654
ag1655
ag1656
ag1657
ag1658
ag1659
ag1660
ag1661
ag1662
ag1663
ag1664
ag1665
ag1666
ag1667
ag1668
ag1669
ag1670
ag1671
ag1672
ag1673
ag1674
ag1675
ag1676
ag1677
ag1678
ag1679
ag1680
ag1681
ag1682
ag1683
ag1684
ag1685
ag1686
ag1687
ag1688
ag1689
ag1690
ag1691
ag1692
ag1693
ag1694
ag1695
ag1696
ag1697
ag1698
ag1699
ag1700
ag1701
ag1702
ag1703
ag1704
ag1705
ag1706
ag1707
ag1708
ag1709
ag1710
ag1711
ag1712
ag1714
ag1715
ag1716
ag1717
ag1718
ag1719
ag1720
ag1721
ag1722
ag1723
ag1724
ag1725
ag1726
ag1727
ag1728
ag1729
ag1730
ag1731
ag1732
ag1733
ag1734
ag1735
ag1736
ag1737
ag1738
ag1739
ag1740
ag1741
ag1742
ag1743
ag1744
ag1745
ag1746
ag1747
ag1748
ag1749
ag1750
ag1751
ag1752
ag1753
ag1754
ag1755
ag1756
ag1757
ag1758
ag1759
ag1760
ag1761
ag1762
ag1763
ag1764
ag1765
ag1766
ag1767
ag1768
ag1769
ag1770
ag1771
ag1772
ag1773
ag1774
ag1775
ag1776
ag1777
ag1778
ag1779
ag1780
ag1781
ag1782
ag1783
ag1784
ag1785
ag1786
ag1787
ag1788
ag1789
ag1790
ag1791
ag1792
ag1793
ag1794
ag1795
ag1796
ag1797
ag1798
ag1799
ag1800
ag1801
ag1802
ag1803
ag1804
ag1805
ag1806
ag1807
ag1808
ag1809
ag1810
ag1811
ag1812
ag1813
ag1814
ag1815
ag1816
ag1817
ag1818
ag1819
ag1820
ag1821
ag1822
ag1823
ag1824
ag1825
ag1826
ag1827
ag1828
ag1829
ag1830
ag1831
ag1832
ag1833
ag1834
ag1835
ag1836
ag1837
ag1838
ag1839
ag1840
ag1841
ag1842
ag1843
ag1844
ag1845
ag1847
ag1848
ag1849
ag1850
ag1851
ag1852
ag1853
ag1854
ag1855
ag1856
ag1857
ag1858
ag1859
ag1860
ag1861
ag1862
ag1863
ag1864
ag1865
ag1866
ag1867
ag1868
ag1869
ag1870
ag1871
ag1872
ag1873
ag1874
ag1875
ag1876
ag1877
ag1878
ag1879
ag1880
ag1881
ag1882
ag1883
ag1884
ag1885
ag1886
ag1887
ag1888
ag1889
ag1890
ag1891
ag1892
ag1893
ag1894
ag1895
ag1896
ag1897
ag1898
ag1899
ag1900
ag1901
ag1902
ag1903
ag1904
ag1905
ag1906
ag1907
ag1908
ag1909
ag1910
ag1911
ag1912
ag1913
ag1914
ag1915
ag1916
ag1917
ag1918
ag1919
ag1920
ag1921
ag1922
ag1923
ag1924
ag1925
ag1926
ag1927
ag1928
ag1929
ag1930
ag1931
ag1932
ag1933
ag1934
ag1935
ag1936
ag1937
ag1938
ag1939
ag1940
ag1941
ag1942
ag1943
ag1944
ag1945
ag1946
ag1947
ag1948
ag1949
ag1950
ag1951
ag1952
ag1953
ag1954
ag1955
ag1956
ag1957
ag1958
ag1959
ag1960
ag1961
ag1962
ag1963
ag1964
ag1965
ag1966
ag1967
ag1968
ag1969
ag1970
ag1971
ag1972
ag1973
ag1974
ag1975
ag1976
ag1977
ag1978
ag1979
ag1980
ag1981
ag1982
ag1983
ag1984
ag1985
ag1986
ag1987
ag1989
ag1990
ag1991
ag1992
ag1993
ag1994
ag1995
ag1996
ag1997
ag1998
ag1999
ag2000
ag2001
ag2002
ag2003
ag2004
ag2005
ag2006
ag2007
ag2008
ag2009
ag2010
ag2011
ag2012
ag2013
ag2014
ag2015
ag2016
ag2017
ag2018
ag2019
ag2020
ag2021
ag2022
ag2023
ag2024
ag2025
ag2026
ag2027
ag2028
ag2029
ag2030
ag2031
ag2032
ag2033
ag2034
ag2035
ag2036
ag2037
ag2038
ag2039
ag2040
ag2041
ag2042
ag2043
ag2044
ag2045
ag2046
ag2047
ag2048
ag2049
ag2050
ag2051
ag2052
ag2053
ag2054
ag2055
ag2056
ag2057
ag2058
ag2059
ag2060
ag2061
ag2062
ag2063
ag2064
ag2065
ag2066
ag2067
ag2068
ag2069
ag2070
ag2071
ag2072
ag2073
ag2074
ag2075
ag2076
ag2077
ag2078
ag2079
ag2080
ag2081
ag2082
ag2083
ag2084
ag2085
ag2086
ag2087
ag2088
ag2089
ag2090
ag2091
ag2092
ag2093
ag2094
ag2095
ag2096
ag2097
ag2098
ag2099
ag2100
ag2101
ag2102
ag2103
ag2104
ag2105
ag2106
ag2107
ag2108
ag2109
ag2110
ag2111
ag2112
ag2113
ag2114
ag2115
ag2116
ag2117
ag2118
ag2119
ag2120
ag2121
ag2122
ag2123
ag2124
ag2125
ag2126
ag2128
ag2129
ag2130
ag2131
ag2132
ag2133
ag2134
ag2135
ag2136
ag2137
ag2138
ag2139
ag2140
ag2141
ag2142
ag2143
ag2144
ag2145
ag2146
ag2147
ag2148
ag2149
ag2150
ag2151
ag2152
ag2153
ag2154
ag2155
ag2156
ag2157
ag2158
ag2159
ag2160
ag2161
ag2162
ag2163
ag2164
ag2165
ag2166
ag2167
ag2168
ag2169
ag2170
ag2171
ag2172
ag2173
ag2174
ag2175
ag2176
ag2177
ag2178
ag2179
ag2180
ag2181
ag2182
ag2183
ag2184
ag2185
ag2186
ag2187
ag2188
ag2189
ag2190
ag2191
ag2192
ag2193
ag2194
ag2195
ag2196
ag2197
ag2198
ag2199
ag2200
ag2201
ag2202
ag2203
ag2204
ag2205
ag2206
ag2207
ag2208
ag2209
ag2210
ag2211
ag2212
ag2213
ag2214
ag2215
ag2216
ag2217
ag2218
ag2219
ag2220
ag2221
ag2222
ag2223
ag2224
ag2225
ag2226
ag2227
ag2228
ag2229
ag2230
ag2231
ag2232
ag2233
ag2234
ag2235
ag2236
ag2237
ag2238
ag2239
ag2240
ag2241
ag2242
ag2243
ag2244
ag2245
ag2246
ag2247
ag2248
ag2249
ag2250
ag2251
ag2252
ag2253
ag2254
ag2255
ag2256
ag2257
ag2258
ag2259
ag2260
ag2261
ag2262
ag2263
ag2264
ag2265
ag2266
ag2267
ag2268
ag2269
ag2270
ag2271
ag2272
ag2273
ag2274
ag2275
ag2276
ag2277
ag2279
ag2280
ag2281
ag2282
ag2283
ag2284
ag2285
ag2286
ag2287
ag2288
ag2289
ag2290
ag2291
ag2292
ag2293
ag2294
ag2295
ag2296
ag2297
ag2298
ag2299
ag2300
ag2301
ag2302
ag2303
ag2304
ag2305
ag2306
ag2307
ag2308
ag2309
ag2310
ag2311
ag2312
ag2313
ag2314
ag2315
ag2316
ag2317
ag2318
ag2319
ag2320
ag2321
ag2322
ag2323
ag2324
ag2325
ag2326
ag2327
ag2328
ag2329
ag2330
ag2331
ag2332
ag2333
ag2334
ag2335
ag2336
ag2337
ag2338
ag2339
ag2340
ag2341
ag2342
ag2343
ag2344
ag2345
ag2346
ag2347
ag2348
ag2349
ag2350
ag2351
ag2352
ag2353
ag2354
ag2355
ag2356
ag2357
ag2358
ag2359
ag2360
ag2361
ag2362
ag2363
ag2364
ag2365
ag2366
ag2367
ag2368
ag2369
ag2370
ag2371
ag2372
ag2373
ag2374
ag2375
ag2376
ag2377
ag2378
ag2379
ag2380
ag2381
ag2382
ag2383
ag2384
ag2385
ag2386
ag2387
ag2388
ag2389
ag2390
ag2391
ag2392
ag2393
ag2394
ag2395
ag2396
ag2397
ag2398
ag2399
ag2400
ag2401
ag2402
ag2403
ag2404
ag2405
ag2406
ag2407
ag2408
ag2409
ag2410
ag2411
ag2412
ag2413
ag2414
ag2415
ag2416
ag2417
ag2418
ag2419
ag2420
ag2421
ag2422
ag2423
ag2424
ag2425
ag2426
ag2427
ag2428
ag2429
ag2430
ag2431
ag2432
ag2434
ag2435
ag2436
ag2437
ag2438
ag2439
ag2440
ag2441
ag2442
ag2443
ag2444
ag2445
ag2446
ag2447
ag2448
ag2449
ag2450
ag2451
ag2452
ag2453
ag2454
ag2455
ag2456
ag2457
ag2458
ag2459
ag2460
ag2461
ag2462
ag2463
ag2464
ag2465
ag2466
ag2467
ag2468
ag2469
ag2470
ag2471
ag2472
ag2473
ag2474
ag2475
ag2476
ag2477
ag2478
ag2479
ag2480
ag2481
ag2482
ag2483
ag2484
ag2485
ag2486
ag2487
ag2488
ag2489
ag2490
ag2491
ag2492
ag2493
ag2494
ag2495
ag2496
ag2497
ag2498
ag2499
ag2500
ag2501
ag2502
ag2503
ag2504
ag2505
ag2506
ag2507
ag2508
ag2509
ag2510
ag2511
ag2512
ag2513
ag2514
ag2515
ag2516
ag2517
ag2518
ag2519
ag2520
ag2521
ag2522
ag2523
ag2524
ag2525
ag2526
ag2527
ag2528
ag2529
ag2530
ag2531
ag2532
ag2533
ag2534
ag2535
ag2536
ag2537
ag2538
ag2539
ag2540
ag2541
ag2542
ag2543
ag2544
ag2545
ag2546
ag2547
ag2548
ag2549
ag2550
ag2551
ag2552
ag2553
ag2554
ag2555
ag2556
ag2557
ag2558
ag2559
ag2560
ag2561
ag2562
ag2563
ag2564
ag2565
ag2566
ag2567
ag2568
ag2569
ag2570
ag2571
ag2572
ag2573
ag2574
ag2575
ag2576
ag2577
ag2578
ag2579
ag2580
ag2581
ag2582
ag2583
ag2584
ag2585
ag2586
ag2587
ag2588
ag2589
ag2590
ag2591
ag2592
ag2593
ag2594
ag2595
ag2596
ag2597
ag2598
ag2599
ag2601
ag2602
ag2603
ag2604
ag2605
ag2606
ag2607
ag2608
ag2609
ag2610
ag2611
ag2612
ag2613
ag2614
ag2615
ag2616
ag2617
ag2618
ag2619
ag2620
ag2621
ag2622
ag2623
ag2624
ag2625
ag2626
ag2627
ag2628
ag2629
ag2630
ag2631
ag2632
ag2633
ag2634
ag2635
ag2636
ag2637
ag2638
ag2639
ag2640
ag2641
ag2642
ag2643
ag2644
ag2645
ag2646
ag2647
ag2648
ag2649
ag2650
ag2651
ag2652
ag2653
ag2654
ag2655
ag2656
ag2657
ag2658
ag2659
ag2660
ag2661
ag2662
ag2663
ag2664
ag2665
ag2666
ag2667
ag2668
ag2669
ag2670
ag2671
ag2672
ag2673
ag2674
ag2675
ag2676
ag2677
ag2678
ag2679
ag2680
ag2681
ag2682
ag2683
ag2684
ag2685
ag2686
ag2687
ag2688
ag2689
ag2690
ag2691
ag2692
ag2693
ag2694
ag2695
ag2696
ag2697
ag2698
ag2699
ag2700
ag2701
ag2702
ag2703
ag2704
ag2705
ag2706
ag2707
ag2708
ag2709
ag2710
ag2711
ag2712
ag2713
ag2714
ag2715
ag2716
ag2717
ag2718
ag2719
ag2720
ag2721
ag2722
ag2723
ag2724
ag2725
ag2726
ag2727
ag2728
ag2729
ag2730
ag2731
ag2732
ag2733
ag2734
ag2735
ag2736
ag2737
ag2738
ag2739
ag2740
ag2741
ag2742
ag2743
ag2744
ag2745
ag2746
ag2747
ag2748
ag2749
ag2750
ag2751
ag2752
ag2753
ag2754
ag2755
ag2756
ag2757
ag2758
ag2759
ag2760
ag2761
ag2762
ag2763
ag2764
ag2765
ag2766
ag2767
ag2768
ag2769
ag2771
ag2772
ag2773
ag2774
ag2775
ag2776
ag2777
ag2778
ag2779
ag2780
ag2781
ag2782
ag2783
ag2784
ag2785
ag2786
ag2787
ag2788
ag2789
ag2790
ag2791
ag2792
ag2793
ag2794
ag2795
ag2796
ag2797
ag2798
ag2799
ag2800
ag2801
ag2802
ag2803
ag2804
ag2805
ag2806
ag2807
ag2808
ag2809
ag2810
ag2811
ag2812
ag2813
ag2814
ag2815
ag2816
ag2817
ag2818
ag2819
ag2820
ag2821
ag2822
ag2823
ag2824
ag2825
ag2826
ag2827
ag2828
ag2829
ag2830
ag2831
ag2832
ag2833
ag2834
ag2835
ag2836
ag2837
ag2838
ag2839
ag2840
ag2841
ag2842
ag2843
ag2844
ag2845
ag2846
ag2847
ag2848
ag2849
ag2850
ag2851
ag2852
ag2853
ag2854
ag2855
ag2856
ag2857
ag2858
ag2859
ag2860
ag2861
ag2862
ag2863
ag2864
ag2865
ag2866
ag2867
ag2868
ag2869
ag2870
ag2871
ag2872
ag2873
ag2874
ag2875
ag2876
ag2877
ag2878
ag2879
ag2880
ag2881
ag2882
ag2883
ag2884
ag2885
ag2886
ag2887
ag2888
ag2889
ag2890
ag2891
ag2892
ag2893
ag2894
ag2895
ag2896
ag2897
ag2898
ag2899
ag2900
ag2901
ag2902
ag2903
ag2904
ag2905
ag2906
ag2907
ag2908
ag2909
ag2910
ag2911
ag2912
ag2913
ag2914
ag2915
ag2916
ag2917
ag2918
ag2919
ag2920
ag2921
ag2922
ag2923
ag2924
ag2925
ag2926
ag2927
ag2928
ag2930
ag2931
ag2932
ag2933
ag2934
ag2935
ag2936
ag2937
ag2938
ag2939
ag2940
ag2941
ag2942
ag2943
ag2944
ag2945
ag2946
ag2947
ag2948
ag2949
ag2950
ag2951
ag2952
ag2953
ag2954
ag2955
ag2956
ag2957
ag2958
ag2959
ag2960
ag2961
ag2962
ag2963
ag2964
ag2965
ag2966
ag2967
ag2968
ag2969
ag2970
ag2971
ag2972
ag2973
ag2974
ag2975
ag2976
ag2977
ag2978
ag2979
ag2980
ag2981
ag2982
ag2983
ag2984
ag2985
ag2986
ag2987
ag2988
ag2989
ag2990
ag2991
ag2992
ag2993
ag2994
ag2995
ag2996
ag2997
ag2998
ag2999
ag3000
ag3001
ag3002
ag3003
ag3004
ag3005
ag3006
ag3007
ag3008
ag3009
ag3010
ag3011
ag3012
ag3013
ag3014
ag3015
ag3016
ag3017
ag3018
ag3019
ag3020
ag3021
ag3022
ag3023
ag3024
ag3025
ag3026
ag3027
ag3028
ag3029
ag3030
ag3031
ag3032
ag3033
ag3034
ag3035
ag3036
ag3037
ag3038
ag3039
ag3040
ag3041
ag3042
ag3043
ag3044
ag3045
ag3046
ag3047
ag3048
ag3049
ag3050
ag3051
ag3052
ag3053
ag3054
ag3055
ag3056
ag3057
ag3058
ag3059
ag3060
ag3061
ag3062
ag3063
ag3064
ag3065
ag3066
ag3067
ag3068
ag3069
ag3070
ag3071
ag3072
ag3073
ag3074
ag3075
ag3076
ag3077
ag3078
ag3079
ag3080
ag3081
ag3082
ag3083
ag3084
ag3085
ag3086
ag3087
ag3088
ag3089
ag3090
ag3091
ag3092
ag3093
ag3094
ag3095
ag3096
ag3097
ag3098
ag3099
ag3100
ag3101
ag3102
ag3103
ag3104
ag3105
ag3106
ag3107
ag3108
ag3109
ag3111
ag3112
ag3113
ag3114
ag3115
ag3116
ag3117
ag3118
ag3119
ag3120
ag3121
ag3122
ag3123
ag3124
ag3125
ag3126
ag3127
ag3128
ag3129
ag3130
ag3131
ag3132
ag3133
ag3134
ag3135
ag3136
ag3137
ag3138
ag3139
ag3140
ag3141
ag3142
ag3143
ag3144
ag3145
ag3146
ag3147
ag3148
ag3149
ag3150
ag3151
ag3152
ag3153
ag3154
ag3155
ag3156
ag3157
ag3158
ag3159
ag3160
ag3161
ag3162
ag3163
ag3164
ag3165
ag3166
ag3167
ag3168
ag3169
ag3170
ag3171
ag3172
ag3173
ag3174
ag3175
ag3176
ag3177
ag3178
ag3179
ag3180
ag3181
ag3182
ag3183
ag3184
ag3185
ag3186
ag3187
ag3188
ag3189
ag3190
ag3191
ag3192
ag3193
ag3194
ag3195
ag3196
ag3197
ag3198
ag3199
ag3200
ag3201
ag3202
ag3203
ag3204
ag3205
ag3206
ag3207
ag3208
ag3209
ag3210
ag3211
ag3212
ag3213
ag3214
ag3215
ag3216
ag3217
ag3218
ag3219
ag3220
ag3221
ag3222
ag3223
ag3224
ag3225
ag3226
ag3227
ag3228
ag3229
ag3230
ag3231
ag3232
ag3233
ag3234
ag3235
ag3236
ag3237
ag3238
ag3239
ag3240
ag3241
ag3242
ag3243
ag3244
ag3245
ag3246
ag3247
ag3248
ag3249
ag3250
ag3251
ag3252
ag3253
ag3254
ag3255
ag3256
ag3257
ag3258
ag3259
ag3260
ag3261
ag3262
ag3263
ag3264
ag3265
ag3266
ag3267
ag3268
ag3269
ag3270
ag3271
ag3272
ag3273
ag3274
ag3275
ag3276
ag3277
ag3278
ag3279
ag3280
ag3281
ag3282
ag3283
ag3284
ag3285
ag3286
ag3287
ag3288
ag3289
ag3291
ag3292
ag3293
ag3294
ag3295
ag3296
ag3297
ag3298
ag3299
ag3300
ag3301
ag3302
ag3303
ag3304
ag3305
ag3306
ag3307
ag3308
ag3309
ag3310
ag3311
ag3312
ag3313
ag3314
ag3315
ag3316
ag3317
ag3318
ag3319
ag3320
ag3321
ag3322
ag3323
ag3324
ag3325
ag3326
ag3327
ag3328
ag3329
ag3330
ag3331
ag3332
ag3333
ag3334
ag3335
ag3336
ag3337
ag3338
ag3339
ag3340
ag3341
ag3342
ag3343
ag3344
ag3345
ag3346
ag3347
ag3348
ag3349
ag3350
ag3351
ag3352
ag3353
ag3354
ag3355
ag3356
ag3357
ag3358
ag3359
ag3360
ag3361
ag3362
ag3363
ag3364
ag3365
ag3366
ag3367
ag3368
ag3369
ag3370
ag3371
ag3372
ag3373
ag3374
ag3375
ag3376
ag3377
ag3378
ag3379
ag3380
ag3381
ag3382
ag3383
ag3384
ag3385
ag3386
ag3387
ag3388
ag3389
ag3390
ag3391
ag3392
ag3393
ag3394
ag3395
ag3396
ag3397
ag3398
ag3399
ag3400
ag3401
ag3402
ag3403
ag3404
ag3405
ag3406
ag3407
ag3408
ag3409
ag3410
ag3411
ag3412
ag3413
ag3414
ag3415
ag3416
ag3417
ag3418
ag3419
ag3420
ag3421
ag3422
ag3423
ag3424
ag3425
ag3426
ag3427
ag3428
ag3429
ag3430
ag3431
ag3432
ag3433
ag3434
ag3435
ag3436
ag3437
ag3438
ag3439
ag3440
ag3441
ag3442
ag3443
ag3444
ag3445
ag3446
ag3447
ag3448
ag3449
ag3450
ag3451
ag3452
ag3453
ag3454
ag3455
ag3456
ag3457
ag3458
ag3459
ag3460
ag3461
ag3462
ag3463
ag3464
ag3465
ag3466
ag3467
ag3469
ag3470
ag3471
ag3472
ag3473
ag3474
ag3475
ag3476
ag3477
ag3478
ag3479
ag3480
ag3481
ag3482
ag3483
ag3484
ag3485
ag3486
ag3487
ag3488
ag3489
ag3490
ag3491
ag3492
ag3493
ag3494
ag3495
ag3496
ag3497
ag3498
ag3499
ag3500
ag3501
ag3502
ag3503
ag3504
ag3505
ag3506
ag3507
ag3508
ag3509
ag3510
ag3511
ag3512
ag3513
ag3514
ag3515
ag3516
ag3517
ag3518
ag3519
ag3520
ag3521
ag3522
ag3523
ag3524
ag3525
ag3526
ag3527
ag3528
ag3529
ag3530
ag3531
ag3532
ag3533
ag3534
ag3535
ag3536
ag3537
ag3538
ag3539
ag3540
ag3541
ag3542
ag3543
ag3544
ag3545
ag3546
ag3547
ag3548
ag3549
ag3550
ag3551
ag3552
ag3553
ag3554
ag3555
ag3556
ag3557
ag3558
ag3559
ag3560
ag3561
ag3562
ag3563
ag3564
ag3565
ag3566
ag3567
ag3568
ag3569
ag3570
ag3571
ag3572
ag3573
ag3574
ag3575
ag3576
ag3577
ag3578
ag3579
ag3580
ag3581
ag3582
ag3583
ag3584
ag3585
ag3586
ag3587
ag3588
ag3589
ag3590
ag3591
ag3592
ag3593
ag3594
ag3595
ag3596
ag3597
ag3598
ag3599
ag3600
ag3601
ag3602
ag3603
ag3604
ag3605
ag3606
ag3607
ag3608
ag3609
ag3610
ag3611
ag3612
ag3613
ag3614
ag3615
ag3616
ag3617
ag3618
ag3619
ag3620
ag3621
ag3622
ag3623
ag3624
ag3625
ag3626
ag3627
ag3628
ag3629
ag3630
ag3631
ag3632
ag3633
ag3634
ag3635
ag3636
ag3637
ag3638
ag3639
ag3640
ag3641
ag3642
ag3643
ag3644
ag3645
ag3646
ag3647
ag3648
ag3649
ag3650
ag3651
ag3652
ag3653
ag3654
ag3655
ag3656
ag3657
ag3658
ag3659
ag3660
ag3661
ag3662
ag3664
ag3665
ag3666
ag3667
ag3668
ag3669
ag3670
ag3671
ag3672
ag3673
ag3674
ag3675
ag3676
ag3677
ag3678
ag3679
ag3680
ag3681
ag3682
ag3683
ag3684
ag3685
ag3686
ag3687
ag3688
ag3689
ag3690
ag3691
ag3692
ag3693
ag3694
ag3695
ag3696
ag3697
ag3698
ag3699
ag3700
ag3701
ag3702
ag3703
ag3704
ag3705
ag3706
ag3707
ag3708
ag3709
ag3710
ag3711
ag3712
ag3713
ag3714
ag3715
ag3716
ag3717
ag3718
ag3719
ag3720
ag3721
ag3722
ag3723
ag3724
ag3725
ag3726
ag3727
ag3728
ag3729
ag3730
ag3731
ag3732
ag3733
ag3734
ag3735
ag3736
ag3737
ag3738
ag3739
ag3740
ag3741
ag3742
ag3743
ag3744
ag3745
ag3746
ag3747
ag3748
ag3749
ag3750
ag3751
ag3752
ag3753
ag3754
ag3755
ag3756
ag3757
ag3758
ag3759
ag3760
ag3761
ag3762
ag3763
ag3764
ag3765
ag3766
ag3767
ag3768
ag3769
ag3770
ag3771
ag3772
ag3773
ag3774
ag3775
ag3776
ag3777
ag3778
ag3779
ag3780
ag3781
ag3782
ag3783
ag3784
ag3785
ag3786
ag3787
ag3788
ag3789
ag3790
ag3791
ag3792
ag3793
ag3794
ag3795
ag3796
ag3797
ag3798
ag3799
ag3800
ag3801
ag3802
ag3803
ag3804
ag3805
ag3806
ag3807
ag3808
ag3809
ag3810
ag3811
ag3812
ag3813
ag3814
ag3815
ag3816
ag3817
ag3818
ag3819
ag3820
ag3821
ag3822
ag3823
ag3824
ag3825
ag3826
ag3827
ag3828
ag3829
ag3830
ag3831
ag3832
ag3833
ag3834
ag3835
ag3836
ag3837
ag3838
ag3839
ag3840
ag3841
ag3842
ag3843
ag3844
ag3845
ag3846
ag3847
ag3848
ag3849
ag3850
ag3851
ag3852
ag3853
ag3854
asS'mean_r'
p3863
(dp3864
I0
F0.0
sI1
I0
sI2
F1.0
sI3
F0.7071067811865475
sI4
F1.5231546211727816
sI5
F1.6003333341934571
sI6
F2.822798467209267
sI7
F2.6795546016836473
sI8
F3.7666260323094805
sI9
F3.469644692670454
sI10
F4.2243643052416
sI11
F5.174084372905019
sI12
F4.90657548963641
sI13
F6.191914622045556
sI14
F6.104894625861234
sI15
F7.163268727663478
sI16
F7.584814731745836
sI17
F7.713732878242257
sI18
F9.140549032749732
sI19
F9.421526696956137
sI20
F9.836354524562314
sI21
F10.383709167696798
sI22
F10.780942905767471
sI23
F12.77073333851479
sI24
F13.819258776226087
sI25
F14.241817910310267
sI26
F15.345689098828473
sI27
F16.413267573555498
sI28
F17.57677478959295
sI29
F16.973566230775944
sI30
F18.469352412763158
sI31
F20.250477557163926
sI32
F19.77551194657907
sI33
F20.576174723564066
sI34
F21.85207739012956
sI35
F22.44702044547629
sI36
F23.24315332093289
sI37
F24.062731710427016
sI38
F25.96663144135286
sI39
F26.389459627036498
sI40
F27.5493421315503
sI41
F28.23584142187096
sI42
F29.104616383434607
sI43
F30.143452973080624
sI44
F30.46484088704962
sI45
F32.1874200277913
sI46
F33.57482263099431
sI47
F33.79102453024753
sI48
F34.67246409238831
sI49
F36.49870957178264
ss.