(dp0
S'gyr_r'
p1
(dp2
I0
F0.0
sI1
F1.0
sI2
F2.335496832484569
sI3
F2.4688535993934706
sI4
F2.848751413406339
sI5
F3.147419578003543
sI6
F3.5150470203904183
sI7
F4.034128598394838
sI8
F4.43471156521669
sI9
F4.6694885920559015
ssS'gens'
p3
(lp4
(lp5
(I0
I0
I0
tp6
aa(lp7
(I1
I0
I1
tp8
a(I0
I-1
I1
tp9
aa(lp10
(I1
I-1
I2
tp11
a(I-1
I0
I2
tp12
a(I0
I-2
I2
tp13
a(I0
I-3
I2
tp14
a(I0
I-4
I2
tp15
a(I-1
I-4
I2
tp16
a(I0
I-5
I2
tp17
a(I-1
I-5
I2
tp18
aa(lp19
(I1
I-3
I3
tp20
a(I-1
I-2
I3
tp21
a(I-1
I-1
I3
tp22
a(I0
I1
I3
tp23
a(I2
I0
I3
tp24
a(I-2
I-1
I3
tp25
a(I-2
I-2
I3
tp26
a(I0
I2
I3
tp27
a(I3
I2
I3
tp28
a(I1
I1
I3
tp29
aa(lp30
(I-2
I-3
I4
tp31
a(I-1
I-7
I4
tp32
a(I2
I-5
I4
tp33
a(I3
I3
I4
tp34
a(I2
I-1
I4
tp35
aa(lp36
(I2
I-6
I5
tp37
a(I0
I-6
I5
tp38
a(I1
I-6
I5
tp39
a(I0
I3
I5
tp40
a(I1
I3
I5
tp41
a(I-1
I-3
I5
tp42
aa(lp43
(I0
I-7
I6
tp44
a(I1
I2
I6
tp45
a(I3
I0
I6
tp46
a(I3
I1
I6
tp47
a(I-3
I-2
I6
tp48
a(I2
I1
I6
tp49
a(I1
I-2
I6
tp50
a(I-3
I-1
I6
tp51
a(I-1
I-8
I6
tp52
a(I-1
I1
I6
tp53
a(I2
I3
I6
tp54
a(I-2
I0
I6
tp55
a(I0
I-9
I6
tp56
aa(lp57
(I2
I-7
I7
tp58
a(I2
I2
I7
tp59
a(I1
I4
I7
tp60
a(I1
I-5
I7
tp61
a(I-3
I-3
I7
tp62
a(I-3
I1
I7
tp63
a(I-2
I-7
I7
tp64
a(I-3
I-7
I7
tp65
a(I-1
I2
I7
tp66
a(I4
I3
I7
tp67
a(I-1
I3
I7
tp68
a(I1
I-7
I7
tp69
a(I-3
I0
I7
tp70
a(I0
I-8
I7
tp71
a(I4
I5
I7
tp72
a(I-3
I2
I7
tp73
a(I-1
I-6
I7
tp74
aa(lp75
(I5
I-1
I8
tp76
a(I-3
I-4
I8
tp77
a(I-4
I0
I8
tp78
a(I1
I-4
I8
tp79
a(I5
I-5
I8
tp80
a(I6
I-3
I8
tp81
a(I2
I-4
I8
tp82
a(I2
I4
I8
tp83
a(I-2
I2
I8
tp84
a(I-2
I3
I8
tp85
a(I1
I-8
I8
tp86
a(I1
I-9
I8
tp87
a(I-1
I-9
I8
tp88
a(I-2
I-6
I8
tp89
a(I-4
I1
I8
tp90
a(I3
I-7
I8
tp91
a(I-6
I-7
I8
tp92
a(I4
I1
I8
tp93
a(I1
I5
I8
tp94
aa(lp95
(I4
I0
I9
tp96
a(I5
I-4
I9
tp97
a(I4
I8
I9
tp98
a(I-2
I-8
I9
tp99
a(I3
I-1
I9
tp100
a(I3
I-4
I9
tp101
a(I4
I2
I9
tp102
a(I4
I-2
I9
tp103
a(I-2
I-4
I9
tp104
a(I-3
I-8
I9
tp105
a(I4
I7
I9
tp106
a(I2
I-3
I9
tp107
a(I5
I0
I9
tp108
a(I0
I4
I9
tp109
a(I4
I-3
I9
tp110
a(I3
I-2
I9
tp111
aasS'pop'
p112
(dp113
I0
I1
sI1
I3
sI2
I11
sI3
I21
sI4
I26
sI5
I32
sI6
I45
sI7
I62
sI8
I81
sI9
I97
ssS'max_r'
p114
(dp115
I0
F0.0
sI1
F1.4142135623730951
sI2
F3.0
sI3
F5.0
sI4
F5.830951894845301
sI5
F5.0990195135927845
sI6
F7.0
sI7
F8.06225774829855
sI8
F7.810249675906654
sI9
F10.770329614269007
ssS'params'
p116
(F1.8
I10
tp117
sS'infected'
p118
(lp119
g6
ag8
ag9
ag11
ag12
ag13
ag14
ag15
ag16
ag17
ag18
ag20
ag21
ag22
ag23
ag24
ag25
ag26
ag27
ag28
ag29
ag31
ag32
ag33
ag34
ag35
ag37
ag38
ag39
ag40
ag41
ag42
ag44
ag45
ag46
ag47
ag48
ag49
ag50
ag51
ag52
ag53
ag54
ag55
ag56
ag58
ag59
ag60
ag61
ag62
ag63
ag64
ag65
ag66
ag67
ag68
ag69
ag70
ag71
ag72
ag73
ag74
ag76
ag77
ag78
ag79
ag80
ag81
ag82
ag83
ag84
ag85
ag86
ag87
ag88
ag89
ag90
ag91
ag92
ag93
ag94
ag96
ag97
ag98
ag99
ag100
ag101
ag102
ag103
ag104
ag105
ag106
ag107
ag108
ag109
ag110
ag111
asS'mean_r'
p120
(dp121
I0
F0.0
sI1
F0.7071067811865476
sI2
F1.8616152783740212
sI3
F2.605519988716055
sI4
F3.8015317277803313
sI5
F4.018079109430521
sI6
F4.015212203552354
sI7
F5.014032914204966
sI8
F5.355056623450677
sI9
F5.219168509447388
ss.